 node-librdkafka

 Timestamp is 5eb90958 (Mon May 11 12:14:16 2020)

 Preferred load address is 0000000180000000

 Start         Length     Name                   Class
 0001:00000000 00000260H .text$di                CODE
 0001:00000260 0003d510H .text$mn                CODE
 0001:0003d770 00000020H .text$mn$00             CODE
 0001:0003d790 00000500H .text$x                 CODE
 0001:0003dc90 000001d8H .text$yd                CODE
 0002:00000000 00000438H .idata$5                DATA
 0002:00000438 00000010H .00cfg                  DATA
 0002:00000448 00000008H .CRT$XCA                DATA
 0002:00000450 00000058H .CRT$XCC                DATA
 0002:000004a8 00000010H .CRT$XCL                DATA
 0002:000004b8 00000028H .CRT$XCU                DATA
 0002:000004e0 00000008H .CRT$XCZ                DATA
 0002:000004e8 00000008H .CRT$XIA                DATA
 0002:000004f0 00000028H .CRT$XIC                DATA
 0002:00000518 00000008H .CRT$XIZ                DATA
 0002:00000520 00000008H .CRT$XPA                DATA
 0002:00000528 00000010H .CRT$XPX                DATA
 0002:00000538 00000008H .CRT$XPXA               DATA
 0002:00000540 00000008H .CRT$XPZ                DATA
 0002:00000548 00000008H .CRT$XTA                DATA
 0002:00000550 00000010H .CRT$XTZ                DATA
 0002:00000558 00000000H .gfids$y                DATA
 0002:00000560 00012e20H .rdata                  DATA
 0002:00013380 000023dcH .rdata$r                DATA
 0002:0001575c 00000414H .rdata$zzzdbg           DATA
 0002:00015b70 00000008H .rtc$IAA                DATA
 0002:00015b78 00000008H .rtc$IZZ                DATA
 0002:00015b80 00000008H .rtc$TAA                DATA
 0002:00015b88 00000008H .rtc$TZZ                DATA
 0002:00015b90 00003cd0H .xdata                  DATA
 0002:00019860 000003bcH .xdata$x                DATA
 0002:00019c1c 00000020H .didat$2                DATA
 0002:00019c3c 00000024H .didat$3                DATA
 0002:00019c60 000002f0H .didat$4                DATA
 0002:00019f50 00001638H .didat$6                DATA
 0002:0001b588 000002f8H .didat$7                DATA
 0002:0001b880 00000058H .edata                  DATA
 0002:0001b8d8 0000003cH .idata$2                DATA
 0002:0001b914 00000014H .idata$3                DATA
 0002:0001b928 00000438H .idata$4                DATA
 0002:0001bd60 00000f2cH .idata$6                DATA
 0003:00000000 00000ba0H .data                   DATA
 0003:00000ba0 00000f70H .data$r                 DATA
 0003:00001b10 000002f0H .didat$5                DATA
 0003:00001e00 00001ae4H .bss                    DATA
 0004:00000000 00003894H .pdata                  DATA
 0005:00000000 00000060H .rsrc$01                DATA
 0005:00000060 00000180H .rsrc$02                DATA

  Address         Publics by Value              Rva+Base               Lib:Object

 0000:00000000       __hybrid_code_map_count    0000000000000000     <absolute>
 0000:00000000       __hybrid_code_map          0000000000000000     <absolute>
 0000:00000000       __guard_iat_count          0000000000000000     <absolute>
 0000:00000000       __guard_longjmp_count      0000000000000000     <absolute>
 0000:00000000       __guard_longjmp_table      0000000000000000     <absolute>
 0000:00000000       __volatile_metadata        0000000000000000     <absolute>
 0000:00000000       __guard_iat_table          0000000000000000     <absolute>
 0000:00000000       __guard_fids_count         0000000000000000     <absolute>
 0000:00000000       ___safe_se_handler_count   0000000000000000     <absolute>
 0000:00000000       __enclave_config           0000000000000000     <absolute>
 0000:00000000       ___safe_se_handler_table   0000000000000000     <absolute>
 0000:00000000       __guard_fids_table         0000000000000000     <absolute>
 0000:00000000       __hybrid_auxiliary_iat     0000000000000000     <absolute>
 0000:00000000       __dynamic_value_reloc_table 0000000000000000     <absolute>
 0000:00000100       __guard_flags              0000000000000100     <absolute>
 0000:00000000       __ImageBase                0000000180000000     <linker-defined>
 0001:00000340       ?Set@Nan@@YA?AV?$Maybe@_N@1@V?$Local@VObject@v8@@@v8@@V?$Local@VValue@v8@@@4@1@Z 0000000180001340 f i binding.obj
 0001:000003e0       ?New@?$Factory@VFunctionTemplate@v8@@@imp@Nan@@SA?AV?$Local@VFunctionTemplate@v8@@@v8@@P6AXAEBV?$FunctionCallbackInfo@VValue@v8@@@3@@ZV?$Local@VValue@v8@@@5@V?$Local@VSignature@v8@@@5@@Z 00000001800013e0 f i binding.obj
 0001:000005c0       ?NodeRdKafkaErr2Str@@YAXAEBV?$FunctionCallbackInfo@VValue@v8@@@Nan@@@Z 00000001800015c0 f   binding.obj
 0001:00000700       ?NodeRdKafkaBuildInFeatures@@YAXAEBV?$FunctionCallbackInfo@VValue@v8@@@Nan@@@Z 0000000180001700 f   binding.obj
 0001:00000960       ?ConstantsInit@@YAXV?$Local@VObject@v8@@@v8@@@Z 0000000180001960 f   binding.obj
 0001:00000f10       ?Init@@YAXV?$Local@VObject@v8@@@v8@@V?$Local@VValue@v8@@@2@PEAX@Z 0000000180001f10 f   binding.obj
 0001:000010d0       ??1?$basic_string@DU?$char_traits@D@std@@V?$allocator@D@2@@std@@QEAA@XZ 00000001800020d0 f i binding.obj
 0001:000010d0       ?_Tidy_deallocate@?$basic_string@DU?$char_traits@D@std@@V?$allocator@D@2@@std@@QEAAXXZ 00000001800020d0 f i binding.obj
 0001:00001130       ??0?$basic_string@DU?$char_traits@D@std@@V?$allocator@D@2@@std@@QEAA@QEBD@Z 0000000180002130 f i binding.obj
 0001:00001170       ??0?$basic_string@DU?$char_traits@D@std@@V?$allocator@D@2@@std@@QEAA@AEBV01@@Z 0000000180002170 f i binding.obj
 0001:00001250       ?assign@?$basic_string@DU?$char_traits@D@std@@V?$allocator@D@2@@std@@QEAAAEAV12@QEBD_K@Z 0000000180002250 f i binding.obj
 0001:000013a0       ??$New@VString@v8@@V?$basic_string@DU?$char_traits@D@std@@V?$allocator@D@2@@std@@@Nan@@YA?AV?$MaybeLocal@VString@v8@@@v8@@V?$basic_string@DU?$char_traits@D@std@@V?$allocator@D@2@@std@@@Z 00000001800023a0 f i binding.obj
 0001:00001470       ?_Xlen@?$basic_string@DU?$char_traits@D@std@@V?$allocator@D@2@@std@@SAXXZ 0000000180002470 f i binding.obj
 0001:00001490       ??0AsyncResource@Nan@@QEAA@PEBDV?$Local@VObject@v8@@@v8@@@Z 0000000180002490 f i callbacks.obj
 0001:00001550       ?Call@Callback@Nan@@QEBA?AV?$Local@VValue@v8@@@v8@@HQEAV34@@Z 0000000180002550 f i callbacks.obj
 0001:00001770       ?Call_@Callback@Nan@@AEBA?AV?$MaybeLocal@VValue@v8@@@v8@@PEAVIsolate@4@V?$Local@VObject@v8@@@4@HQEAV?$Local@VValue@v8@@@4@PEAVAsyncResource@2@@Z 0000000180002770 f i callbacks.obj
 0001:00001860       ?AsyncMessage_@Dispatcher@Callbacks@NodeKafka@@CAXPEAUuv_async_s@@@Z 0000000180002860 f i callbacks.obj
 0001:00001870       ??0rebalance_event_t@Callbacks@NodeKafka@@QEAA@W4ErrorCode@RdKafka@@V?$vector@PEAVTopicPartition@RdKafka@@V?$allocator@PEAVTopicPartition@RdKafka@@@std@@@std@@@Z 0000000180002870 f i callbacks.obj
 0001:00001a80       ??0offset_commit_event_t@Callbacks@NodeKafka@@QEAA@W4ErrorCode@RdKafka@@AEBV?$vector@PEAVTopicPartition@RdKafka@@V?$allocator@PEAVTopicPartition@RdKafka@@@std@@@std@@@Z 0000000180002a80 f i callbacks.obj
 0001:00001c40       ?TopicPartitionListToV8Array@Callbacks@NodeKafka@@YA?AV?$Local@VArray@v8@@@v8@@V?$vector@Uevent_topic_partition_t@Callbacks@NodeKafka@@V?$allocator@Uevent_topic_partition_t@Callbacks@NodeKafka@@@std@@@std@@@Z 0000000180002c40 f   callbacks.obj
 0001:00002020       ??1Dispatcher@Callbacks@NodeKafka@@QEAA@XZ 0000000180003020 f   callbacks.obj
 0001:00002120       ?AddCallback@Dispatcher@Callbacks@NodeKafka@@QEAAXV?$Local@VFunction@v8@@@v8@@@Z 0000000180003120 f   callbacks.obj
 0001:000021e0       ??0event_t@Callbacks@NodeKafka@@QEAA@AEBVEvent@RdKafka@@@Z 00000001800031e0 f   callbacks.obj
 0001:00002690       ??1event_t@Callbacks@NodeKafka@@QEAA@XZ 0000000180003690 f   callbacks.obj
 0001:00002790       ??_GEvent@Callbacks@NodeKafka@@UEAAPEAXI@Z 0000000180003790 f i callbacks.obj
 0001:00002790       ??_EEvent@Callbacks@NodeKafka@@UEAAPEAXI@Z 0000000180003790 f i * CIL library *:* CIL module *
 0001:000027e0       ?event_cb@Event@Callbacks@NodeKafka@@UEAAXAEAV1RdKafka@@@Z 00000001800037e0 f   callbacks.obj
 0001:00002900       ??1EventDispatcher@Callbacks@NodeKafka@@QEAA@XZ 0000000180003900 f   callbacks.obj
 0001:000029d0       ?Flush@EventDispatcher@Callbacks@NodeKafka@@UEAAXXZ 00000001800039d0 f   callbacks.obj
 0001:000035a0       ??1DeliveryReportDispatcher@Callbacks@NodeKafka@@QEAA@XZ 00000001800045a0 f   callbacks.obj
 0001:000036a0       ?Flush@DeliveryReportDispatcher@Callbacks@NodeKafka@@UEAAXXZ 00000001800046a0 f   callbacks.obj
 0001:000041f0       ??0DeliveryReport@Callbacks@NodeKafka@@QEAA@AEAVMessage@RdKafka@@_N@Z 00000001800051f0 f   callbacks.obj
 0001:000044b0       ??1DeliveryReport@Callbacks@NodeKafka@@QEAA@XZ 00000001800054b0 f   callbacks.obj
 0001:00004560       ??_EDelivery@Callbacks@NodeKafka@@UEAAPEAXI@Z 0000000180005560 f i * CIL library *:* CIL module *
 0001:00004560       ??_GDelivery@Callbacks@NodeKafka@@UEAAPEAXI@Z 0000000180005560 f i callbacks.obj
 0001:000045b0       ?dr_cb@Delivery@Callbacks@NodeKafka@@UEAAXAEAVMessage@RdKafka@@@Z 00000001800055b0 f   callbacks.obj
 0001:000046e0       ??1RebalanceDispatcher@Callbacks@NodeKafka@@QEAA@XZ 00000001800056e0 f   callbacks.obj
 0001:00004790       ?Flush@RebalanceDispatcher@Callbacks@NodeKafka@@UEAAXXZ 0000000180005790 f   callbacks.obj
 0001:00004a70       ??_ERebalance@Callbacks@NodeKafka@@UEAAPEAXI@Z 0000000180005a70 f i * CIL library *:* CIL module *
 0001:00004a70       ??_GRebalance@Callbacks@NodeKafka@@UEAAPEAXI@Z 0000000180005a70 f i callbacks.obj
 0001:00004ac0       ?rebalance_cb@Rebalance@Callbacks@NodeKafka@@UEAAXPEAVKafkaConsumer@RdKafka@@W4ErrorCode@5@AEAV?$vector@PEAVTopicPartition@RdKafka@@V?$allocator@PEAVTopicPartition@RdKafka@@@std@@@std@@@Z 0000000180005ac0 f   callbacks.obj
 0001:00004bc0       ??1OffsetCommitDispatcher@Callbacks@NodeKafka@@QEAA@XZ 0000000180005bc0 f   callbacks.obj
 0001:00004c70       ?Flush@OffsetCommitDispatcher@Callbacks@NodeKafka@@UEAAXXZ 0000000180005c70 f   callbacks.obj
 0001:00004f30       ??_EOffsetCommit@Callbacks@NodeKafka@@UEAAPEAXI@Z 0000000180005f30 f i * CIL library *:* CIL module *
 0001:00004f30       ??_GOffsetCommit@Callbacks@NodeKafka@@UEAAPEAXI@Z 0000000180005f30 f i callbacks.obj
 0001:00004f80       ?offset_commit_cb@OffsetCommit@Callbacks@NodeKafka@@UEAAXW4ErrorCode@RdKafka@@AEAV?$vector@PEAVTopicPartition@RdKafka@@V?$allocator@PEAVTopicPartition@RdKafka@@@std@@@std@@@Z 0000000180005f80 f   callbacks.obj
 0001:00005020       ??_EPartitioner@Callbacks@NodeKafka@@UEAAPEAXI@Z 0000000180006020 f i * CIL library *:* CIL module *
 0001:00005020       ??_GPartitioner@Callbacks@NodeKafka@@UEAAPEAXI@Z 0000000180006020 f i callbacks.obj
 0001:00005080       ?partitioner_cb@Partitioner@Callbacks@NodeKafka@@UEAAHPEBVTopic@RdKafka@@PEBV?$basic_string@DU?$char_traits@D@std@@V?$allocator@D@2@@std@@HPEAX@Z 0000000180006080 f   callbacks.obj
 0001:00005300       ??0?$vector@Uevent_topic_partition_t@Callbacks@NodeKafka@@V?$allocator@Uevent_topic_partition_t@Callbacks@NodeKafka@@@std@@@std@@QEAA@AEBV01@@Z 0000000180006300 f i callbacks.obj
 0001:00005440       ?_Xlength@?$vector@V?$Persistent@VFunction@v8@@U?$CopyablePersistentTraits@VFunction@v8@@@2@@v8@@V?$allocator@V?$Persistent@VFunction@v8@@U?$CopyablePersistentTraits@VFunction@v8@@@2@@v8@@@std@@@std@@CAXXZ 0000000180006440 f i callbacks.obj
 0001:00005440       ?_Xlength@?$vector@Uevent_topic_partition_t@Callbacks@NodeKafka@@V?$allocator@Uevent_topic_partition_t@Callbacks@NodeKafka@@@std@@@std@@CAXXZ 0000000180006440 f i callbacks.obj
 0001:00005440       ?_Xlength@?$vector@VDeliveryReport@Callbacks@NodeKafka@@V?$allocator@VDeliveryReport@Callbacks@NodeKafka@@@std@@@std@@CAXXZ 0000000180006440 f i callbacks.obj
 0001:00005440       ?_Xlength@?$vector@Uevent_t@Callbacks@NodeKafka@@V?$allocator@Uevent_t@Callbacks@NodeKafka@@@std@@@std@@CAXXZ 0000000180006440 f i callbacks.obj
 0001:00005440       ?_Xlength@?$vector@PEAVMessage@RdKafka@@V?$allocator@PEAVMessage@RdKafka@@@std@@@std@@CAXXZ 0000000180006440 f i workers.obj
 0001:00005440       ?_Xlength@?$vector@V?$basic_string@DU?$char_traits@D@std@@V?$allocator@D@2@@std@@V?$allocator@V?$basic_string@DU?$char_traits@D@std@@V?$allocator@D@2@@std@@@2@@std@@CAXXZ 0000000180006440 f i common.obj
 0001:00005440       ?_Xlength@?$vector@Urebalance_event_t@Callbacks@NodeKafka@@V?$allocator@Urebalance_event_t@Callbacks@NodeKafka@@@std@@@std@@CAXXZ 0000000180006440 f i callbacks.obj
 0001:00005440       ?_Xlength@?$vector@PEAVTopicPartition@RdKafka@@V?$allocator@PEAVTopicPartition@RdKafka@@@std@@@std@@CAXXZ 0000000180006440 f i callbacks.obj
 0001:00005440       ?_Xlength@?$vector@Uoffset_commit_event_t@Callbacks@NodeKafka@@V?$allocator@Uoffset_commit_event_t@Callbacks@NodeKafka@@@std@@@std@@CAXXZ 0000000180006440 f i callbacks.obj
 0001:00005440       ?_Xlength@?$vector@VHeader@Headers@RdKafka@@V?$allocator@VHeader@Headers@RdKafka@@@std@@@std@@CAXXZ 0000000180006440 f i producer.obj
 0001:00005460       ?_Tidy@?$vector@Uevent_topic_partition_t@Callbacks@NodeKafka@@V?$allocator@Uevent_topic_partition_t@Callbacks@NodeKafka@@@std@@@std@@AEAAXXZ 0000000180006460 f i callbacks.obj
 0001:000054f0       ?_Growmap@?$deque@VDeliveryReport@Callbacks@NodeKafka@@V?$allocator@VDeliveryReport@Callbacks@NodeKafka@@@std@@@std@@IEAAX_K@Z 00000001800064f0 f i callbacks.obj
 0001:000056d0       ?_Buy@?$vector@PEAVTopicPartition@RdKafka@@V?$allocator@PEAVTopicPartition@RdKafka@@@std@@@std@@AEAA_N_K@Z 00000001800066d0 f i callbacks.obj
 0001:00005780       ?_Change_array@?$vector@VDeliveryReport@Callbacks@NodeKafka@@V?$allocator@VDeliveryReport@Callbacks@NodeKafka@@@std@@@std@@AEAAXQEAVDeliveryReport@Callbacks@NodeKafka@@_K1@Z 0000000180006780 f i callbacks.obj
 0001:00005860       ?_Xlen@?$deque@VDeliveryReport@Callbacks@NodeKafka@@V?$allocator@VDeliveryReport@Callbacks@NodeKafka@@@std@@@std@@IEBAXXZ 0000000180006860 f i callbacks.obj
 0001:00005880       ??$_Emplace_reallocate@VDeliveryReport@Callbacks@NodeKafka@@@?$vector@VDeliveryReport@Callbacks@NodeKafka@@V?$allocator@VDeliveryReport@Callbacks@NodeKafka@@@std@@@std@@QEAAPEAVDeliveryReport@Callbacks@NodeKafka@@QEAV234@$$QEAV234@@Z 0000000180006880 f i callbacks.obj
 0001:00005ab0       ??$_Emplace_reallocate@AEBUoffset_commit_event_t@Callbacks@NodeKafka@@@?$vector@Uoffset_commit_event_t@Callbacks@NodeKafka@@V?$allocator@Uoffset_commit_event_t@Callbacks@NodeKafka@@@std@@@std@@QEAAPEAUoffset_commit_event_t@Callbacks@NodeKafka@@QEAU234@AEBU234@@Z 0000000180006ab0 f i callbacks.obj
 0001:00005ab0       ??$_Emplace_reallocate@AEBUrebalance_event_t@Callbacks@NodeKafka@@@?$vector@Urebalance_event_t@Callbacks@NodeKafka@@V?$allocator@Urebalance_event_t@Callbacks@NodeKafka@@@std@@@std@@QEAAPEAUrebalance_event_t@Callbacks@NodeKafka@@QEAU234@AEBU234@@Z 0000000180006ab0 f i callbacks.obj
 0001:00005c70       ??$_Emplace_reallocate@AEBUevent_topic_partition_t@Callbacks@NodeKafka@@@?$vector@Uevent_topic_partition_t@Callbacks@NodeKafka@@V?$allocator@Uevent_topic_partition_t@Callbacks@NodeKafka@@@std@@@std@@QEAAPEAUevent_topic_partition_t@Callbacks@NodeKafka@@QEAU234@AEBU234@@Z 0000000180006c70 f i callbacks.obj
 0001:00005e90       ??$construct@Uevent_t@Callbacks@NodeKafka@@AEBU123@@?$_Default_allocator_traits@V?$allocator@Uevent_t@Callbacks@NodeKafka@@@std@@@std@@SAXAEAV?$allocator@Uevent_t@Callbacks@NodeKafka@@@1@QEAUevent_t@Callbacks@NodeKafka@@AEBU345@@Z 0000000180006e90 f i callbacks.obj
 0001:00005ef0       ??$_Emplace_reallocate@AEBUevent_t@Callbacks@NodeKafka@@@?$vector@Uevent_t@Callbacks@NodeKafka@@V?$allocator@Uevent_t@Callbacks@NodeKafka@@@std@@@std@@QEAAPEAUevent_t@Callbacks@NodeKafka@@QEAU234@AEBU234@@Z 0000000180006ef0 f i callbacks.obj
 0001:00006170       ??$_Emplace_reallocate@V?$Persistent@VFunction@v8@@U?$CopyablePersistentTraits@VFunction@v8@@@2@@v8@@@?$vector@V?$Persistent@VFunction@v8@@U?$CopyablePersistentTraits@VFunction@v8@@@2@@v8@@V?$allocator@V?$Persistent@VFunction@v8@@U?$CopyablePersistentTraits@VFunction@v8@@@2@@v8@@@std@@@std@@QEAAPEAV?$Persistent@VFunction@v8@@U?$CopyablePersistentTraits@VFunction@v8@@@2@@v8@@QEAV23@$$QEAV23@@Z 0000000180007170 f i callbacks.obj
 0001:00006390       ??$_Destroy_range@V?$allocator@Uevent_topic_partition_t@Callbacks@NodeKafka@@@std@@@std@@YAXPEAUevent_topic_partition_t@Callbacks@NodeKafka@@0AEAV?$allocator@Uevent_topic_partition_t@Callbacks@NodeKafka@@@0@@Z 0000000180007390 f i callbacks.obj
 0001:00006420       ??0DeliveryReport@Callbacks@NodeKafka@@QEAA@AEBV012@@Z 0000000180007420 f i callbacks.obj
 0001:000064c0       ?_Umove@?$vector@Uevent_t@Callbacks@NodeKafka@@V?$allocator@Uevent_t@Callbacks@NodeKafka@@@std@@@std@@AEAAPEAUevent_t@Callbacks@NodeKafka@@PEAU345@00@Z 00000001800074c0 f i callbacks.obj
 0001:00006570       ?_Umove@?$vector@V?$Persistent@VFunction@v8@@U?$CopyablePersistentTraits@VFunction@v8@@@2@@v8@@V?$allocator@V?$Persistent@VFunction@v8@@U?$CopyablePersistentTraits@VFunction@v8@@@2@@v8@@@std@@@std@@AEAAPEAV?$Persistent@VFunction@v8@@U?$CopyablePersistentTraits@VFunction@v8@@@2@@v8@@PEAV34@00@Z 0000000180007570 f i callbacks.obj
 0001:000065e0       ??$_Uninitialized_move@PEAUoffset_commit_event_t@Callbacks@NodeKafka@@PEAU123@V?$allocator@Uoffset_commit_event_t@Callbacks@NodeKafka@@@std@@@std@@YAPEAUoffset_commit_event_t@Callbacks@NodeKafka@@QEAU123@0PEAU123@AEAV?$allocator@Uoffset_commit_event_t@Callbacks@NodeKafka@@@0@@Z 00000001800075e0 f i callbacks.obj
 0001:000065e0       ??$_Uninitialized_move@PEAUrebalance_event_t@Callbacks@NodeKafka@@PEAU123@V?$allocator@Urebalance_event_t@Callbacks@NodeKafka@@@std@@@std@@YAPEAUrebalance_event_t@Callbacks@NodeKafka@@QEAU123@0PEAU123@AEAV?$allocator@Urebalance_event_t@Callbacks@NodeKafka@@@0@@Z 00000001800075e0 f i callbacks.obj
 0001:00006660       ??$_Uninitialized_move@PEAUevent_topic_partition_t@Callbacks@NodeKafka@@PEAU123@V?$allocator@Uevent_topic_partition_t@Callbacks@NodeKafka@@@std@@@std@@YAPEAUevent_topic_partition_t@Callbacks@NodeKafka@@QEAU123@0PEAU123@AEAV?$allocator@Uevent_topic_partition_t@Callbacks@NodeKafka@@@0@@Z 0000000180007660 f i callbacks.obj
 0001:000066f0       ?what@exception@stdext@@UEBAPEBDXZ 00000001800076f0 f i common.obj
 0001:00006710       ?_Raise@exception@stdext@@QEBAXXZ 0000000180007710 f i common.obj
 0001:00006750       ?_Unlock@?$basic_streambuf@DU?$char_traits@D@std@@@std@@UEAAXXZ 0000000180007750 f i libcpmt:cerr.obj
 0001:00006750       ?imbue@?$basic_streambuf@DU?$char_traits@D@std@@@std@@MEAAXAEBVlocale@2@@Z 0000000180007750 f i libcpmt:cerr.obj
 0001:00006750       _guard_check_icall_nop     0000000180007750 f i LIBCMT:guard_support.obj
 0001:00006750       ?_Lock@?$basic_streambuf@DU?$char_traits@D@std@@@std@@UEAAXXZ 0000000180007750 f i libcpmt:cerr.obj
 0001:00006750       ?_Doraise@exception@stdext@@MEBAXXZ 0000000180007750 f i common.obj
 0001:00006760       ??_Gexception@stdext@@UEAAPEAXI@Z 0000000180007760 f i common.obj
 0001:00006760       ??_Eruntime_error@std@@UEAAPEAXI@Z 0000000180007760 f i * CIL library *:* CIL module *
 0001:00006760       ??_Eexception@stdext@@UEAAPEAXI@Z 0000000180007760 f i * CIL library *:* CIL module *
 0001:00006760       ??_Gruntime_error@std@@UEAAPEAXI@Z 0000000180007760 f i common.obj
 0001:00006790       ??0runtime_error@std@@QEAA@PEBD@Z 0000000180007790 f i common.obj
 0001:000067b0       ?_Doraise@failure@ios_base@std@@MEBAXXZ 00000001800077b0 f i common.obj
 0001:000067b0       ?_Doraise@system_error@std@@MEBAXXZ 00000001800077b0 f i common.obj
 0001:000067b0       ?_Doraise@runtime_error@std@@MEBAXXZ 00000001800077b0 f i common.obj
 0001:000067d0       ??0_Locinfo@std@@QEAA@PEBD@Z 00000001800077d0 f i common.obj
 0001:00006850       ??1_Locinfo@std@@QEAA@XZ   0000000180007850 f i common.obj
 0001:000068f0       ??_G_Facet_base@std@@UEAAPEAXI@Z 00000001800078f0 f i common.obj
 0001:000068f0       ??_E_Facet_base@std@@UEAAPEAXI@Z 00000001800078f0 f i * CIL library *:* CIL module *
 0001:00006920       ?_Incref@facet@locale@std@@UEAAXXZ 0000000180007920 f i common.obj
 0001:00006930       ?_Decref@facet@locale@std@@UEAAPEAV_Facet_base@3@XZ 0000000180007930 f i common.obj
 0001:00006940       ?do_tolower@?$ctype@D@std@@MEBADD@Z 0000000180007940 f i common.obj
 0001:00006950       ?do_tolower@?$ctype@D@std@@MEBAPEBDPEADPEBD@Z 0000000180007950 f i common.obj
 0001:000069b0       ?do_toupper@?$ctype@D@std@@MEBADD@Z 00000001800079b0 f i common.obj
 0001:000069c0       ?do_toupper@?$ctype@D@std@@MEBAPEBDPEADPEBD@Z 00000001800079c0 f i common.obj
 0001:00006a20       ?do_narrow@?$ctype@D@std@@MEBADDD@Z 0000000180007a20 f i common.obj
 0001:00006a20       ?do_widen@?$ctype@D@std@@MEBADD@Z 0000000180007a20 f i common.obj
 0001:00006a30       ?do_widen@?$ctype@D@std@@MEBAPEBDPEBD0PEAD@Z 0000000180007a30 f i common.obj
 0001:00006a50       ?do_narrow@?$ctype@D@std@@MEBAPEBDPEBD0DPEAD@Z 0000000180007a50 f i common.obj
 0001:00006a70       ??_E?$ctype@D@std@@MEAAPEAXI@Z 0000000180007a70 f i * CIL library *:* CIL module *
 0001:00006a70       ??_G?$ctype@D@std@@MEAAPEAXI@Z 0000000180007a70 f i common.obj
 0001:00006ae0       ?default_error_condition@error_category@std@@UEBA?AVerror_condition@2@H@Z 0000000180007ae0 f i common.obj
 0001:00006af0       ?equivalent@error_category@std@@UEBA_NHAEBVerror_condition@2@@Z 0000000180007af0 f i common.obj
 0001:00006b30       ?equivalent@error_category@std@@UEBA_NAEBVerror_code@2@H@Z 0000000180007b30 f i common.obj
 0001:00006b50       ?make_error_code@std@@YA?AVerror_code@1@W4io_errc@1@@Z 0000000180007b50 f i common.obj
 0001:00006ba0       ??0_System_error@std@@IEAA@Verror_code@1@AEBV?$basic_string@DU?$char_traits@D@std@@V?$allocator@D@2@@1@@Z 0000000180007ba0 f i common.obj
 0001:00006d80       ??_Gsystem_error@std@@UEAAPEAXI@Z 0000000180007d80 f i common.obj
 0001:00006d80       ??_Esystem_error@std@@UEAAPEAXI@Z 0000000180007d80 f i * CIL library *:* CIL module *
 0001:00006d80       ??_G_System_error@std@@UEAAPEAXI@Z 0000000180007d80 f i common.obj
 0001:00006d80       ??_Efailure@ios_base@std@@UEAAPEAXI@Z 0000000180007d80 f i * CIL library *:* CIL module *
 0001:00006d80       ??_Gfailure@ios_base@std@@UEAAPEAXI@Z 0000000180007d80 f i common.obj
 0001:00006d80       ??_E_System_error@std@@UEAAPEAXI@Z 0000000180007d80 f i * CIL library *:* CIL module *
 0001:00006db0       ?name@_Iostream_error_category@std@@UEBAPEBDXZ 0000000180007db0 f i common.obj
 0001:00006dc0       ?message@_Iostream_error_category@std@@UEBA?AV?$basic_string@DU?$char_traits@D@std@@V?$allocator@D@2@@2@H@Z 0000000180007dc0 f i common.obj
 0001:00006e40       ??_G_Iostream_error_category@std@@UEAAPEAXI@Z 0000000180007e40 f i common.obj
 0001:00006e40       ??_E_Iostream_error_category@std@@UEAAPEAXI@Z 0000000180007e40 f i * CIL library *:* CIL module *
 0001:00006e70       ??0failure@ios_base@std@@QEAA@PEBDAEBVerror_code@2@@Z 0000000180007e70 f i common.obj
 0001:00006f40       ??1failure@ios_base@std@@UEAA@XZ 0000000180007f40 f i common.obj
 0001:00006f50       ??0Utf8String@Nan@@QEAA@V?$Local@VValue@v8@@@v8@@@Z 0000000180007f50 f i common.obj
 0001:00007080       ??$GetParameter@_J@NodeKafka@@YA_JV?$Local@VObject@v8@@@v8@@V?$basic_string@DU?$char_traits@D@std@@V?$allocator@D@2@@std@@_J@Z 0000000180008080 f   common.obj
 0001:000072e0       ??$GetParameter@_N@NodeKafka@@YA_NV?$Local@VObject@v8@@@v8@@V?$basic_string@DU?$char_traits@D@std@@V?$allocator@D@2@@std@@_N@Z 00000001800082e0 f   common.obj
 0001:00007530       ??$GetParameter@H@NodeKafka@@YAHV?$Local@VObject@v8@@@v8@@V?$basic_string@DU?$char_traits@D@std@@V?$allocator@D@2@@std@@H@Z 0000000180008530 f   common.obj
 0001:000075d0       ??$GetParameter@V?$basic_string@DU?$char_traits@D@std@@V?$allocator@D@2@@std@@@NodeKafka@@YA?AV?$basic_string@DU?$char_traits@D@std@@V?$allocator@D@2@@std@@V?$Local@VObject@v8@@@v8@@V12@1@Z 00000001800085d0 f   common.obj
 0001:00007a00       ?ToStringVector@Topic@Conversion@NodeKafka@@YA?AV?$vector@V?$basic_string@DU?$char_traits@D@std@@V?$allocator@D@2@@std@@V?$allocator@V?$basic_string@DU?$char_traits@D@std@@V?$allocator@D@2@@std@@@2@@std@@V?$Local@VArray@v8@@@v8@@@Z 0000000180008a00 f   common.obj
 0001:00007d80       ?ToV8Array@Topic@Conversion@NodeKafka@@YA?AV?$Local@VArray@v8@@@v8@@V?$vector@V?$basic_string@DU?$char_traits@D@std@@V?$allocator@D@2@@std@@V?$allocator@V?$basic_string@DU?$char_traits@D@std@@V?$allocator@D@2@@std@@@2@@std@@@Z 0000000180008d80 f   common.obj
 0001:00007fb0       ?ToV8Array@TopicPartition@Conversion@NodeKafka@@YA?AV?$Local@VArray@v8@@@v8@@AEAV?$vector@PEAVTopicPartition@RdKafka@@V?$allocator@PEAVTopicPartition@RdKafka@@@std@@@std@@@Z 0000000180008fb0 f   common.obj
 0001:00008430       ?FromV8Array@TopicPartition@Conversion@NodeKafka@@YA?AV?$vector@PEAVTopicPartition@RdKafka@@V?$allocator@PEAVTopicPartition@RdKafka@@@std@@@std@@AEBV?$Local@VArray@v8@@@v8@@@Z 0000000180009430 f   common.obj
 0001:000085b0       ?FromV8Object@TopicPartition@Conversion@NodeKafka@@YAPEAV1RdKafka@@V?$Local@VObject@v8@@@v8@@@Z 00000001800095b0 f   common.obj
 0001:00008740       ?ToV8Object@Metadata@Conversion@NodeKafka@@YA?AV?$Local@VObject@v8@@@v8@@PEAV1RdKafka@@@Z 0000000180009740 f   common.obj
 0001:00009610       ?ToV8Object@Message@Conversion@NodeKafka@@YA?AV?$Local@VObject@v8@@@v8@@PEAV1RdKafka@@_N1@Z 000000018000a610 f   common.obj
 0001:00009f50       ?FromV8TopicObject@Admin@Conversion@NodeKafka@@YAPEAUrd_kafka_NewTopic_s@@V?$Local@VObject@v8@@@v8@@AEAV?$basic_string@DU?$char_traits@D@std@@V?$allocator@D@2@@std@@@Z 000000018000af50 f   common.obj
 0001:0000a6e0       ?FromV8String@Util@NodeKafka@@YA?AV?$basic_string@DU?$char_traits@D@std@@V?$allocator@D@2@@std@@V?$Local@VString@v8@@@v8@@@Z 000000018000b6e0 f   common.obj
 0001:0000a780       ?_Tidy@?$vector@V?$basic_string@DU?$char_traits@D@std@@V?$allocator@D@2@@std@@V?$allocator@V?$basic_string@DU?$char_traits@D@std@@V?$allocator@D@2@@std@@@2@@std@@AEAAXXZ 000000018000b780 f i common.obj
 0001:0000a7f0       ?append@?$basic_string@DU?$char_traits@D@std@@V?$allocator@D@2@@std@@QEAAAEAV12@QEBD_K@Z 000000018000b7f0 f i common.obj
 0001:0000a870       ??$use_facet@V?$ctype@D@std@@@std@@YAAEBV?$ctype@D@0@AEBVlocale@0@@Z 000000018000b870 f i common.obj
 0001:0000aa70       ??$?6U?$char_traits@D@std@@@std@@YAAEAV?$basic_ostream@DU?$char_traits@D@std@@@0@AEAV10@PEBD@Z 000000018000ba70 f i common.obj
 0001:0000ad20       ??$endl@DU?$char_traits@D@std@@@std@@YAAEAV?$basic_ostream@DU?$char_traits@D@std@@@0@AEAV10@@Z 000000018000bd20 f i common.obj
 0001:0000adc0       ??$_Emplace_reallocate@AEBV?$basic_string@DU?$char_traits@D@std@@V?$allocator@D@2@@std@@@?$vector@V?$basic_string@DU?$char_traits@D@std@@V?$allocator@D@2@@std@@V?$allocator@V?$basic_string@DU?$char_traits@D@std@@V?$allocator@D@2@@std@@@2@@std@@QEAAPEAV?$basic_string@DU?$char_traits@D@std@@V?$allocator@D@2@@1@QEAV21@AEBV21@@Z 000000018000bdc0 f i common.obj
 0001:0000b040       ??$_Emplace_reallocate@AEBQEAVTopicPartition@RdKafka@@@?$vector@PEAVTopicPartition@RdKafka@@V?$allocator@PEAVTopicPartition@RdKafka@@@std@@@std@@QEAAPEAPEAVTopicPartition@RdKafka@@QEAPEAV23@AEBQEAV23@@Z 000000018000c040 f i kafka-consumer.obj
 0001:0000b040       ??$_Emplace_reallocate@PEAVTopicPartition@RdKafka@@@?$vector@PEAVTopicPartition@RdKafka@@V?$allocator@PEAVTopicPartition@RdKafka@@@std@@@std@@QEAAPEAPEAVTopicPartition@RdKafka@@QEAPEAV23@$$QEAPEAV23@@Z 000000018000c040 f i common.obj
 0001:0000b1e0       ??$_Reallocate_grow_by@V<lambda_65e615be2a453ca0576c979606f46740>@@PEBD_K@?$basic_string@DU?$char_traits@D@std@@V?$allocator@D@2@@std@@QEAAAEAV01@_KV<lambda_65e615be2a453ca0576c979606f46740>@@PEBD_K@Z 000000018000c1e0 f i common.obj
 0001:0000b360       ??$_Destroy_range@V?$allocator@V?$basic_string@DU?$char_traits@D@std@@V?$allocator@D@2@@std@@@std@@@std@@YAXPEAV?$basic_string@DU?$char_traits@D@std@@V?$allocator@D@2@@0@0AEAV?$allocator@V?$basic_string@DU?$char_traits@D@std@@V?$allocator@D@2@@std@@@0@@Z 000000018000c360 f i common.obj
 0001:0000b3f0       ??$_Destroy_range@V?$allocator@VHeader@Headers@RdKafka@@@std@@@std@@YAXPEAVHeader@Headers@RdKafka@@0AEAV?$allocator@VHeader@Headers@RdKafka@@@0@@Z 000000018000c3f0 f i common.obj
 0001:0000b490       ??1?$unique_ptr@V_Facet_base@std@@U?$default_delete@V_Facet_base@std@@@2@@std@@QEAA@XZ 000000018000c490 f i common.obj
 0001:0000b4b0       ??0sentry@?$basic_ostream@DU?$char_traits@D@std@@@std@@QEAA@AEAV12@@Z 000000018000c4b0 f i common.obj
 0001:0000b520       ?flush@?$basic_ostream@DU?$char_traits@D@std@@@std@@QEAAAEAV12@XZ 000000018000c520 f i common.obj
 0001:0000b5f0       ?put@?$basic_ostream@DU?$char_traits@D@std@@@std@@QEAAAEAV12@D@Z 000000018000c5f0 f i common.obj
 0001:0000b720       ?widen@?$basic_ios@DU?$char_traits@D@std@@@std@@QEBADD@Z 000000018000c720 f i common.obj
 0001:0000b790       ?setstate@?$basic_ios@DU?$char_traits@D@std@@@std@@QEAAXH_N@Z 000000018000c790 f i common.obj
 0001:0000b810       ??$_Immortalize_impl@V_Iostream_error_category@std@@@std@@YAHPEAX0PEAPEAX@Z 000000018000c810 f i common.obj
 0001:0000b830       ??_G?$basic_string@DU?$char_traits@D@std@@V?$allocator@D@2@@std@@QEAAPEAXI@Z 000000018000c830 f i common.obj
 0001:0000b8b0       ?create@Conf@NodeKafka@@SAPEAV12@W4ConfType@1RdKafka@@V?$Local@VObject@v8@@@v8@@AEAV?$basic_string@DU?$char_traits@D@std@@V?$allocator@D@2@@std@@@Z 000000018000c8b0 f   config.obj
 0001:0000c160       ?listen@Conf@NodeKafka@@QEAAXXZ 000000018000d160 f   config.obj
 0001:0000c210       ?ThrowError@Nan@@YAXPEBD@Z 000000018000d210 f i connection.obj
 0001:0000c2a0       ?AsyncExecute@Nan@@YAXPEAUuv_work_s@@@Z 000000018000d2a0 f i connection.obj
 0001:0000c2b0       ?AsyncExecuteComplete@Nan@@YAXPEAUuv_work_s@@@Z 000000018000d2b0 f i connection.obj
 0001:0000c2e0       ?AsyncQueueWorker@Nan@@YAXPEAVAsyncWorker@1@@Z 000000018000d2e0 f i connection.obj
 0001:0000c320       ?Ref@ObjectWrap@Nan@@MEAAXXZ 000000018000d320 f i connection.obj
 0001:0000c360       ?Unref@ObjectWrap@Nan@@MEAAXXZ 000000018000d360 f i connection.obj
 0001:0000c410       ?WeakCallback@ObjectWrap@Nan@@CAXAEBV?$WeakCallbackInfo@VObjectWrap@Nan@@@v8@@@Z 000000018000d410 f i connection.obj
 0001:0000c470       ??_EObjectWrap@Nan@@UEAAPEAXI@Z 000000018000d470 f i * CIL library *:* CIL module *
 0001:0000c470       ??_GObjectWrap@Nan@@UEAAPEAXI@Z 000000018000d470 f i connection.obj
 0001:0000c4d0       ??0Connection@NodeKafka@@IEAA@PEAVConf@1@0@Z 000000018000d4d0 f   connection.obj
 0001:0000c6a0       ??_EConnection@NodeKafka@@MEAAPEAXI@Z 000000018000d6a0 f i * CIL library *:* CIL module *
 0001:0000c6a0       ??_GConnection@NodeKafka@@MEAAPEAXI@Z 000000018000d6a0 f i connection.obj
 0001:0000c6e0       ??1Connection@NodeKafka@@MEAA@XZ 000000018000d6e0 f   connection.obj
 0001:0000c7f0       ?CreateTopic@Connection@NodeKafka@@QEAA?AVBaton@2@V?$basic_string@DU?$char_traits@D@std@@V?$allocator@D@2@@std@@PEAVConf@RdKafka@@@Z 000000018000d7f0 f   connection.obj
 0001:0000cb30       ?GetMetadata@Connection@NodeKafka@@QEAA?AVBaton@2@_NV?$basic_string@DU?$char_traits@D@std@@V?$allocator@D@2@@std@@H@Z 000000018000db30 f   connection.obj
 0001:0000cd90       ?NodeGetMetadata@Connection@NodeKafka@@KAXAEBV?$FunctionCallbackInfo@VValue@v8@@@Nan@@@Z 000000018000dd90 f   connection.obj
 0001:0000d130       ?NodeOffsetsForTimes@Connection@NodeKafka@@KAXAEBV?$FunctionCallbackInfo@VValue@v8@@@Nan@@@Z 000000018000e130 f   connection.obj
 0001:0000d430       ?NodeQueryWatermarkOffsets@Connection@NodeKafka@@KAXAEBV?$FunctionCallbackInfo@VValue@v8@@@Nan@@@Z 000000018000e430 f   connection.obj
 0001:0000d8f0       ?NodeOnEvent@Connection@NodeKafka@@KAXAEBV?$FunctionCallbackInfo@VValue@v8@@@Nan@@@Z 000000018000e8f0 f   connection.obj
 0001:0000d9c0       ??$Unwrap@VConnection@NodeKafka@@@ObjectWrap@Nan@@SAPEAVConnection@NodeKafka@@V?$Local@VObject@v8@@@v8@@@Z 000000018000e9c0 f i connection.obj
 0001:0000d9c0       ??$Unwrap@VAdminClient@NodeKafka@@@ObjectWrap@Nan@@SAPEAVAdminClient@NodeKafka@@V?$Local@VObject@v8@@@v8@@@Z 000000018000e9c0 f i admin.obj
 0001:0000d9c0       ??$Unwrap@VProducer@NodeKafka@@@ObjectWrap@Nan@@SAPEAVProducer@NodeKafka@@V?$Local@VObject@v8@@@v8@@@Z 000000018000e9c0 f i producer.obj
 0001:0000d9c0       ??$Unwrap@VTopic@NodeKafka@@@ObjectWrap@Nan@@SAPEAVTopic@NodeKafka@@V?$Local@VObject@v8@@@v8@@@Z 000000018000e9c0 f i producer.obj
 0001:0000d9c0       ??$Unwrap@VKafkaConsumer@NodeKafka@@@ObjectWrap@Nan@@SAPEAVKafkaConsumer@NodeKafka@@V?$Local@VObject@v8@@@v8@@@Z 000000018000e9c0 f i kafka-consumer.obj
 0001:0000da50       ?RdKafkaError@NodeKafka@@YA?AV?$Local@VObject@v8@@@v8@@AEBW4ErrorCode@RdKafka@@V?$basic_string@DU?$char_traits@D@std@@V?$allocator@D@2@@std@@@Z 000000018000ea50 f   errors.obj
 0001:0000dc80       __local_stdio_printf_options 000000018000ec80 f i kafka-consumer.obj
 0001:0000dc90       ?SetPrototypeMethod@Nan@@YAXV?$Local@VFunctionTemplate@v8@@@v8@@PEBDP6AXAEBV?$FunctionCallbackInfo@VValue@v8@@@1@@ZV?$Local@VValue@v8@@@3@@Z 000000018000ec90 f i kafka-consumer.obj
 0001:0000dd80       ?Wrap@ObjectWrap@Nan@@IEAAXV?$Local@VObject@v8@@@v8@@@Z 000000018000ed80 f i kafka-consumer.obj
 0001:0000de50       ??_GKafkaConsumer@NodeKafka@@MEAAPEAXI@Z 000000018000ee50 f i kafka-consumer.obj
 0001:0000de50       ??_EKafkaConsumer@NodeKafka@@MEAAPEAXI@Z 000000018000ee50 f i * CIL library *:* CIL module *
 0001:0000df60       ?Connect@KafkaConsumer@NodeKafka@@QEAA?AVBaton@2@XZ 000000018000ef60 f   kafka-consumer.obj
 0001:0000e190       ?ActivateDispatchers@KafkaConsumer@NodeKafka@@UEAAXXZ 000000018000f190 f   kafka-consumer.obj
 0001:0000e190       ?ActivateDispatchers@AdminClient@NodeKafka@@UEAAXXZ 000000018000f190 f   admin.obj
 0001:0000e1f0       ?Disconnect@KafkaConsumer@NodeKafka@@QEAA?AVBaton@2@XZ 000000018000f1f0 f   kafka-consumer.obj
 0001:0000e2d0       ?DeactivateDispatchers@KafkaConsumer@NodeKafka@@UEAAXXZ 000000018000f2d0 f   kafka-consumer.obj
 0001:0000e2d0       ?DeactivateDispatchers@AdminClient@NodeKafka@@UEAAXXZ 000000018000f2d0 f   admin.obj
 0001:0000e360       ?Assign@KafkaConsumer@NodeKafka@@QEAA?AVBaton@2@V?$vector@PEAVTopicPartition@RdKafka@@V?$allocator@PEAVTopicPartition@RdKafka@@@std@@@std@@@Z 000000018000f360 f   kafka-consumer.obj
 0001:0000e550       ?Commit@KafkaConsumer@NodeKafka@@QEAA?AVBaton@2@PEAVTopicPartition@RdKafka@@@Z 000000018000f550 f   kafka-consumer.obj
 0001:0000e730       ?CommitSync@KafkaConsumer@NodeKafka@@QEAA?AVBaton@2@V?$vector@PEAVTopicPartition@RdKafka@@V?$allocator@PEAVTopicPartition@RdKafka@@@std@@@std@@@Z 000000018000f730 f   kafka-consumer.obj
 0001:0000e8b0       ?Consume@KafkaConsumer@NodeKafka@@QEAA?AVBaton@2@H@Z 000000018000f8b0 f   kafka-consumer.obj
 0001:0000eb20       ?RefreshAssignments@KafkaConsumer@NodeKafka@@QEAA?AVBaton@2@XZ 000000018000fb20 f   kafka-consumer.obj
 0001:0000ece0       ?Init@KafkaConsumer@NodeKafka@@SAXV?$Local@VObject@v8@@@v8@@@Z 000000018000fce0 f   kafka-consumer.obj
 0001:0000f110       ?New@KafkaConsumer@NodeKafka@@KAXAEBV?$FunctionCallbackInfo@VValue@v8@@@Nan@@@Z 0000000180010110 f   kafka-consumer.obj
 0001:0000f520       ?NodeCommitted@KafkaConsumer@NodeKafka@@CAXAEBV?$FunctionCallbackInfo@VValue@v8@@@Nan@@@Z 0000000180010520 f   kafka-consumer.obj
 0001:0000f820       ?NodeSubscription@KafkaConsumer@NodeKafka@@CAXAEBV?$FunctionCallbackInfo@VValue@v8@@@Nan@@@Z 0000000180010820 f   kafka-consumer.obj
 0001:0000fb10       ?NodePosition@KafkaConsumer@NodeKafka@@CAXAEBV?$FunctionCallbackInfo@VValue@v8@@@Nan@@@Z 0000000180010b10 f   kafka-consumer.obj
 0001:0000fe60       ?NodeAssignments@KafkaConsumer@NodeKafka@@CAXAEBV?$FunctionCallbackInfo@VValue@v8@@@Nan@@@Z 0000000180010e60 f   kafka-consumer.obj
 0001:0000ffe0       ?NodeAssign@KafkaConsumer@NodeKafka@@CAXAEBV?$FunctionCallbackInfo@VValue@v8@@@Nan@@@Z 0000000180010fe0 f   kafka-consumer.obj
 0001:000104a0       ?NodeUnassign@KafkaConsumer@NodeKafka@@CAXAEBV?$FunctionCallbackInfo@VValue@v8@@@Nan@@@Z 00000001800114a0 f   kafka-consumer.obj
 0001:00010610       ?NodeUnsubscribe@KafkaConsumer@NodeKafka@@CAXAEBV?$FunctionCallbackInfo@VValue@v8@@@Nan@@@Z 0000000180011610 f   kafka-consumer.obj
 0001:000106e0       ?NodeCommit@KafkaConsumer@NodeKafka@@CAXAEBV?$FunctionCallbackInfo@VValue@v8@@@Nan@@@Z 00000001800116e0 f   kafka-consumer.obj
 0001:00010b20       ?NodeCommitSync@KafkaConsumer@NodeKafka@@CAXAEBV?$FunctionCallbackInfo@VValue@v8@@@Nan@@@Z 0000000180011b20 f   kafka-consumer.obj
 0001:00010f60       ?NodeSubscribe@KafkaConsumer@NodeKafka@@CAXAEBV?$FunctionCallbackInfo@VValue@v8@@@Nan@@@Z 0000000180011f60 f   kafka-consumer.obj
 0001:00011110       ?NodeSeek@KafkaConsumer@NodeKafka@@CAXAEBV?$FunctionCallbackInfo@VValue@v8@@@Nan@@@Z 0000000180012110 f   kafka-consumer.obj
 0001:000113f0       ?NodeOffsetsStore@KafkaConsumer@NodeKafka@@CAXAEBV?$FunctionCallbackInfo@VValue@v8@@@Nan@@@Z 00000001800123f0 f   kafka-consumer.obj
 0001:000115d0       ?NodePause@KafkaConsumer@NodeKafka@@CAXAEBV?$FunctionCallbackInfo@VValue@v8@@@Nan@@@Z 00000001800125d0 f   kafka-consumer.obj
 0001:000117b0       ?NodeResume@KafkaConsumer@NodeKafka@@CAXAEBV?$FunctionCallbackInfo@VValue@v8@@@Nan@@@Z 00000001800127b0 f   kafka-consumer.obj
 0001:000119d0       ?NodeConsumeLoop@KafkaConsumer@NodeKafka@@CAXAEBV?$FunctionCallbackInfo@VValue@v8@@@Nan@@@Z 00000001800129d0 f   kafka-consumer.obj
 0001:00011cc0       ?NodeConsume@KafkaConsumer@NodeKafka@@CAXAEBV?$FunctionCallbackInfo@VValue@v8@@@Nan@@@Z 0000000180012cc0 f   kafka-consumer.obj
 0001:00012060       ?NodeConnect@KafkaConsumer@NodeKafka@@CAXAEBV?$FunctionCallbackInfo@VValue@v8@@@Nan@@@Z 0000000180013060 f   kafka-consumer.obj
 0001:000121e0       ?NodeDisconnect@KafkaConsumer@NodeKafka@@CAXAEBV?$FunctionCallbackInfo@VValue@v8@@@Nan@@@Z 00000001800131e0 f   kafka-consumer.obj
 0001:00012360       ?NodeGetWatermarkOffsets@KafkaConsumer@NodeKafka@@CAXAEBV?$FunctionCallbackInfo@VValue@v8@@@Nan@@@Z 0000000180013360 f   kafka-consumer.obj
 0001:000128a0       ??0?$vector@V?$basic_string@DU?$char_traits@D@std@@V?$allocator@D@2@@std@@V?$allocator@V?$basic_string@DU?$char_traits@D@std@@V?$allocator@D@2@@std@@@2@@std@@QEAA@AEBV01@@Z 00000001800138a0 f i kafka-consumer.obj
 0001:000129c0       ??0Producer@NodeKafka@@IEAA@PEAVConf@1@0@Z 00000001800139c0 f   producer.obj
 0001:00012c10       ??_GProducer@NodeKafka@@MEAAPEAXI@Z 0000000180013c10 f i producer.obj
 0001:00012c10       ??_EProducer@NodeKafka@@MEAAPEAXI@Z 0000000180013c10 f i * CIL library *:* CIL module *
 0001:00012cc0       ?Init@Producer@NodeKafka@@SAXV?$Local@VObject@v8@@@v8@@@Z 0000000180013cc0 f   producer.obj
 0001:00012fa0       ?New@Producer@NodeKafka@@KAXAEBV?$FunctionCallbackInfo@VValue@v8@@@Nan@@@Z 0000000180013fa0 f   producer.obj
 0001:000132c0       ?Connect@Producer@NodeKafka@@QEAA?AVBaton@2@XZ 00000001800142c0 f   producer.obj
 0001:000134e0       ?ActivateDispatchers@Producer@NodeKafka@@UEAAXXZ 00000001800144e0 f   producer.obj
 0001:00013580       ?DeactivateDispatchers@Producer@NodeKafka@@UEAAXXZ 0000000180014580 f   producer.obj
 0001:000135d0       ?Disconnect@Producer@NodeKafka@@QEAAXXZ 00000001800145d0 f   producer.obj
 0001:00013640       ?Produce@Producer@NodeKafka@@QEAA?AVBaton@2@PEAX_KV?$basic_string@DU?$char_traits@D@std@@V?$allocator@D@2@@std@@HPEBX1_J0PEAVHeaders@RdKafka@@@Z 0000000180014640 f   producer.obj
 0001:00013850       ?NodeProduce@Producer@NodeKafka@@CAXAEBV?$FunctionCallbackInfo@VValue@v8@@@Nan@@@Z 0000000180014850 f   producer.obj
 0001:00014b60       ?NodeOnDelivery@Producer@NodeKafka@@CAXAEBV?$FunctionCallbackInfo@VValue@v8@@@Nan@@@Z 0000000180015b60 f   producer.obj
 0001:00014da0       ?NodeSetPartitioner@Producer@NodeKafka@@CAXAEBV?$FunctionCallbackInfo@VValue@v8@@@Nan@@@Z 0000000180015da0 f   producer.obj
 0001:00015030       ?NodeConnect@Producer@NodeKafka@@CAXAEBV?$FunctionCallbackInfo@VValue@v8@@@Nan@@@Z 0000000180016030 f   producer.obj
 0001:000151b0       ?NodePoll@Producer@NodeKafka@@CAXAEBV?$FunctionCallbackInfo@VValue@v8@@@Nan@@@Z 00000001800161b0 f   producer.obj
 0001:00015260       ?NodeFlush@Producer@NodeKafka@@CAXAEBV?$FunctionCallbackInfo@VValue@v8@@@Nan@@@Z 0000000180016260 f   producer.obj
 0001:000154a0       ?NodeDisconnect@Producer@NodeKafka@@CAXAEBV?$FunctionCallbackInfo@VValue@v8@@@Nan@@@Z 00000001800164a0 f   producer.obj
 0001:00015620       ??$_Emplace_reallocate@VHeader@Headers@RdKafka@@@?$vector@VHeader@Headers@RdKafka@@V?$allocator@VHeader@Headers@RdKafka@@@std@@@std@@QEAAPEAVHeader@Headers@RdKafka@@QEAV234@$$QEAV234@@Z 0000000180016620 f i producer.obj
 0001:000159c0       ??_ETopic@NodeKafka@@EEAAPEAXI@Z 00000001800169c0 f i * CIL library *:* CIL module *
 0001:000159c0       ??_GTopic@NodeKafka@@EEAAPEAXI@Z 00000001800169c0 f i topic.obj
 0001:00015ae0       ?Init@Topic@NodeKafka@@SAXV?$Local@VObject@v8@@@v8@@@Z 0000000180016ae0 f   topic.obj
 0001:00015ce0       ?New@Topic@NodeKafka@@KAXAEBV?$FunctionCallbackInfo@VValue@v8@@@Nan@@@Z 0000000180016ce0 f   topic.obj
 0001:000161c0       ?NodeGetName@Topic@NodeKafka@@CAXAEBV?$FunctionCallbackInfo@VValue@v8@@@Nan@@@Z 00000001800171c0 f   topic.obj
 0001:000162c0       ??1AsyncWorker@Nan@@UEAA@XZ 00000001800172c0 f i workers.obj
 0001:00016390       ?WorkComplete@AsyncWorker@Nan@@UEAAXXZ 0000000180017390 f i workers.obj
 0001:00016420       ?Destroy@AsyncWorker@Nan@@UEAAXXZ 0000000180017420 f i workers.obj
 0001:00016440       ?HandleOKCallback@AsyncWorker@Nan@@MEAAXXZ 0000000180017440 f i workers.obj
 0001:000164e0       ?HandleErrorCallback@AsyncWorker@Nan@@MEAAXXZ 00000001800174e0 f i workers.obj
 0001:000165e0       ??_GAsyncWorker@Nan@@UEAAPEAXI@Z 00000001800175e0 f i workers.obj
 0001:000165e0       ??_EAsyncWorker@Nan@@UEAAPEAXI@Z 00000001800175e0 f i * CIL library *:* CIL module *
 0001:00016620       ??0ErrorAwareWorker@Workers@NodeKafka@@QEAA@PEAVCallback@Nan@@@Z 0000000180017620 f i workers.obj
 0001:00016730       ??1ErrorAwareWorker@Workers@NodeKafka@@UEAA@XZ 0000000180017730 f i workers.obj
 0001:000167b0       ?HandleErrorCallback@ErrorAwareWorker@Workers@NodeKafka@@UEAAXXZ 00000001800177b0 f i workers.obj
 0001:000167b0       ?HandleErrorCallback@KafkaConsumerConnect@Workers@NodeKafka@@UEAAXXZ 00000001800177b0 f i workers.obj
 0001:000167b0       ?HandleErrorCallback@KafkaConsumerConsumeLoop@Workers@NodeKafka@@UEAAXXZ 00000001800177b0 f i workers.obj
 0001:000168a0       ?SetErrorBaton@ErrorAwareWorker@Workers@NodeKafka@@IEAAXAEBVBaton@3@@Z 00000001800178a0 f i workers.obj
 0001:000169d0       ??_GErrorAwareWorker@Workers@NodeKafka@@UEAAPEAXI@Z 00000001800179d0 f i workers.obj
 0001:000169d0       ??_EErrorAwareWorker@Workers@NodeKafka@@UEAAPEAXI@Z 00000001800179d0 f i * CIL library *:* CIL module *
 0001:00016a10       ??1MessageWorker@Workers@NodeKafka@@UEAA@XZ 0000000180017a10 f i workers.obj
 0001:00016aa0       ?Destroy@MessageWorker@Workers@NodeKafka@@UEAAXXZ 0000000180017aa0 f i workers.obj
 0001:00016ac0       ?Execute@MessageWorker@Workers@NodeKafka@@EEAAXXZ 0000000180017ac0 f i workers.obj
 0001:00016ae0       ?m_async_message@MessageWorker@Workers@NodeKafka@@CAXPEAUuv_async_s@@@Z 0000000180017ae0 f i workers.obj
 0001:00016bf0       ?AsyncClose_@MessageWorker@Workers@NodeKafka@@CAXPEAUuv_handle_s@@@Z 0000000180017bf0 f i workers.obj
 0001:00016c30       ??_GMessageWorker@Workers@NodeKafka@@UEAAPEAXI@Z 0000000180017c30 f i workers.obj
 0001:00016c30       ??_EMessageWorker@Workers@NodeKafka@@UEAAPEAXI@Z 0000000180017c30 f i * CIL library *:* CIL module *
 0001:00016c70       ??_GOffsetsForTimes@Handle@Workers@NodeKafka@@UEAAPEAXI@Z 0000000180017c70 f i workers.obj
 0001:00016c70       ??_EOffsetsForTimes@Handle@Workers@NodeKafka@@UEAAPEAXI@Z 0000000180017c70 f i * CIL library *:* CIL module *
 0001:00016d20       ?Execute@OffsetsForTimes@Handle@Workers@NodeKafka@@UEAAXXZ 0000000180017d20 f   workers.obj
 0001:00016e60       ?HandleOKCallback@OffsetsForTimes@Handle@Workers@NodeKafka@@UEAAXXZ 0000000180017e60 f   workers.obj
 0001:00016e60       ?HandleOKCallback@KafkaConsumerCommitted@Workers@NodeKafka@@UEAAXXZ 0000000180017e60 f   workers.obj
 0001:00016ee0       ?HandleErrorCallback@ConnectionQueryWatermarkOffsets@Workers@NodeKafka@@UEAAXXZ 0000000180017ee0 f   workers.obj
 0001:00016ee0       ?HandleErrorCallback@AdminClientCreatePartitions@Workers@NodeKafka@@UEAAXXZ 0000000180017ee0 f   workers.obj
 0001:00016ee0       ?HandleErrorCallback@ProducerConnect@Workers@NodeKafka@@UEAAXXZ 0000000180017ee0 f   workers.obj
 0001:00016ee0       ?HandleErrorCallback@OffsetsForTimes@Handle@Workers@NodeKafka@@UEAAXXZ 0000000180017ee0 f   workers.obj
 0001:00016ee0       ?HandleErrorCallback@AdminClientCreateTopic@Workers@NodeKafka@@UEAAXXZ 0000000180017ee0 f   workers.obj
 0001:00016ee0       ?HandleErrorCallback@KafkaConsumerSeek@Workers@NodeKafka@@UEAAXXZ 0000000180017ee0 f   workers.obj
 0001:00016ee0       ?HandleErrorCallback@AdminClientDeleteTopic@Workers@NodeKafka@@UEAAXXZ 0000000180017ee0 f   workers.obj
 0001:00016ee0       ?HandleErrorCallback@ConnectionMetadata@Workers@NodeKafka@@UEAAXXZ 0000000180017ee0 f   workers.obj
 0001:00016ee0       ?HandleErrorCallback@KafkaConsumerConsume@Workers@NodeKafka@@UEAAXXZ 0000000180017ee0 f   workers.obj
 0001:00016ee0       ?HandleErrorCallback@KafkaConsumerCommitted@Workers@NodeKafka@@UEAAXXZ 0000000180017ee0 f   workers.obj
 0001:00016fa0       ??_EConnectionMetadata@Workers@NodeKafka@@UEAAPEAXI@Z 0000000180017fa0 f i * CIL library *:* CIL module *
 0001:00016fa0       ??_GConnectionMetadata@Workers@NodeKafka@@UEAAPEAXI@Z 0000000180017fa0 f i workers.obj
 0001:00017050       ?Execute@ConnectionMetadata@Workers@NodeKafka@@UEAAXXZ 0000000180018050 f   workers.obj
 0001:00017120       ?HandleOKCallback@ConnectionMetadata@Workers@NodeKafka@@UEAAXXZ 0000000180018120 f   workers.obj
 0001:000171b0       ??_GConnectionQueryWatermarkOffsets@Workers@NodeKafka@@UEAAPEAXI@Z 00000001800181b0 f i workers.obj
 0001:000171b0       ??_EConnectionQueryWatermarkOffsets@Workers@NodeKafka@@UEAAPEAXI@Z 00000001800181b0 f i * CIL library *:* CIL module *
 0001:00017260       ?Execute@ConnectionQueryWatermarkOffsets@Workers@NodeKafka@@UEAAXXZ 0000000180018260 f   workers.obj
 0001:00017420       ?HandleOKCallback@ConnectionQueryWatermarkOffsets@Workers@NodeKafka@@UEAAXXZ 0000000180018420 f   workers.obj
 0001:00017610       ??_EProducerConnect@Workers@NodeKafka@@UEAAPEAXI@Z 0000000180018610 f i * CIL library *:* CIL module *
 0001:00017610       ??_GProducerConnect@Workers@NodeKafka@@UEAAPEAXI@Z 0000000180018610 f i workers.obj
 0001:00017650       ?Execute@ProducerConnect@Workers@NodeKafka@@UEAAXXZ 0000000180018650 f   workers.obj
 0001:000176e0       ?HandleOKCallback@KafkaConsumerConnect@Workers@NodeKafka@@UEAAXXZ 00000001800186e0 f   workers.obj
 0001:000176e0       ?HandleOKCallback@ProducerConnect@Workers@NodeKafka@@UEAAXXZ 00000001800186e0 f   workers.obj
 0001:00017990       ??_EProducerDisconnect@Workers@NodeKafka@@UEAAPEAXI@Z 0000000180018990 f i * CIL library *:* CIL module *
 0001:00017990       ??_GProducerDisconnect@Workers@NodeKafka@@UEAAPEAXI@Z 0000000180018990 f i workers.obj
 0001:000179d0       ?Execute@ProducerDisconnect@Workers@NodeKafka@@UEAAXXZ 00000001800189d0 f   workers.obj
 0001:000179e0       ?HandleOKCallback@ProducerDisconnect@Workers@NodeKafka@@UEAAXXZ 00000001800189e0 f   workers.obj
 0001:000179e0       ?HandleOKCallback@KafkaConsumerDisconnect@Workers@NodeKafka@@UEAAXXZ 00000001800189e0 f   workers.obj
 0001:00017a60       ?HandleErrorCallback@ProducerDisconnect@Workers@NodeKafka@@UEAAXXZ 0000000180018a60 f   workers.obj
 0001:00017a80       ??_EProducerFlush@Workers@NodeKafka@@UEAAPEAXI@Z 0000000180018a80 f i * CIL library *:* CIL module *
 0001:00017a80       ??_GProducerFlush@Workers@NodeKafka@@UEAAPEAXI@Z 0000000180018a80 f i workers.obj
 0001:00017ac0       ?Execute@ProducerFlush@Workers@NodeKafka@@UEAAXXZ 0000000180018ac0 f   workers.obj
 0001:00017c50       ?HandleOKCallback@ProducerFlush@Workers@NodeKafka@@UEAAXXZ 0000000180018c50 f   workers.obj
 0001:00017cb0       ??_EKafkaConsumerConnect@Workers@NodeKafka@@UEAAPEAXI@Z 0000000180018cb0 f i * CIL library *:* CIL module *
 0001:00017cb0       ??_GKafkaConsumerConnect@Workers@NodeKafka@@UEAAPEAXI@Z 0000000180018cb0 f i workers.obj
 0001:00017cf0       ?Execute@KafkaConsumerConnect@Workers@NodeKafka@@UEAAXXZ 0000000180018cf0 f   workers.obj
 0001:00017d80       ??_EKafkaConsumerDisconnect@Workers@NodeKafka@@UEAAPEAXI@Z 0000000180018d80 f i * CIL library *:* CIL module *
 0001:00017d80       ??_GKafkaConsumerDisconnect@Workers@NodeKafka@@UEAAPEAXI@Z 0000000180018d80 f i workers.obj
 0001:00017dc0       ?Execute@KafkaConsumerDisconnect@Workers@NodeKafka@@UEAAXXZ 0000000180018dc0 f   workers.obj
 0001:00017e50       ?HandleErrorCallback@KafkaConsumerDisconnect@Workers@NodeKafka@@UEAAXXZ 0000000180018e50 f   workers.obj
 0001:00017f20       ??_EKafkaConsumerConsumeLoop@Workers@NodeKafka@@UEAAPEAXI@Z 0000000180018f20 f i * CIL library *:* CIL module *
 0001:00017f20       ??_GKafkaConsumerConsumeLoop@Workers@NodeKafka@@UEAAPEAXI@Z 0000000180018f20 f i workers.obj
 0001:00017f60       ?Execute@KafkaConsumerConsumeLoop@Workers@NodeKafka@@UEAAXAEBVExecutionMessageBus@MessageWorker@23@@Z 0000000180018f60 f   workers.obj
 0001:000180f0       ?HandleMessageCallback@KafkaConsumerConsumeLoop@Workers@NodeKafka@@UEAAXPEAVMessage@RdKafka@@@Z 00000001800190f0 f   workers.obj
 0001:00018180       ?HandleOKCallback@KafkaConsumerConsumeLoop@Workers@NodeKafka@@UEAAXXZ 0000000180019180 f   workers.obj
 0001:000181b0       ??_EKafkaConsumerConsumeNum@Workers@NodeKafka@@UEAAPEAXI@Z 00000001800191b0 f i * CIL library *:* CIL module *
 0001:000181b0       ??_GKafkaConsumerConsumeNum@Workers@NodeKafka@@UEAAPEAXI@Z 00000001800191b0 f i workers.obj
 0001:00018250       ?Execute@KafkaConsumerConsumeNum@Workers@NodeKafka@@UEAAXXZ 0000000180019250 f   workers.obj
 0001:000183d0       ?HandleOKCallback@KafkaConsumerConsumeNum@Workers@NodeKafka@@UEAAXXZ 00000001800193d0 f   workers.obj
 0001:00018580       ?HandleErrorCallback@KafkaConsumerConsumeNum@Workers@NodeKafka@@UEAAXXZ 0000000180019580 f   workers.obj
 0001:00018680       ??_EKafkaConsumerConsume@Workers@NodeKafka@@UEAAPEAXI@Z 0000000180019680 f i * CIL library *:* CIL module *
 0001:00018680       ??_GKafkaConsumerConsume@Workers@NodeKafka@@UEAAPEAXI@Z 0000000180019680 f i workers.obj
 0001:000186c0       ?Execute@KafkaConsumerConsume@Workers@NodeKafka@@UEAAXXZ 00000001800196c0 f   workers.obj
 0001:00018770       ?HandleOKCallback@KafkaConsumerConsume@Workers@NodeKafka@@UEAAXXZ 0000000180019770 f   workers.obj
 0001:00018800       ??_GKafkaConsumerCommitted@Workers@NodeKafka@@UEAAPEAXI@Z 0000000180019800 f i workers.obj
 0001:00018800       ??_EKafkaConsumerCommitted@Workers@NodeKafka@@UEAAPEAXI@Z 0000000180019800 f i * CIL library *:* CIL module *
 0001:000188b0       ?Execute@KafkaConsumerCommitted@Workers@NodeKafka@@UEAAXXZ 00000001800198b0 f   workers.obj
 0001:00018a60       ??_EKafkaConsumerSeek@Workers@NodeKafka@@UEAAPEAXI@Z 0000000180019a60 f i * CIL library *:* CIL module *
 0001:00018a60       ??_GKafkaConsumerSeek@Workers@NodeKafka@@UEAAPEAXI@Z 0000000180019a60 f i workers.obj
 0001:00018ad0       ?Execute@KafkaConsumerSeek@Workers@NodeKafka@@UEAAXXZ 0000000180019ad0 f   workers.obj
 0001:00018c90       ?HandleOKCallback@KafkaConsumerSeek@Workers@NodeKafka@@UEAAXXZ 0000000180019c90 f   workers.obj
 0001:00018c90       ?HandleOKCallback@AdminClientDeleteTopic@Workers@NodeKafka@@UEAAXXZ 0000000180019c90 f   workers.obj
 0001:00018c90       ?HandleOKCallback@AdminClientCreateTopic@Workers@NodeKafka@@UEAAXXZ 0000000180019c90 f   workers.obj
 0001:00018c90       ?HandleOKCallback@AdminClientCreatePartitions@Workers@NodeKafka@@UEAAXXZ 0000000180019c90 f   workers.obj
 0001:00018d00       ??_GAdminClientCreateTopic@Workers@NodeKafka@@UEAAPEAXI@Z 0000000180019d00 f i workers.obj
 0001:00018d00       ??_EAdminClientCreateTopic@Workers@NodeKafka@@UEAAPEAXI@Z 0000000180019d00 f i * CIL library *:* CIL module *
 0001:00018d50       ?Execute@AdminClientCreateTopic@Workers@NodeKafka@@UEAAXXZ 0000000180019d50 f   workers.obj
 0001:00018df0       ??_EAdminClientDeleteTopic@Workers@NodeKafka@@UEAAPEAXI@Z 0000000180019df0 f i * CIL library *:* CIL module *
 0001:00018df0       ??_GAdminClientDeleteTopic@Workers@NodeKafka@@UEAAPEAXI@Z 0000000180019df0 f i workers.obj
 0001:00018e40       ?Execute@AdminClientDeleteTopic@Workers@NodeKafka@@UEAAXXZ 0000000180019e40 f   workers.obj
 0001:00018ee0       ??_EAdminClientCreatePartitions@Workers@NodeKafka@@UEAAPEAXI@Z 0000000180019ee0 f i * CIL library *:* CIL module *
 0001:00018ee0       ??_GAdminClientCreatePartitions@Workers@NodeKafka@@UEAAPEAXI@Z 0000000180019ee0 f i workers.obj
 0001:00018f30       ?Execute@AdminClientCreatePartitions@Workers@NodeKafka@@UEAAXXZ 0000000180019f30 f   workers.obj
 0001:00018fd0       ??$_Emplace_reallocate@PEAVMessage@RdKafka@@@?$vector@PEAVMessage@RdKafka@@V?$allocator@PEAVMessage@RdKafka@@@std@@@std@@QEAAPEAPEAVMessage@RdKafka@@QEAPEAV23@$$QEAPEAV23@@Z 0000000180019fd0 f i workers.obj
 0001:00018fd0       ??$_Emplace_reallocate@AEBQEAVMessage@RdKafka@@@?$vector@PEAVMessage@RdKafka@@V?$allocator@PEAVMessage@RdKafka@@@std@@@std@@QEAAPEAPEAVMessage@RdKafka@@QEAPEAV23@AEBQEAV23@@Z 0000000180019fd0 f i workers.obj
 0001:00019130       ?_Change_array@?$vector@PEAVMessage@RdKafka@@V?$allocator@PEAVMessage@RdKafka@@@std@@@std@@AEAAXQEAPEAVMessage@RdKafka@@_K1@Z 000000018001a130 f i workers.obj
 0001:000191c0       ??_GAdminClient@NodeKafka@@MEAAPEAXI@Z 000000018001a1c0 f i admin.obj
 0001:000191c0       ??_EAdminClient@NodeKafka@@MEAAPEAXI@Z 000000018001a1c0 f i * CIL library *:* CIL module *
 0001:00019280       ?Connect@AdminClient@NodeKafka@@QEAA?AVBaton@2@XZ 000000018001a280 f   admin.obj
 0001:00019480       ?Init@AdminClient@NodeKafka@@SAXV?$Local@VObject@v8@@@v8@@@Z 000000018001a480 f   admin.obj
 0001:000196e0       ?New@AdminClient@NodeKafka@@KAXAEBV?$FunctionCallbackInfo@VValue@v8@@@Nan@@@Z 000000018001a6e0 f   admin.obj
 0001:00019950       ?PollForEvent@NodeKafka@@YAPEAUrd_kafka_op_s@@PEAUrd_kafka_queue_s@@HHH@Z 000000018001a950 f   admin.obj
 0001:000199d0       ?CreateTopic@AdminClient@NodeKafka@@QEAA?AVBaton@2@PEAUrd_kafka_NewTopic_s@@H@Z 000000018001a9d0 f   admin.obj
 0001:00019cc0       ?DeleteTopic@AdminClient@NodeKafka@@QEAA?AVBaton@2@PEAUrd_kafka_DeleteTopic_s@@H@Z 000000018001acc0 f   admin.obj
 0001:00019ec0       ?CreatePartitions@AdminClient@NodeKafka@@QEAA?AVBaton@2@PEAUrd_kafka_NewPartitions_s@@H@Z 000000018001aec0 f   admin.obj
 0001:0001a1b0       ?NodeConnect@AdminClient@NodeKafka@@CAXAEBV?$FunctionCallbackInfo@VValue@v8@@@Nan@@@Z 000000018001b1b0 f   admin.obj
 0001:0001a2b0       ?NodeDisconnect@AdminClient@NodeKafka@@CAXAEBV?$FunctionCallbackInfo@VValue@v8@@@Nan@@@Z 000000018001b2b0 f   admin.obj
 0001:0001a3b0       ?NodeCreateTopic@AdminClient@NodeKafka@@CAXAEBV?$FunctionCallbackInfo@VValue@v8@@@Nan@@@Z 000000018001b3b0 f   admin.obj
 0001:0001a6c0       ?NodeDeleteTopic@AdminClient@NodeKafka@@CAXAEBV?$FunctionCallbackInfo@VValue@v8@@@Nan@@@Z 000000018001b6c0 f   admin.obj
 0001:0001aa40       ?NodeCreatePartitions@AdminClient@NodeKafka@@CAXAEBV?$FunctionCallbackInfo@VValue@v8@@@Nan@@@Z 000000018001ba40 f   admin.obj
 0001:0001ae7c       __imp_load_?Value@External@v8@@QEBAPEAXXZ 000000018001be7c f   node:node.exe
 0001:0001ae88       __tailMerge_node_exe       000000018001be88     node:node.exe
 0001:0001af01       __imp_load_?New@External@v8@@SA?AV?$Local@VExternal@v8@@@2@PEAVIsolate@2@PEAX@Z 000000018001bf01 f   node:node.exe
 0001:0001af0d       __imp_load_?GetCurrentContext@Isolate@v8@@QEAA?AV?$Local@VContext@v8@@@2@XZ 000000018001bf0d f   node:node.exe
 0001:0001af19       __imp_load_?GetCurrent@Isolate@v8@@SAPEAV12@XZ 000000018001bf19 f   node:node.exe
 0001:0001af25       __imp_load_?CreateHandle@HandleScope@v8@@KAPEAPEAVObject@internal@2@PEAVIsolate@42@PEAV342@@Z 000000018001bf25 f   node:node.exe
 0001:0001af31       __imp_load_?CreateHandle@HandleScope@v8@@CAPEAPEAVObject@internal@2@PEAVHeapObject@42@PEAV342@@Z 000000018001bf31 f   node:node.exe
 0001:0001af3d       __imp_load_??1HandleScope@v8@@QEAA@XZ 000000018001bf3d f   node:node.exe
 0001:0001af49       __imp_load_??0HandleScope@v8@@QEAA@PEAVIsolate@1@@Z 000000018001bf49 f   node:node.exe
 0001:0001af55       __imp_load_?GetFunction@FunctionTemplate@v8@@QEAA?AV?$MaybeLocal@VFunction@v8@@@2@V?$Local@VContext@v8@@@2@@Z 000000018001bf55 f   node:node.exe
 0001:0001af61       __imp_load_?New@FunctionTemplate@v8@@SA?AV?$Local@VFunctionTemplate@v8@@@2@PEAVIsolate@2@P6AXAEBV?$FunctionCallbackInfo@VValue@v8@@@2@@ZV?$Local@VValue@v8@@@2@V?$Local@VSignature@v8@@@2@HW4ConstructorBehavior@2@W4SideEffectType@2@@Z 000000018001bf61 f   node:node.exe
 0001:0001af6d       __imp_load_?ToLocalEmpty@V8@v8@@CAXXZ 000000018001bf6d f   node:node.exe
 0001:0001af79       __imp_load_?FromJustIsNothing@V8@v8@@CAXXZ 000000018001bf79 f   node:node.exe
 0001:0001af85       __imp_load_?Int32Value@Value@v8@@QEBA?AV?$Maybe@H@2@V?$Local@VContext@v8@@@2@@Z 000000018001bf85 f   node:node.exe
 0001:0001af91       __imp_load_?Escape@EscapableHandleScope@v8@@AEAAPEAPEAVObject@internal@2@PEAPEAV342@@Z 000000018001bf91 f   node:node.exe
 0001:0001af9d       __imp_load_??0EscapableHandleScope@v8@@QEAA@PEAVIsolate@1@@Z 000000018001bf9d f   node:node.exe
 0001:0001afa9       __imp_load_?NewFromUtf8@String@v8@@SA?AV?$MaybeLocal@VString@v8@@@2@PEAVIsolate@2@PEBDW4NewStringType@2@H@Z 000000018001bfa9 f   node:node.exe
 0001:0001afb5       __imp_load_?New@Number@v8@@SA?AV?$Local@VNumber@v8@@@2@PEAVIsolate@2@N@Z 000000018001bfb5 f   node:node.exe
 0001:0001afc1       __imp_load_?SlowGetInternalField@Object@v8@@AEAA?AV?$Local@VValue@v8@@@2@H@Z 000000018001bfc1 f   node:node.exe
 0001:0001afcd       __imp_load_?New@Object@v8@@SA?AV?$Local@VObject@v8@@@2@PEAVIsolate@2@@Z 000000018001bfcd f   node:node.exe
 0001:0001afd9       __imp_load_?GetIsolate@Object@v8@@QEAAPEAVIsolate@2@XZ 000000018001bfd9 f   node:node.exe
 0001:0001afe5       __imp_load_?SetInternalField@Object@v8@@QEAAXHV?$Local@VValue@v8@@@2@@Z 000000018001bfe5 f   node:node.exe
 0001:0001aff1       __imp_load_?DefineOwnProperty@Object@v8@@QEAA?AV?$Maybe@_N@2@V?$Local@VContext@v8@@@2@V?$Local@VName@v8@@@2@V?$Local@VValue@v8@@@2@W4PropertyAttribute@2@@Z 000000018001bff1 f   node:node.exe
 0001:0001affd       __imp_load_?Set@Object@v8@@QEAA?AV?$Maybe@_N@2@V?$Local@VContext@v8@@@2@V?$Local@VValue@v8@@@2@1@Z 000000018001bffd f   node:node.exe
 0001:0001b009       __imp_load_?SetInternalFieldCount@ObjectTemplate@v8@@QEAAXH@Z 000000018001c009 f   node:node.exe
 0001:0001b015       __imp_load_?NewInstance@ObjectTemplate@v8@@QEAA?AV?$MaybeLocal@VObject@v8@@@2@V?$Local@VContext@v8@@@2@@Z 000000018001c015 f   node:node.exe
 0001:0001b021       __imp_load_?New@ObjectTemplate@v8@@SA?AV?$Local@VObjectTemplate@v8@@@2@PEAVIsolate@2@V?$Local@VFunctionTemplate@v8@@@2@@Z 000000018001c021 f   node:node.exe
 0001:0001b02d       __imp_load_?AtExit@node@@YAXP6AXPEAX@Z0@Z 000000018001c02d f   node:node.exe
 0001:0001b039       __imp_load_node_module_register 000000018001c039 f   node:node.exe
 0001:0001b045       __imp_load_uv_mutex_unlock 000000018001c045 f   node:node.exe
 0001:0001b051       __imp_load_?Global@Context@v8@@QEAA?AV?$Local@VObject@v8@@@2@XZ 000000018001c051 f   node:node.exe
 0001:0001b05d       __imp_load_?New@Integer@v8@@SA?AV?$Local@VInteger@v8@@@2@PEAVIsolate@2@H@Z 000000018001c05d f   node:node.exe
 0001:0001b069       __imp_load_?Error@Exception@v8@@SA?AV?$Local@VValue@v8@@@2@V?$Local@VString@v8@@@2@@Z 000000018001c069 f   node:node.exe
 0001:0001b075       __imp_load_?New@Array@v8@@SA?AV?$Local@VArray@v8@@@2@PEAVIsolate@2@H@Z 000000018001c075 f   node:node.exe
 0001:0001b081       __imp_load_?DisposeGlobal@V8@v8@@CAXPEAPEAVObject@internal@2@@Z 000000018001c081 f   node:node.exe
 0001:0001b08d       __imp_load_?CopyPersistent@V8@v8@@CAPEAPEAVObject@internal@2@PEAPEAV342@@Z 000000018001c08d f   node:node.exe
 0001:0001b099       __imp_load_?GlobalizeReference@V8@v8@@CAPEAPEAVObject@internal@2@PEAVIsolate@42@PEAPEAV342@@Z 000000018001c099 f   node:node.exe
 0001:0001b0a5       __imp_load_?ToInt32@Value@v8@@QEBA?AV?$MaybeLocal@VInt32@v8@@@2@V?$Local@VContext@v8@@@2@@Z 000000018001c0a5 f   node:node.exe
 0001:0001b0b1       __imp_load_?Set@Object@v8@@QEAA?AV?$Maybe@_N@2@V?$Local@VContext@v8@@@2@IV?$Local@VValue@v8@@@2@@Z 000000018001c0b1 f   node:node.exe
 0001:0001b0bd       __imp_load_uv_mutex_lock   000000018001c0bd f   node:node.exe
 0001:0001b0c9       __imp_load_uv_close        000000018001c0c9 f   node:node.exe
 0001:0001b0d5       __imp_load_?EmitAsyncDestroy@node@@YAXPEAVIsolate@v8@@Uasync_context@1@@Z 000000018001c0d5 f   node:node.exe
 0001:0001b0e1       __imp_load_?New@Buffer@node@@YA?AV?$MaybeLocal@VObject@v8@@@v8@@PEAVIsolate@4@PEAD_K@Z 000000018001c0e1 f   node:node.exe
 0001:0001b0ed       __imp_load_?MakeCallback@node@@YA?AV?$MaybeLocal@VValue@v8@@@v8@@PEAVIsolate@3@V?$Local@VObject@v8@@@3@V?$Local@VFunction@v8@@@3@HPEAV?$Local@VValue@v8@@@3@Uasync_context@1@@Z 000000018001c0ed f   node:node.exe
 0001:0001b0f9       __imp_load_?EmitAsyncInit@node@@YA?AUasync_context@1@PEAVIsolate@v8@@V?$Local@VObject@v8@@@4@V?$Local@VString@v8@@@4@N@Z 000000018001c0f9 f   node:node.exe
 0001:0001b105       __imp_load_uv_mutex_destroy 000000018001c105 f   node:node.exe
 0001:0001b111       __imp_load_uv_mutex_init   000000018001c111 f   node:node.exe
 0001:0001b11d       __imp_load_uv_async_send   000000018001c11d f   node:node.exe
 0001:0001b129       __imp_load_uv_async_init   000000018001c129 f   node:node.exe
 0001:0001b135       __imp_load_uv_default_loop 000000018001c135 f   node:node.exe
 0001:0001b141       __imp_load_?GetSource@RegExp@v8@@QEBA?AV?$Local@VString@v8@@@2@XZ 000000018001c141 f   node:node.exe
 0001:0001b14d       __imp_load_?Length@Array@v8@@QEBAIXZ 000000018001c14d f   node:node.exe
 0001:0001b159       __imp_load_?IntegerValue@Value@v8@@QEBA?AV?$Maybe@_J@2@V?$Local@VContext@v8@@@2@@Z 000000018001c159 f   node:node.exe
 0001:0001b165       __imp_load_?BooleanValue@Value@v8@@QEBA?AV?$Maybe@_N@2@V?$Local@VContext@v8@@@2@@Z 000000018001c165 f   node:node.exe
 0001:0001b171       __imp_load_?ToObject@Value@v8@@QEBA?AV?$MaybeLocal@VObject@v8@@@2@V?$Local@VContext@v8@@@2@@Z 000000018001c171 f   node:node.exe
 0001:0001b17d       __imp_load_?ToString@Value@v8@@QEBA?AV?$MaybeLocal@VString@v8@@@2@V?$Local@VContext@v8@@@2@@Z 000000018001c17d f   node:node.exe
 0001:0001b189       __imp_load_?IsRegExp@Value@v8@@QEBA_NXZ 000000018001c189 f   node:node.exe
 0001:0001b195       __imp_load_?IsNumber@Value@v8@@QEBA_NXZ 000000018001c195 f   node:node.exe
 0001:0001b1a1       __imp_load_?IsBoolean@Value@v8@@QEBA_NXZ 000000018001c1a1 f   node:node.exe
 0001:0001b1ad       __imp_load_?IsObject@Value@v8@@QEBA_NXZ 000000018001c1ad f   node:node.exe
 0001:0001b1b9       __imp_load_?IsArray@Value@v8@@QEBA_NXZ 000000018001c1b9 f   node:node.exe
 0001:0001b1c5       __imp_load_?WriteUtf8@String@v8@@QEBAHPEADHPEAHH@Z 000000018001c1c5 f   node:node.exe
 0001:0001b1d1       __imp_load_?Length@String@v8@@QEBAHXZ 000000018001c1d1 f   node:node.exe
 0001:0001b1dd       __imp_load_?GetOwnPropertyNames@Object@v8@@QEAA?AV?$MaybeLocal@VArray@v8@@@2@V?$Local@VContext@v8@@@2@@Z 000000018001c1dd f   node:node.exe
 0001:0001b1e9       __imp_load_?Has@Object@v8@@QEAA?AV?$Maybe@_N@2@V?$Local@VContext@v8@@@2@V?$Local@VValue@v8@@@2@@Z 000000018001c1e9 f   node:node.exe
 0001:0001b1f5       __imp_load_?Get@Object@v8@@QEAA?AV?$MaybeLocal@VValue@v8@@@2@V?$Local@VContext@v8@@@2@V?$Local@VValue@v8@@@2@@Z 000000018001c1f5 f   node:node.exe
 0001:0001b201       __imp_load_?Get@Object@v8@@QEAA?AV?$MaybeLocal@VValue@v8@@@2@V?$Local@VContext@v8@@@2@I@Z 000000018001c201 f   node:node.exe
 0001:0001b20d       __imp_load_?Encode@node@@YA?AV?$Local@VValue@v8@@@v8@@PEAVIsolate@3@PEBD_KW4encoding@1@@Z 000000018001c20d f   node:node.exe
 0001:0001b219       __imp_load_?Uint32Value@Value@v8@@QEBA?AV?$Maybe@I@2@V?$Local@VContext@v8@@@2@@Z 000000018001c219 f   node:node.exe
 0001:0001b225       __imp_load_?IsUint32@Value@v8@@QEBA_NXZ 000000018001c225 f   node:node.exe
 0001:0001b231       __imp_load_?IsInt32@Value@v8@@QEBA_NXZ 000000018001c231 f   node:node.exe
 0001:0001b23d       __imp_load_?IsFunction@Value@v8@@QEBA_NXZ 000000018001c23d f   node:node.exe
 0001:0001b249       __imp_load_uv_queue_work   000000018001c249 f   node:node.exe
 0001:0001b255       __imp_load_?ThrowException@Isolate@v8@@QEAA?AV?$Local@VValue@v8@@@2@V32@@Z 000000018001c255 f   node:node.exe
 0001:0001b261       __imp_load_?ClearWeak@V8@v8@@CAPEAXPEAPEAVObject@internal@2@@Z 000000018001c261 f   node:node.exe
 0001:0001b26d       __imp_load_?MakeWeak@V8@v8@@CAXPEAPEAVObject@internal@2@PEAXP6AXAEBV?$WeakCallbackInfo@X@2@@ZW4WeakCallbackType@2@@Z 000000018001c26d f   node:node.exe
 0001:0001b279       __imp_load_?SlowGetAlignedPointerFromInternalField@Object@v8@@AEAAPEAXH@Z 000000018001c279 f   node:node.exe
 0001:0001b285       __imp_load_?InternalFieldCount@Object@v8@@QEAAHXZ 000000018001c285 f   node:node.exe
 0001:0001b291       __imp_load_?GetCurrentEventLoop@node@@YAPEAUuv_loop_s@@PEAVIsolate@v8@@@Z 000000018001c291 f   node:node.exe
 0001:0001b29d       __imp_load_uv_rwlock_rdlock 000000018001c29d f   node:node.exe
 0001:0001b2a9       __imp_load_uv_rwlock_init  000000018001c2a9 f   node:node.exe
 0001:0001b2b5       __imp_load_uv_rwlock_rdunlock 000000018001c2b5 f   node:node.exe
 0001:0001b2c1       __imp_load_uv_rwlock_destroy 000000018001c2c1 f   node:node.exe
 0001:0001b2cd       __imp_load_?New@Signature@v8@@SA?AV?$Local@VSignature@v8@@@2@PEAVIsolate@2@V?$Local@VFunctionTemplate@v8@@@2@@Z 000000018001c2cd f   node:node.exe
 0001:0001b2d9       __imp_load_?Set@Template@v8@@QEAAXV?$Local@VName@v8@@@2@V?$Local@VData@v8@@@2@W4PropertyAttribute@2@@Z 000000018001c2d9 f   node:node.exe
 0001:0001b2e5       __imp_load_?SetClassName@FunctionTemplate@v8@@QEAAXV?$Local@VString@v8@@@2@@Z 000000018001c2e5 f   node:node.exe
 0001:0001b2f1       __imp_load_?PrototypeTemplate@FunctionTemplate@v8@@QEAA?AV?$Local@VObjectTemplate@v8@@@2@XZ 000000018001c2f1 f   node:node.exe
 0001:0001b2fd       __imp_load_?InstanceTemplate@FunctionTemplate@v8@@QEAA?AV?$Local@VObjectTemplate@v8@@@2@XZ 000000018001c2fd f   node:node.exe
 0001:0001b309       __imp_load_?SetAlignedPointerInInternalField@Object@v8@@QEAAXHPEAX@Z 000000018001c309 f   node:node.exe
 0001:0001b315       __imp_load_uv_rwlock_wrlock 000000018001c315 f   node:node.exe
 0001:0001b321       __imp_load_uv_rwlock_wrunlock 000000018001c321 f   node:node.exe
 0001:0001b32d       __imp_load_?HasInstance@Buffer@node@@YA_NV?$Local@VValue@v8@@@v8@@@Z 000000018001c32d f   node:node.exe
 0001:0001b339       __imp_load_?Data@Buffer@node@@YAPEADV?$Local@VObject@v8@@@v8@@@Z 000000018001c339 f   node:node.exe
 0001:0001b345       __imp_load_?Length@Buffer@node@@YA_KV?$Local@VObject@v8@@@v8@@@Z 000000018001c345 f   node:node.exe
 0001:0001b354       ??0bad_alloc@std@@QEAA@AEBV01@@Z 000000018001c354 f i libcpmt:xthrow.obj
 0001:0001b394       ??0bad_alloc@std@@QEAA@XZ  000000018001c394 f i libcpmt:xthrow.obj
 0001:0001b3b4       ??0exception@std@@QEAA@AEBV01@@Z 000000018001c3b4 f i libcpmt:xthrow.obj
 0001:0001b3ec       ??0length_error@std@@QEAA@AEBV01@@Z 000000018001c3ec f i libcpmt:xthrow.obj
 0001:0001b42c       ??0length_error@std@@QEAA@PEBD@Z 000000018001c42c f i libcpmt:xthrow.obj
 0001:0001b478       ??0logic_error@std@@QEAA@AEBV01@@Z 000000018001c478 f i libcpmt:xthrow.obj
 0001:0001b4b8       ??0runtime_error@std@@QEAA@AEBV01@@Z 000000018001c4b8 f i libcpmt:xthrow.obj
 0001:0001b4f8       ??1bad_exception@std@@UEAA@XZ 000000018001c4f8 f i libvcruntime:frame.obj
 0001:0001b4f8       ??1bad_array_new_length@std@@UEAA@XZ 000000018001c4f8 f i LIBCMT:throw_bad_alloc.obj
 0001:0001b4f8       ??1__non_rtti_object@std@@UEAA@XZ 000000018001c4f8 f i libvcruntime:rtti.obj
 0001:0001b4f8       ??1bad_alloc@std@@UEAA@XZ  000000018001c4f8 f i libcpmt:xthrow.obj
 0001:0001b4f8       ??1bad_cast@std@@UEAA@XZ   000000018001c4f8 f i libcpmt:cerr.obj
 0001:0001b4f8       ??1length_error@std@@UEAA@XZ 000000018001c4f8 f i libcpmt:xthrow.obj
 0001:0001b50c       ??_Glogic_error@std@@UEAAPEAXI@Z 000000018001c50c f i libcpmt:xthrow.obj
 0001:0001b50c       ??_Gbad_cast@std@@UEAAPEAXI@Z 000000018001c50c f i libcpmt:cerr.obj
 0001:0001b50c       ??_Elogic_error@std@@UEAAPEAXI@Z 000000018001c50c f i libcpmt:xthrow.obj
 0001:0001b50c       ??_Gbad_typeid@std@@UEAAPEAXI@Z 000000018001c50c f i libvcruntime:rtti.obj
 0001:0001b50c       ??_Ebad_array_new_length@std@@UEAAPEAXI@Z 000000018001c50c f i LIBCMT:throw_bad_alloc.obj
 0001:0001b50c       ??_Gbad_exception@std@@UEAAPEAXI@Z 000000018001c50c f i libvcruntime:frame.obj
 0001:0001b50c       ??_Gexception@std@@UEAAPEAXI@Z 000000018001c50c f i libcpmt:xthrow.obj
 0001:0001b50c       ??_Eexception@std@@UEAAPEAXI@Z 000000018001c50c f i libcpmt:xthrow.obj
 0001:0001b50c       ??_E__non_rtti_object@std@@UEAAPEAXI@Z 000000018001c50c f i libvcruntime:rtti.obj
 0001:0001b50c       ??_Ebad_exception@std@@UEAAPEAXI@Z 000000018001c50c f i libvcruntime:frame.obj
 0001:0001b50c       ??_G__non_rtti_object@std@@UEAAPEAXI@Z 000000018001c50c f i libvcruntime:rtti.obj
 0001:0001b50c       ??_Elength_error@std@@UEAAPEAXI@Z 000000018001c50c f i libcpmt:xthrow.obj
 0001:0001b50c       ??_Gbad_array_new_length@std@@UEAAPEAXI@Z 000000018001c50c f i LIBCMT:throw_bad_alloc.obj
 0001:0001b50c       ??_Gbad_alloc@std@@UEAAPEAXI@Z 000000018001c50c f i libcpmt:xthrow.obj
 0001:0001b50c       ??_Ebad_cast@std@@UEAAPEAXI@Z 000000018001c50c f i libcpmt:cerr.obj
 0001:0001b50c       ??_Glength_error@std@@UEAAPEAXI@Z 000000018001c50c f i libcpmt:xthrow.obj
 0001:0001b50c       ??_Ebad_typeid@std@@UEAAPEAXI@Z 000000018001c50c f i libvcruntime:rtti.obj
 0001:0001b50c       ??_Ebad_alloc@std@@UEAAPEAXI@Z 000000018001c50c f i libcpmt:xthrow.obj
 0001:0001b550       ?_Xlength_error@std@@YAXPEBD@Z 000000018001c550 f   libcpmt:xthrow.obj
 0001:0001b574       ?what@exception@std@@UEBAPEBDXZ 000000018001c574 f i libcpmt:xthrow.obj
 0001:0001b588       ??0_Init_locks@std@@QEAA@XZ 000000018001c588 f   libcpmt:xlock.obj
 0001:0001b5d4       ??0_Lockit@std@@QEAA@H@Z   000000018001c5d4 f   libcpmt:xlock.obj
 0001:0001b610       ??1_Init_locks@std@@QEAA@XZ 000000018001c610 f   libcpmt:xlock.obj
 0001:0001b654       ??1_Lockit@std@@QEAA@XZ    000000018001c654 f   libcpmt:xlock.obj
 0001:0001b688       ??0_System_error@std@@QEAA@AEBV01@@Z 000000018001c688 f i libcpmt:xonce.obj
 0001:0001b6dc       ??0system_error@std@@QEAA@AEBV01@@Z 000000018001c6dc f i libcpmt:xonce.obj
 0001:0001b738       ?_Execute_once@std@@YAHAEAUonce_flag@1@P6AHPEAX1PEAPEAX@Z1@Z 000000018001c738 f   libcpmt:xonce.obj
 0001:0001b740       ??1_Fac_tidy_reg_t@std@@QEAA@XZ 000000018001c740 f i libcpmt:locale0.obj
 0001:0001b7a8       ??4?$_Yarn@D@std@@QEAAAEAV01@PEBD@Z 000000018001c7a8 f i libcpmt:locale0.obj
 0001:0001b820       ??_E_Locimp@locale@std@@MEAAPEAXI@Z 000000018001c820 f i libcpmt:locale0.obj
 0001:0001b820       ??_G_Locimp@locale@std@@MEAAPEAXI@Z 000000018001c820 f i libcpmt:locale0.obj
 0001:0001b88c       ?_Facet_Register@std@@YAXPEAV_Facet_base@1@@Z 000000018001c88c f   libcpmt:locale0.obj
 0001:0001b8c4       ?_Getgloballocale@locale@std@@CAPEAV_Locimp@12@XZ 000000018001c8c4 f   libcpmt:locale0.obj
 0001:0001b8cc       ?_Init@locale@std@@CAPEAV_Locimp@12@_N@Z 000000018001c8cc f   libcpmt:locale0.obj
 0001:0001b978       ?_Locimp_dtor@_Locimp@locale@std@@CAXPEAV123@@Z 000000018001c978 f   libcpmt:locale0.obj
 0001:0001ba00       ?_Locinfo_ctor@_Locinfo@std@@SAXPEAV12@PEBD@Z 000000018001ca00 f   libcpmt:locale0.obj
 0001:0001ba6c       ?_Locinfo_dtor@_Locinfo@std@@SAXPEAV12@@Z 000000018001ca6c f   libcpmt:locale0.obj
 0001:0001ba88       ?_New_Locimp@_Locimp@locale@std@@CAPEAV123@_N@Z 000000018001ca88 f   libcpmt:locale0.obj
 0001:0001baf8       ?_Setgloballocale@locale@std@@CAXPEAX@Z 000000018001caf8 f   libcpmt:locale0.obj
 0001:0001bb2c       _Deletegloballocale        000000018001cb2c f   libcpmt:locale0.obj
 0001:0001bcf8       ??$use_facet@V?$codecvt@DDU_Mbstatet@@@std@@@std@@YAAEBV?$codecvt@DDU_Mbstatet@@@0@AEBVlocale@0@@Z 000000018001ccf8 f i libcpmt:cerr.obj
 0001:0001be2c       ??0?$basic_ostream@DU?$char_traits@D@std@@@std@@QEAA@PEAV?$basic_streambuf@DU?$char_traits@D@std@@@1@_N@Z 000000018001ce2c f i libcpmt:cerr.obj
 0001:0001bea8       ??0?$basic_streambuf@DU?$char_traits@D@std@@@std@@IEAA@XZ 000000018001cea8 f i libcpmt:cerr.obj
 0001:0001bf58       ??0bad_cast@std@@QEAA@AEBV01@@Z 000000018001cf58 f i libcpmt:cerr.obj
 0001:0001bf98       ??0bad_cast@std@@QEAA@XZ   000000018001cf98 f i libcpmt:cerr.obj
 0001:0001bfb8       ??0failure@ios_base@std@@QEAA@AEBV012@@Z 000000018001cfb8 f i libcpmt:cerr.obj
 0001:0001c014       ??1?$basic_filebuf@DU?$char_traits@D@std@@@std@@UEAA@XZ 000000018001d014 f i libcpmt:cerr.obj
 0001:0001c0ac       ??1?$basic_ios@DU?$char_traits@D@std@@@std@@UEAA@XZ 000000018001d0ac f i libcpmt:cerr.obj
 0001:0001c0d0       ??1?$basic_streambuf@DU?$char_traits@D@std@@@std@@UEAA@XZ 000000018001d0d0 f i libcpmt:cerr.obj
 0001:0001c138       ??_E?$basic_ostream@DU?$char_traits@D@std@@@std@@$4PPPPPPPM@A@EAAPEAXI@Z 000000018001d138 f i libcpmt:cerr.obj
 0001:0001c144       ??_E?$basic_filebuf@DU?$char_traits@D@std@@@std@@UEAAPEAXI@Z 000000018001d144 f i libcpmt:cerr.obj
 0001:0001c144       ??_G?$basic_filebuf@DU?$char_traits@D@std@@@std@@UEAAPEAXI@Z 000000018001d144 f i libcpmt:cerr.obj
 0001:0001c178       ??_G?$basic_ios@DU?$char_traits@D@std@@@std@@UEAAPEAXI@Z 000000018001d178 f i libcpmt:cerr.obj
 0001:0001c178       ??_E?$basic_ios@DU?$char_traits@D@std@@@std@@UEAAPEAXI@Z 000000018001d178 f i libcpmt:cerr.obj
 0001:0001c1c4       ??_E?$basic_ostream@DU?$char_traits@D@std@@@std@@UEAAPEAXI@Z 000000018001d1c4 f i libcpmt:cerr.obj
 0001:0001c1c4       ??_G?$basic_ostream@DU?$char_traits@D@std@@@std@@UEAAPEAXI@Z 000000018001d1c4 f i libcpmt:cerr.obj
 0001:0001c234       ??_G?$basic_streambuf@DU?$char_traits@D@std@@@std@@UEAAPEAXI@Z 000000018001d234 f i libcpmt:cerr.obj
 0001:0001c234       ??_E?$basic_streambuf@DU?$char_traits@D@std@@@std@@UEAAPEAXI@Z 000000018001d234 f i libcpmt:cerr.obj
 0001:0001c268       ??_E?$codecvt@DDU_Mbstatet@@@std@@MEAAPEAXI@Z 000000018001d268 f i libcpmt:cerr.obj
 0001:0001c268       ??_G?$codecvt@DDU_Mbstatet@@@std@@MEAAPEAXI@Z 000000018001d268 f i libcpmt:cerr.obj
 0001:0001c294       ??_Eios_base@std@@UEAAPEAXI@Z 000000018001d294 f i libcpmt:cerr.obj
 0001:0001c294       ??_Gios_base@std@@UEAAPEAXI@Z 000000018001d294 f i libcpmt:cerr.obj
 0001:0001c2e0       ?_Endwrite@?$basic_filebuf@DU?$char_traits@D@std@@@std@@IEAA_NXZ 000000018001d2e0 f i libcpmt:cerr.obj
 0001:0001c3b8       ?_Getcat@?$codecvt@DDU_Mbstatet@@@std@@SA_KPEAPEBVfacet@locale@2@PEBV42@@Z 000000018001d3b8 f i libcpmt:cerr.obj
 0001:0001c47c       ?_Init@?$basic_filebuf@DU?$char_traits@D@std@@@std@@IEAAXPEAU_iobuf@@W4_Initfl@12@@Z 000000018001d47c f i libcpmt:cerr.obj
 0001:0001c568       ?_Init@ios_base@std@@IEAAXXZ 000000018001d568 f i libcpmt:cerr.obj
 0001:0001c5e4       ?_Initcvt@?$basic_filebuf@DU?$char_traits@D@std@@@std@@IEAAXAEBV?$codecvt@DDU_Mbstatet@@@2@@Z 000000018001d5e4 f i libcpmt:cerr.obj
 0001:0001c674       ?_Lock@?$basic_filebuf@DU?$char_traits@D@std@@@std@@UEAAXXZ 000000018001d674 f i libcpmt:cerr.obj
 0001:0001c690       ?_Unlock@?$basic_filebuf@DU?$char_traits@D@std@@@std@@UEAAXXZ 000000018001d690 f i libcpmt:cerr.obj
 0001:0001c6ac       ?clear@ios_base@std@@QEAAXH@Z 000000018001d6ac f i libcpmt:cerr.obj
 0001:0001c718       __acrt_uninitialize_command_line 000000018001d718 f i libucrt:argv_data.obj
 0001:0001c718       ?do_always_noconv@?$codecvt@DDU_Mbstatet@@@std@@MEBA_NXZ 000000018001d718 f i libcpmt:cerr.obj
 0001:0001c71c       ?do_encoding@codecvt_base@std@@MEBAHXZ 000000018001d71c f i libcpmt:cerr.obj
 0001:0001c71c       DllMain                    000000018001d71c f i LIBCMT:dll_dllmain_stub.obj
 0001:0001c71c       _get_startup_argv_mode     000000018001d71c f i LIBCMT:argv_mode.obj
 0001:0001c71c       ?do_max_length@codecvt_base@std@@MEBAHXZ 000000018001d71c f i libcpmt:cerr.obj
 0001:0001c724       ?do_out@?$codecvt@DDU_Mbstatet@@@std@@MEBAHAEAU_Mbstatet@@PEBD1AEAPEBDPEAD3AEAPEAD@Z 000000018001d724 f i libcpmt:cerr.obj
 0001:0001c724       ?do_in@?$codecvt@DDU_Mbstatet@@@std@@MEBAHAEAU_Mbstatet@@PEBD1AEAPEBDPEAD3AEAPEAD@Z 000000018001d724 f i libcpmt:cerr.obj
 0001:0001c740       ?do_length@?$codecvt@DDU_Mbstatet@@@std@@MEBAHAEAU_Mbstatet@@PEBD1_K@Z 000000018001d740 f i libcpmt:cerr.obj
 0001:0001c750       ?do_unshift@?$codecvt@DDU_Mbstatet@@@std@@MEBAHAEAU_Mbstatet@@PEAD1AEAPEAD@Z 000000018001d750 f i libcpmt:cerr.obj
 0001:0001c75c       ?imbue@?$basic_filebuf@DU?$char_traits@D@std@@@std@@MEAAXAEBVlocale@2@@Z 000000018001d75c f i libcpmt:cerr.obj
 0001:0001c780       ?init@?$basic_ios@DU?$char_traits@D@std@@@std@@IEAAXPEAV?$basic_streambuf@DU?$char_traits@D@std@@@2@_N@Z 000000018001d780 f i libcpmt:cerr.obj
 0001:0001c840       ?overflow@?$basic_filebuf@DU?$char_traits@D@std@@@std@@MEAAHH@Z 000000018001d840 f i libcpmt:cerr.obj
 0001:0001c9c8       ?underflow@?$basic_streambuf@DU?$char_traits@D@std@@@std@@MEAAHXZ 000000018001d9c8 f i libcpmt:cerr.obj
 0001:0001c9c8       ?pbackfail@?$basic_streambuf@DU?$char_traits@D@std@@@std@@MEAAHH@Z 000000018001d9c8 f i libcpmt:cerr.obj
 0001:0001c9c8       ?overflow@?$basic_streambuf@DU?$char_traits@D@std@@@std@@MEAAHH@Z 000000018001d9c8 f i libcpmt:cerr.obj
 0001:0001c9cc       ?pbackfail@?$basic_filebuf@DU?$char_traits@D@std@@@std@@MEAAHH@Z 000000018001d9cc f i libcpmt:cerr.obj
 0001:0001ca98       ?seekoff@?$basic_filebuf@DU?$char_traits@D@std@@@std@@MEAA?AV?$fpos@U_Mbstatet@@@2@_JHH@Z 000000018001da98 f i libcpmt:cerr.obj
 0001:0001cb7c       ?seekpos@?$basic_streambuf@DU?$char_traits@D@std@@@std@@MEAA?AV?$fpos@U_Mbstatet@@@2@V32@H@Z 000000018001db7c f i libcpmt:cerr.obj
 0001:0001cb7c       ?seekoff@?$basic_streambuf@DU?$char_traits@D@std@@@std@@MEAA?AV?$fpos@U_Mbstatet@@@2@_JHH@Z 000000018001db7c f i libcpmt:cerr.obj
 0001:0001cb90       ?seekpos@?$basic_filebuf@DU?$char_traits@D@std@@@std@@MEAA?AV?$fpos@U_Mbstatet@@@2@V32@H@Z 000000018001db90 f i libcpmt:cerr.obj
 0001:0001cc4c       ?setbuf@?$basic_filebuf@DU?$char_traits@D@std@@@std@@MEAAPEAV?$basic_streambuf@DU?$char_traits@D@std@@@2@PEAD_J@Z 000000018001dc4c f i libcpmt:cerr.obj
 0001:0001cca0       ?setbuf@?$basic_streambuf@DU?$char_traits@D@std@@@std@@MEAAPEAV12@PEAD_J@Z 000000018001dca0 f i libcpmt:cerr.obj
 0001:0001cca4       ?sync@?$basic_streambuf@DU?$char_traits@D@std@@@std@@MEAAHXZ 000000018001dca4 f i libcpmt:cerr.obj
 0001:0001cca4       ?showmanyc@?$basic_streambuf@DU?$char_traits@D@std@@@std@@MEAA_JXZ 000000018001dca4 f i libcpmt:cerr.obj
 0001:0001cca8       ?sync@?$basic_filebuf@DU?$char_traits@D@std@@@std@@MEAAHXZ 000000018001dca8 f i libcpmt:cerr.obj
 0001:0001ccf4       ?uflow@?$basic_filebuf@DU?$char_traits@D@std@@@std@@MEAAHXZ 000000018001dcf4 f i libcpmt:cerr.obj
 0001:0001cfac       ?uflow@?$basic_streambuf@DU?$char_traits@D@std@@@std@@MEAAHXZ 000000018001dfac f i libcpmt:cerr.obj
 0001:0001cfe8       ?underflow@?$basic_filebuf@DU?$char_traits@D@std@@@std@@MEAAHXZ 000000018001dfe8 f i libcpmt:cerr.obj
 0001:0001d04c       ?xsgetn@?$basic_filebuf@DU?$char_traits@D@std@@@std@@MEAA_JPEAD_J@Z 000000018001e04c f i libcpmt:cerr.obj
 0001:0001d14c       ?xsgetn@?$basic_streambuf@DU?$char_traits@D@std@@@std@@MEAA_JPEAD_J@Z 000000018001e14c f i libcpmt:cerr.obj
 0001:0001d208       ?xsputn@?$basic_filebuf@DU?$char_traits@D@std@@@std@@MEAA_JPEBD_J@Z 000000018001e208 f i libcpmt:cerr.obj
 0001:0001d2cc       ?xsputn@?$basic_streambuf@DU?$char_traits@D@std@@@std@@MEAA_JPEBD_J@Z 000000018001e2cc f i libcpmt:cerr.obj
 0001:0001d38c       ?_Syserror_map@std@@YAPEBDH@Z 000000018001e38c f   libcpmt:syserror.obj
 0001:0001d3b4       _Getctype                  000000018001e3b4 f   libcpmt:_tolower.obj
 0001:0001d47c       _Tolower                   000000018001e47c f   libcpmt:_tolower.obj
 0001:0001d5ac       _Toupper                   000000018001e5ac f   libcpmt:_toupper.obj
 0001:0001d6ec       ??0_Init_cout@std@@QEAA@XZ 000000018001e6ec f i libcpmt:cout.obj
 0001:0001d758       _Mtxdst                    000000018001e758 f   libcpmt:xmtx.obj
 0001:0001d760       _Mtxinit                   000000018001e760 f   libcpmt:xmtx.obj
 0001:0001d770       _Mtxlock                   000000018001e770 f   libcpmt:xmtx.obj
 0001:0001d778       _Mtxunlock                 000000018001e778 f   libcpmt:xmtx.obj
 0001:0001dc50       __crtInitOnceExecuteOnce   000000018001ec50 f   libcpmt:winapisupp.obj
 0001:0001dd1c       __crtInitializeCriticalSectionEx 000000018001ed1c f   libcpmt:winapisupp.obj
 0001:0001dd4c       ?_Atexit@@YAXP6AXXZ@Z      000000018001ed4c f   libcpmt:iosptrs.obj
 0001:0001dd8c       ?_Addstd@ios_base@std@@SAXPEAV12@@Z 000000018001ed8c f   libcpmt:ios.obj
 0001:0001de04       ?_Ios_base_dtor@ios_base@std@@CAXPEAV12@@Z 000000018001ee04 f   libcpmt:ios.obj
 0001:0001de84       ?_Tidy@ios_base@std@@AEAAXXZ 000000018001ee84 f i libcpmt:ios.obj
 0001:0001df04       __crtLCMapStringA          000000018001ef04 f   libcpmt:StlLCMapStringA.obj
 0001:0001e1b8       GetTableIndexFromLocaleName 000000018001f1b8 f   libcpmt:winapinls.obj
 0001:0001e248       __crtDownlevelLocaleNameToLCID 000000018001f248 f   libcpmt:winapinls.obj
 0001:0001e27c       __crtLCMapStringEx         000000018001f27c f   libcpmt:winapinls.obj
 0001:0001e318       __wcsnicmp_ascii           000000018001f318 f   libcpmt:winapinls.obj
 0001:0001e390       __security_check_cookie    000000018001f390 f   LIBCMT:amdsecgs.obj
 0001:0001e3b4       ??2@YAPEAX_K@Z             000000018001f3b4 f   LIBCMT:new_scalar.obj
 0001:0001e3f0       ??3@YAXPEAX_K@Z            000000018001f3f0 f   LIBCMT:delete_scalar_size.obj
 0001:0001e3f0       ??_V@YAXPEAX@Z             000000018001f3f0 f   LIBCMT:delete_array.obj
 0001:0001e3f8       ??_Etype_info@@UEAAPEAXI@Z 000000018001f3f8 f i LIBCMT:std_type_info_static.obj
 0001:0001e3f8       ??_Gtype_info@@UEAAPEAXI@Z 000000018001f3f8 f i LIBCMT:std_type_info_static.obj
 0001:0001e424       __scrt_acquire_startup_lock 000000018001f424 f   LIBCMT:utility.obj
 0001:0001e460       __scrt_dllmain_after_initialize_c 000000018001f460 f   LIBCMT:utility.obj
 0001:0001e494       __scrt_dllmain_before_initialize_c 000000018001f494 f   LIBCMT:utility.obj
 0001:0001e4ac       __scrt_dllmain_crt_thread_attach 000000018001f4ac f   LIBCMT:utility.obj
 0001:0001e4d4       __scrt_dllmain_crt_thread_detach 000000018001f4d4 f   LIBCMT:utility.obj
 0001:0001e4ec       __scrt_dllmain_exception_filter 000000018001f4ec f   LIBCMT:utility.obj
 0001:0001e54c       __scrt_dllmain_uninitialize_c 000000018001f54c f   LIBCMT:utility.obj
 0001:0001e57c       __scrt_dllmain_uninitialize_critical 000000018001f57c f   LIBCMT:utility.obj
 0001:0001e590       __scrt_initialize_crt      000000018001f590 f   LIBCMT:utility.obj
 0001:0001e5dc       __scrt_initialize_onexit_tables 000000018001f5dc f   LIBCMT:utility.obj
 0001:0001e6b4       __scrt_is_nonwritable_in_current_image 000000018001f6b4 f   LIBCMT:utility.obj
 0001:0001e750       __scrt_release_startup_lock 000000018001f750 f   LIBCMT:utility.obj
 0001:0001e774       __scrt_uninitialize_crt    000000018001f774 f   LIBCMT:utility.obj
 0001:0001e7a0       _onexit                    000000018001f7a0 f   LIBCMT:utility.obj
 0001:0001e7f0       atexit                     000000018001f7f0 f   LIBCMT:utility.obj
 0001:0001e808       ??_U@YAPEAX_K@Z            000000018001f808 f   LIBCMT:new_array.obj
 0001:0001eb40       _DllMainCRTStartup         000000018001fb40 f   LIBCMT:dll_dllmain.obj
 0001:0001eb80       __GSHandlerCheck           000000018001fb80 f   LIBCMT:gshandler.obj
 0001:0001eba0       __GSHandlerCheckCommon     000000018001fba0 f   LIBCMT:gshandler.obj
 0001:0001ebfc       __GSHandlerCheck_EH        000000018001fbfc f   LIBCMT:gshandlereh.obj
 0001:0001ec90       _alloca_probe              000000018001fc90 f   LIBCMT:chkstk.obj
 0001:0001ec90       __chkstk                   000000018001fc90 f   LIBCMT:chkstk.obj
 0001:0001ece4       __raise_securityfailure    000000018001fce4 f   LIBCMT:gs_report.obj
 0001:0001ed18       __report_gsfailure         000000018001fd18 f   LIBCMT:gs_report.obj
 0001:0001edec       __report_rangecheckfailure 000000018001fdec f   LIBCMT:gs_report.obj
 0001:0001ee00       __report_securityfailure   000000018001fe00 f   LIBCMT:gs_report.obj
 0001:0001ef80       ??0bad_array_new_length@std@@QEAA@AEBV01@@Z 000000018001ff80 f i LIBCMT:throw_bad_alloc.obj
 0001:0001efc0       ??0bad_array_new_length@std@@QEAA@XZ 000000018001ffc0 f i LIBCMT:throw_bad_alloc.obj
 0001:0001efe0       ?__scrt_throw_std_bad_alloc@@YAXXZ 000000018001ffe0 f   LIBCMT:throw_bad_alloc.obj
 0001:0001f000       ?__scrt_throw_std_bad_array_new_length@@YAXXZ 0000000180020000 f   LIBCMT:throw_bad_alloc.obj
 0001:0001f020       ??3@YAXPEAX@Z              0000000180020020 f   LIBCMT:delete_scalar.obj
 0001:0001f028       __isa_available_init       0000000180020028 f   LIBCMT:cpu_disp.obj
 0001:0001f1e4       __scrt_is_ucrt_dll_in_use  00000001800201e4 f   LIBCMT:ucrt_detection.obj
 0001:0001f1f0       __crt_debugger_hook        00000001800201f0 f   LIBCMT:utility_desktop.obj
 0001:0001f1f8       __scrt_fastfail            00000001800201f8 f   LIBCMT:utility_desktop.obj
 0001:0001f344       __security_init_cookie     0000000180020344 f   LIBCMT:gs_support.obj
 0001:0001f3f0       ?__scrt_initialize_type_info@@YAXXZ 00000001800203f0 f   LIBCMT:tncleanup.obj
 0001:0001f400       ?__scrt_uninitialize_type_info@@YAXXZ 0000000180020400 f   LIBCMT:tncleanup.obj
 0001:0001f40c       __local_stdio_scanf_options 000000018002040c f i LIBCMT:default_local_stdio_options.obj
 0001:0001f414       __scrt_initialize_default_local_stdio_options 0000000180020414 f   LIBCMT:default_local_stdio_options.obj
 0001:0001f430       __scrt_get_dyn_tls_init_callback 0000000180020430 f   LIBCMT:dyn_tls_init.obj
 0001:0001f438       _RTC_Initialize            0000000180020438 f   LIBCMT:initsect.obj
 0001:0001f474       _RTC_Terminate             0000000180020474 f   LIBCMT:initsect.obj
 0001:0001f4b0       _purecall                  00000001800204b0 f   libvcruntime:purevirt.obj
 0001:0001f4e0       __std_exception_copy       00000001800204e0 f   libvcruntime:std_exception.obj
 0001:0001f570       __std_exception_destroy    0000000180020570 f   libvcruntime:std_exception.obj
 0001:0001f598       _CxxThrowException         0000000180020598 f   libvcruntime:throw.obj
 0001:0001f658       ??$_CallSETranslator@V__FrameHandler3@@@@YAHPEAUEHExceptionRecord@@PEA_KPEAU_CONTEXT@@PEAU_xDISPATCHER_CONTEXT@@PEBU_s_FuncInfo@@K1@Z 0000000180020658 f i libvcruntime:risctrnsctrl.obj
 0001:0001f6ac       ?CatchTryBlock@__FrameHandler3@@SAPEBU_s_TryBlockMapEntry@@PEBU_s_FuncInfo@@H@Z 00000001800206ac f   libvcruntime:risctrnsctrl.obj
 0001:0001f704       ?ExecutionInCatch@__FrameHandler3@@SA_NPEAU_xDISPATCHER_CONTEXT@@PEBU_s_FuncInfo@@@Z 0000000180020704 f   libvcruntime:risctrnsctrl.obj
 0001:0001f730       ?FrameUnwindToEmptyState@__FrameHandler3@@SAXPEA_KPEAU_xDISPATCHER_CONTEXT@@PEBU_s_FuncInfo@@@Z 0000000180020730 f   libvcruntime:risctrnsctrl.obj
 0001:0001f794       ?GetEstablisherFrame@__FrameHandler3@@SAPEA_KPEA_KPEAU_xDISPATCHER_CONTEXT@@PEBU_s_FuncInfo@@0@Z 0000000180020794 f   libvcruntime:risctrnsctrl.obj
 0001:0001f860       ?GetRangeOfTrysToCheck@__FrameHandler3@@SA?AU?$pair@Viterator@TryBlockMap@__FrameHandler3@@V123@@std@@AEAVTryBlockMap@1@HH@Z 0000000180020860 f   libvcruntime:risctrnsctrl.obj
 0001:0001f9bc       ?UnwindNestedFrames@__FrameHandler3@@SAXPEA_KPEAUEHExceptionRecord@@PEAU_CONTEXT@@0PEAXPEBU_s_FuncInfo@@HHPEBU_s_HandlerType@@PEAU_xDISPATCHER_CONTEXT@@E@Z 00000001800209bc f   libvcruntime:risctrnsctrl.obj
 0001:0001fae0       _CreateFrameInfo           0000000180020ae0 f   libvcruntime:risctrnsctrl.obj
 0001:0001fb1c       _FindAndUnlinkFrame        0000000180020b1c f   libvcruntime:risctrnsctrl.obj
 0001:0001fb70       _GetImageBase              0000000180020b70 f   libvcruntime:risctrnsctrl.obj
 0001:0001fb84       _GetThrowImageBase         0000000180020b84 f   libvcruntime:risctrnsctrl.obj
 0001:0001fb98       _SetImageBase              0000000180020b98 f   libvcruntime:risctrnsctrl.obj
 0001:0001fbb0       _SetThrowImageBase         0000000180020bb0 f   libvcruntime:risctrnsctrl.obj
 0001:0001fbc8       __CxxFrameHandler3         0000000180020bc8 f   libvcruntime:risctrnsctrl.obj
 0001:0001fc60       memcpy_repmovs             0000000180020c60 f   libvcruntime:memcpy.obj
 0001:0001fc80       memcpy                     0000000180020c80 f   libvcruntime:memcpy.obj
 0001:0001fc80       memmove                    0000000180020c80 f   libvcruntime:memcpy.obj
 0001:000200d0       memset_repmovs             00000001800210d0 f   libvcruntime:memset.obj
 0001:000200f0       memset                     00000001800210f0 f   libvcruntime:memset.obj
 0001:00020280       __DestructExceptionObject  0000000180021280 f   libvcruntime:ehhelpers.obj
 0001:000202f4       ?_CallMemberFunction0@@YAXQEAX0@Z 00000001800212f4 f i libvcruntime:ehhelpers.obj
 0001:000202f8       _IsExceptionObjectToBeDestroyed 00000001800212f8 f   libvcruntime:ehhelpers.obj
 0001:00020328       __AdjustPointer            0000000180021328 f   libvcruntime:ehhelpers.obj
 0001:0002034c       __FrameUnwindFilter        000000018002134c f   libvcruntime:ehhelpers.obj
 0001:00020398       __std_terminate            0000000180021398 f   libvcruntime:ehhelpers.obj
 0001:000203c0       memchr                     00000001800213c0 f   libvcruntime:memchr.obj
 0001:00020440       memcmp                     0000000180021440 f   libvcruntime:memcmp.obj
 0001:00020508       __vcrt_initialize          0000000180021508 f   libvcruntime:initialization.obj
 0001:0002053c       __vcrt_thread_attach       000000018002153c f   libvcruntime:initialization.obj
 0001:00020550       __vcrt_thread_detach       0000000180021550 f   libvcruntime:initialization.obj
 0001:00020564       __vcrt_uninitialize        0000000180021564 f   libvcruntime:initialization.obj
 0001:00020584       __vcrt_uninitialize_critical 0000000180021584 f   libvcruntime:initialization.obj
 0001:00020594       __C_specific_handler       0000000180021594 f   libvcruntime:riscchandler.obj
 0001:000207a0       __std_type_info_compare    00000001800217a0 f   libvcruntime:std_type_info.obj
 0001:000207c8       __std_type_info_destroy_list 00000001800217c8 f   libvcruntime:std_type_info.obj
 0001:000207f4       __vcrt_initialize_pure_virtual_call_handler 00000001800217f4 f   libvcruntime:purevirt_data.obj
 0001:00020804       __vcrt_freefls             0000000180021804 f   libvcruntime:per_thread_data.obj
 0001:00020824       __vcrt_freeptd             0000000180021824 f   libvcruntime:per_thread_data.obj
 0001:00020874       __vcrt_getptd              0000000180021874 f   libvcruntime:per_thread_data.obj
 0001:00020890       __vcrt_getptd_noexit       0000000180021890 f   libvcruntime:per_thread_data.obj
 0001:0002095c       __vcrt_initialize_ptd      000000018002195c f   libvcruntime:per_thread_data.obj
 0001:000209b0       __vcrt_uninitialize_ptd    00000001800219b0 f   libvcruntime:per_thread_data.obj
 0001:000209d4       ?GetCurrentState@__FrameHandler3@@SAHPEA_KPEAU_xDISPATCHER_CONTEXT@@PEBU_s_FuncInfo@@@Z 00000001800219d4 f   libvcruntime:ehstate.obj
 0001:000209fc       ?GetUnwindTryBlock@__FrameHandler3@@SAHPEA_KPEAU_xDISPATCHER_CONTEXT@@PEBU_s_FuncInfo@@@Z 00000001800219fc f   libvcruntime:ehstate.obj
 0001:00020a28       ?SetState@__FrameHandler3@@SAXPEA_KPEBU_s_FuncInfo@@H@Z 0000000180021a28 f   libvcruntime:ehstate.obj
 0001:00020a34       ?SetUnwindTryBlock@__FrameHandler3@@SAXPEA_KPEAU_xDISPATCHER_CONTEXT@@PEBU_s_FuncInfo@@H@Z 0000000180021a34 f   libvcruntime:ehstate.obj
 0001:00020a70       ?StateFromControlPc@__FrameHandler3@@SAHPEBU_s_FuncInfo@@PEAU_xDISPATCHER_CONTEXT@@@Z 0000000180021a70 f   libvcruntime:ehstate.obj
 0001:00020a78       ?StateFromIp@__FrameHandler3@@SAHPEBU_s_FuncInfo@@PEAU_xDISPATCHER_CONTEXT@@_K@Z 0000000180021a78 f   libvcruntime:ehstate.obj
 0001:00021504       ??$TypeMatchHelper@$$CBU_s_HandlerType@@@@YAHPEBU_s_HandlerType@@PEBU_s_CatchableType@@PEBU_s_ThrowInfo@@@Z 0000000180022504 f i libvcruntime:frame.obj
 0001:00021648       ??$__InternalCxxFrameHandler@V__FrameHandler3@@@@YA?AW4_EXCEPTION_DISPOSITION@@PEAUEHExceptionRecord@@PEA_KPEAU_CONTEXT@@PEAU_xDISPATCHER_CONTEXT@@PEBU_s_FuncInfo@@H1E@Z 0000000180022648 f i libvcruntime:frame.obj
 0001:00021890       ??0bad_exception@std@@QEAA@AEBV01@@Z 0000000180022890 f i libvcruntime:frame.obj
 0001:000218d0       ??0bad_exception@std@@QEAA@XZ 00000001800228d0 f i libvcruntime:frame.obj
 0001:000218f0       ?CxxCallCatchBlock@__FrameHandler3@@SAPEAXPEAU_EXCEPTION_RECORD@@@Z 00000001800228f0 f   libvcruntime:frame.obj
 0001:00021b64       ?FrameUnwindToState@__FrameHandler3@@SAXPEA_KPEAU_xDISPATCHER_CONTEXT@@PEBU_s_FuncInfo@@H@Z 0000000180022b64 f   libvcruntime:frame.obj
 0001:00021cf8       ?GetHandlerSearchState@__FrameHandler3@@SAHPEA_KPEAU_xDISPATCHER_CONTEXT@@PEBU_s_FuncInfo@@@Z 0000000180022cf8 f i libvcruntime:frame.obj
 0001:00021efc       ?_CallMemberFunction1@@YAXQEAX00@Z 0000000180022efc f i libvcruntime:frame.obj
 0001:00021f08       ?_CallMemberFunction2@@YAXQEAX00H@Z 0000000180022f08 f i libvcruntime:frame.obj
 0001:00021f18       __vcrt_initialize_locks    0000000180022f18 f   libvcruntime:locks.obj
 0001:00021f60       __vcrt_uninitialize_locks  0000000180022f60 f   libvcruntime:locks.obj
 0001:00022170       __vcrt_FlsAlloc            0000000180023170 f   libvcruntime:winapi_downlevel.obj
 0001:000221b8       __vcrt_FlsFree             00000001800231b8 f   libvcruntime:winapi_downlevel.obj
 0001:00022200       __vcrt_FlsGetValue         0000000180023200 f   libvcruntime:winapi_downlevel.obj
 0001:00022248       __vcrt_FlsSetValue         0000000180023248 f   libvcruntime:winapi_downlevel.obj
 0001:0002229c       __vcrt_InitializeCriticalSectionEx 000000018002329c f   libvcruntime:winapi_downlevel.obj
 0001:00022300       __vcrt_initialize_winapi_thunks 0000000180023300 f   libvcruntime:winapi_downlevel.obj
 0001:00022330       __vcrt_uninitialize_winapi_thunks 0000000180023330 f   libvcruntime:winapi_downlevel.obj
 0001:00022380       _NLG_Notify                0000000180023380 f   libvcruntime:notify.obj
 0001:000223a0       __NLG_Dispatch2            00000001800233a0 f   libvcruntime:notify.obj
 0001:000223b0       __NLG_Return2              00000001800233b0 f   libvcruntime:notify.obj
 0001:000223b4       __except_validate_context_record 00000001800233b4 f   libvcruntime:jbcxrval.obj
 0001:00022400       _CallSettingFrame          0000000180023400 f   libvcruntime:handlers.obj
 0001:00022450       _CallSettingFrameEncoded   0000000180023450 f   libvcruntime:handlers.obj
 0001:00022bb0       ??$ftprintf@PEAU_iobuf@@PEB_WAEBQEB_WAEBQEB_WAEBI@?$__crt_char_traits@_W@@SAH$$QEAPEAU_iobuf@@$$QEAPEB_WAEBQEB_W2AEBI@Z 0000000180023bb0 f i libucrt:assert.obj
 0001:00022bd8       _wassert                   0000000180023bd8 f   libucrt:assert.obj
 0001:00022c4c       fwprintf                   0000000180023c4c f i libucrt:assert.obj
 0001:00022c90       swprintf                   0000000180023c90 f i libucrt:assert.obj
 0001:00022ce4       __acrt_call_reportfault    0000000180023ce4 f   libucrt:invalid_parameter.obj
 0001:00022e40       __acrt_initialize_invalid_parameter_handler 0000000180023e40 f   libucrt:invalid_parameter.obj
 0001:00022e48       _invalid_parameter         0000000180023e48 f   libucrt:invalid_parameter.obj
 0001:00022ef8       _invalid_parameter_noinfo  0000000180023ef8 f   libucrt:invalid_parameter.obj
 0001:00022f18       _invalid_parameter_noinfo_noreturn 0000000180023f18 f   libucrt:invalid_parameter.obj
 0001:00022f48       _invoke_watson             0000000180023f48 f   libucrt:invalid_parameter.obj
 0001:00022f90       rand                       0000000180023f90 f   libucrt:rand.obj
 0001:00022fbc       malloc                     0000000180023fbc f   libucrt:malloc.obj
 0001:00022fc4       abort                      0000000180023fc4 f   libucrt:abort.obj
 0001:0002301c       free                       000000018002401c f   libucrt:free.obj
 0001:00023030       calloc                     0000000180024030 f   libucrt:calloc.obj
 0001:0002324c       ??$ensure_buffer_is_big_enough@D@formatting_buffer@__crt_stdio_output@@QEAA_N_K@Z 000000018002424c f i libucrt:output.obj
 0001:000232f4       ??$ensure_buffer_is_big_enough@_W@formatting_buffer@__crt_stdio_output@@QEAA_N_K@Z 00000001800242f4 f i libucrt:output.obj
 0001:000233a0       ??$is_wide_character_specifier@_W@__crt_stdio_output@@YA_N_K_WW4length_modifier@0@@Z 00000001800243a0 f i libucrt:output.obj
 0001:000233e0       ??$type_case_integer_parse_into_buffer@I@?$output_processor@_WV?$string_output_adapter@_W@__crt_stdio_output@@V?$standard_base@_WV?$string_output_adapter@_W@__crt_stdio_output@@@2@@__crt_stdio_output@@AEAAXII_N@Z 00000001800243e0 f i libucrt:output.obj
 0001:000233e0       ??$type_case_integer_parse_into_buffer@I@?$output_processor@_WV?$stream_output_adapter@_W@__crt_stdio_output@@V?$standard_base@_WV?$stream_output_adapter@_W@__crt_stdio_output@@@2@@__crt_stdio_output@@AEAAXII_N@Z 00000001800243e0 f i libucrt:output.obj
 0001:00023484       ??$type_case_integer_parse_into_buffer@_K@?$output_processor@_WV?$string_output_adapter@_W@__crt_stdio_output@@V?$standard_base@_WV?$string_output_adapter@_W@__crt_stdio_output@@@2@@__crt_stdio_output@@AEAAX_KI_N@Z 0000000180024484 f i libucrt:output.obj
 0001:00023484       ??$type_case_integer_parse_into_buffer@_K@?$output_processor@_WV?$stream_output_adapter@_W@__crt_stdio_output@@V?$standard_base@_WV?$stream_output_adapter@_W@__crt_stdio_output@@@2@@__crt_stdio_output@@AEAAX_KI_N@Z 0000000180024484 f i libucrt:output.obj
 0001:00023528       ??$write_multiple_characters@V?$stream_output_adapter@_W@__crt_stdio_output@@D@__crt_stdio_output@@YAXAEBV?$stream_output_adapter@_W@0@DHQEAH@Z 0000000180024528 f i libucrt:output.obj
 0001:000235bc       ??$write_multiple_characters@V?$string_output_adapter@_W@__crt_stdio_output@@D@__crt_stdio_output@@YAXAEBV?$string_output_adapter@_W@0@DHQEAH@Z 00000001800245bc f i libucrt:output.obj
 0001:00023638       ??0_LocaleUpdate@@QEAA@QEAU__crt_locale_pointers@@@Z 0000000180024638 f i libucrt:output.obj
 0001:000236d4       ??1_LocaleUpdate@@QEAA@XZ  00000001800246d4 f i libucrt:output.obj
 0001:0002381c       ?crop_zeroes@__crt_stdio_output@@YAXPEADQEAU__crt_locale_pointers@@@Z 000000018002481c f i libucrt:output.obj
 0001:00023888       ?force_decimal_point@__crt_stdio_output@@YAXPEADQEAU__crt_locale_pointers@@@Z 0000000180024888 f i libucrt:output.obj
 0001:000238f8       ?parse_int_from_format_string@?$output_processor@_WV?$stream_output_adapter@_W@__crt_stdio_output@@V?$standard_base@_WV?$stream_output_adapter@_W@__crt_stdio_output@@@2@@__crt_stdio_output@@AEAA_NQEAH@Z 00000001800248f8 f i libucrt:output.obj
 0001:000238f8       ?parse_int_from_format_string@?$output_processor@_WV?$string_output_adapter@_W@__crt_stdio_output@@V?$standard_base@_WV?$string_output_adapter@_W@__crt_stdio_output@@@2@@__crt_stdio_output@@AEAA_NQEAH@Z 00000001800248f8 f i libucrt:output.obj
 0001:0002399c       ?process@?$output_processor@_WV?$stream_output_adapter@_W@__crt_stdio_output@@V?$standard_base@_WV?$stream_output_adapter@_W@__crt_stdio_output@@@2@@__crt_stdio_output@@QEAAHXZ 000000018002499c f i libucrt:output.obj
 0001:00023c08       ?process@?$output_processor@_WV?$string_output_adapter@_W@__crt_stdio_output@@V?$standard_base@_WV?$string_output_adapter@_W@__crt_stdio_output@@@2@@__crt_stdio_output@@QEAAHXZ 0000000180024c08 f i libucrt:output.obj
 0001:00023e84       ?state_case_size@?$output_processor@_WV?$stream_output_adapter@_W@__crt_stdio_output@@V?$standard_base@_WV?$stream_output_adapter@_W@__crt_stdio_output@@@2@@__crt_stdio_output@@AEAA_NXZ 0000000180024e84 f i libucrt:output.obj
 0001:0002401c       ?state_case_size@?$output_processor@_WV?$string_output_adapter@_W@__crt_stdio_output@@V?$standard_base@_WV?$string_output_adapter@_W@__crt_stdio_output@@@2@@__crt_stdio_output@@AEAA_NXZ 000000018002501c f i libucrt:output.obj
 0001:000241b4       ?state_case_type@?$output_processor@_WV?$stream_output_adapter@_W@__crt_stdio_output@@V?$standard_base@_WV?$stream_output_adapter@_W@__crt_stdio_output@@@2@@__crt_stdio_output@@AEAA_NXZ 00000001800251b4 f i libucrt:output.obj
 0001:00024494       ?state_case_type@?$output_processor@_WV?$string_output_adapter@_W@__crt_stdio_output@@V?$standard_base@_WV?$string_output_adapter@_W@__crt_stdio_output@@@2@@__crt_stdio_output@@AEAA_NXZ 0000000180025494 f i libucrt:output.obj
 0001:00024760       ?type_case_Z@?$output_processor@_WV?$string_output_adapter@_W@__crt_stdio_output@@V?$standard_base@_WV?$string_output_adapter@_W@__crt_stdio_output@@@2@@__crt_stdio_output@@AEAA_NXZ 0000000180025760 f i libucrt:output.obj
 0001:00024760       ?type_case_Z@?$output_processor@_WV?$stream_output_adapter@_W@__crt_stdio_output@@V?$standard_base@_WV?$stream_output_adapter@_W@__crt_stdio_output@@@2@@__crt_stdio_output@@AEAA_NXZ 0000000180025760 f i libucrt:output.obj
 0001:000247dc       ?type_case_a@?$output_processor@_WV?$string_output_adapter@_W@__crt_stdio_output@@V?$standard_base@_WV?$string_output_adapter@_W@__crt_stdio_output@@@2@@__crt_stdio_output@@AEAA_NXZ 00000001800257dc f i libucrt:output.obj
 0001:000247dc       ?type_case_a@?$output_processor@_WV?$stream_output_adapter@_W@__crt_stdio_output@@V?$standard_base@_WV?$stream_output_adapter@_W@__crt_stdio_output@@@2@@__crt_stdio_output@@AEAA_NXZ 00000001800257dc f i libucrt:output.obj
 0001:000249bc       ?type_case_c_tchar@?$output_processor@_WV?$string_output_adapter@_W@__crt_stdio_output@@V?$standard_base@_WV?$string_output_adapter@_W@__crt_stdio_output@@@2@@__crt_stdio_output@@AEAA_N_W@Z 00000001800259bc f i libucrt:output.obj
 0001:000249bc       ?type_case_c_tchar@?$output_processor@_WV?$stream_output_adapter@_W@__crt_stdio_output@@V?$standard_base@_WV?$stream_output_adapter@_W@__crt_stdio_output@@@2@@__crt_stdio_output@@AEAA_N_W@Z 00000001800259bc f i libucrt:output.obj
 0001:00024a64       ?type_case_integer@?$output_processor@_WV?$string_output_adapter@_W@__crt_stdio_output@@V?$standard_base@_WV?$string_output_adapter@_W@__crt_stdio_output@@@2@@__crt_stdio_output@@AEAA_NI_N@Z 0000000180025a64 f i libucrt:output.obj
 0001:00024a64       ?type_case_integer@?$output_processor@_WV?$stream_output_adapter@_W@__crt_stdio_output@@V?$standard_base@_WV?$stream_output_adapter@_W@__crt_stdio_output@@@2@@__crt_stdio_output@@AEAA_NI_N@Z 0000000180025a64 f i libucrt:output.obj
 0001:00024c30       ?type_case_n@?$output_processor@_WV?$stream_output_adapter@_W@__crt_stdio_output@@V?$standard_base@_WV?$stream_output_adapter@_W@__crt_stdio_output@@@2@@__crt_stdio_output@@AEAA_NXZ 0000000180025c30 f i libucrt:output.obj
 0001:00024c30       ?type_case_n@?$output_processor@_WV?$string_output_adapter@_W@__crt_stdio_output@@V?$standard_base@_WV?$string_output_adapter@_W@__crt_stdio_output@@@2@@__crt_stdio_output@@AEAA_NXZ 0000000180025c30 f i libucrt:output.obj
 0001:00024d0c       ?type_case_s@?$output_processor@_WV?$stream_output_adapter@_W@__crt_stdio_output@@V?$standard_base@_WV?$stream_output_adapter@_W@__crt_stdio_output@@@2@@__crt_stdio_output@@AEAA_NXZ 0000000180025d0c f i libucrt:output.obj
 0001:00024d0c       ?type_case_s@?$output_processor@_WV?$string_output_adapter@_W@__crt_stdio_output@@V?$standard_base@_WV?$string_output_adapter@_W@__crt_stdio_output@@@2@@__crt_stdio_output@@AEAA_NXZ 0000000180025d0c f i libucrt:output.obj
 0001:00024dd4       ?write_stored_string_tchar@?$output_processor@_WV?$stream_output_adapter@_W@__crt_stdio_output@@V?$standard_base@_WV?$stream_output_adapter@_W@__crt_stdio_output@@@2@@__crt_stdio_output@@AEAA_N_W@Z 0000000180025dd4 f i libucrt:output.obj
 0001:00024edc       ?write_stored_string_tchar@?$output_processor@_WV?$string_output_adapter@_W@__crt_stdio_output@@V?$standard_base@_WV?$string_output_adapter@_W@__crt_stdio_output@@@2@@__crt_stdio_output@@AEAA_N_W@Z 0000000180025edc f i libucrt:output.obj
 0001:00024fc8       ?write_string@?$string_output_adapter@_W@__crt_stdio_output@@QEBAXQEB_WHQEAHAEAV__crt_deferred_errno_cache@@@Z 0000000180025fc8 f i libucrt:output.obj
 0001:00025070       ?write_string_impl@?$output_adapter_common@_WV?$stream_output_adapter@_W@__crt_stdio_output@@@__crt_stdio_output@@IEBAXQEB_WHQEAHAEAV__crt_deferred_errno_cache@@@Z 0000000180026070 f i libucrt:output.obj
 0001:00025174       __stdio_common_vfwprintf   0000000180026174 f   libucrt:output.obj
 0001:00025200       __stdio_common_vswprintf   0000000180026200 f   libucrt:output.obj
 0001:00025208       _sleep                     0000000180026208 f   libucrt:slbeep.obj
 0001:000252b4       _time64                    00000001800262b4 f   libucrt:time.obj
 0001:000252f4       __ascii_stricmp            00000001800262f4 f   libucrt:stricmp.obj
 0001:00025334       _stricmp                   0000000180026334 f   libucrt:stricmp.obj
 0001:0002537c       _stricmp_l                 000000018002637c f   libucrt:stricmp.obj
 0001:00025430       __acrt_initialize_locks    0000000180026430 f   libucrt:locks.obj
 0001:00025478       __acrt_lock                0000000180026478 f   libucrt:locks.obj
 0001:00025494       __acrt_uninitialize_locks  0000000180026494 f   libucrt:locks.obj
 0001:000254cc       __acrt_unlock              00000001800264cc f   libucrt:locks.obj
 0001:000254e8       _lock_locales              00000001800264e8 f   libucrt:locks.obj
 0001:00025504       _unlock_locales            0000000180026504 f   libucrt:locks.obj
 0001:00025514       terminate                  0000000180026514 f   libucrt:terminate.obj
 0001:00025814       setlocale                  0000000180026814 f   libucrt:setlocale.obj
 0001:00025860       __acrt_initialize_stdio    0000000180026860 f   libucrt:_file.obj
 0001:00025980       __acrt_iob_func            0000000180026980 f   libucrt:_file.obj
 0001:00025994       __acrt_uninitialize_stdio  0000000180026994 f   libucrt:_file.obj
 0001:000259f0       _get_stream_buffer_pointers 00000001800269f0 f   libucrt:_file.obj
 0001:00025a38       _lock_file                 0000000180026a38 f   libucrt:_file.obj
 0001:00025a44       _unlock_file               0000000180026a44 f   libucrt:_file.obj
 0001:00025a50       _fclose_nolock             0000000180026a50 f   libucrt:fclose.obj
 0001:00025ad4       fclose                     0000000180026ad4 f   libucrt:fclose.obj
 0001:00025d54       __acrt_stdio_flush_nolock  0000000180026d54 f   libucrt:fflush.obj
 0001:00025dd0       _fflush_nolock             0000000180026dd0 f   libucrt:fflush.obj
 0001:00025e1c       _flushall                  0000000180026e1c f   libucrt:fflush.obj
 0001:00025e24       fflush                     0000000180026e24 f   libucrt:fflush.obj
 0001:00025e8c       _fgetc_nolock              0000000180026e8c f   libucrt:fgetc.obj
 0001:00025ed0       fgetc                      0000000180026ed0 f   libucrt:fgetc.obj
 0001:00025fd8       fgetpos                    0000000180026fd8 f   libucrt:fgetpos.obj
 0001:00026024       _fputc_nolock              0000000180027024 f   libucrt:fputc.obj
 0001:0002603c       fputc                      000000018002703c f   libucrt:fputc.obj
 0001:00026160       _fread_nolock_s            0000000180027160 f   libucrt:fread.obj
 0001:000263f0       fread                      00000001800273f0 f   libucrt:fread.obj
 0001:00026410       fread_s                    0000000180027410 f   libucrt:fread.obj
 0001:000264b8       fsetpos                    00000001800274b8 f   libucrt:fsetpos.obj
 0001:000266f8       _fseeki64                  00000001800276f8 f   libucrt:fseek.obj
 0001:000267a4       _fwrite_nolock             00000001800277a4 f   libucrt:fwrite.obj
 0001:00026950       fwrite                     0000000180027950 f   libucrt:fwrite.obj
 0001:00026af4       setvbuf                    0000000180027af4 f   libucrt:setvbuf.obj
 0001:00026b90       _ungetc_nolock             0000000180027b90 f   libucrt:ungetc.obj
 0001:00026cb8       ungetc                     0000000180027cb8 f   libucrt:ungetc.obj
 0001:00026d10       __pctype_func              0000000180027d10 f   libucrt:ctype.obj
 0001:00026d40       isdigit                    0000000180027d40 f i libucrt:_ctype.obj
 0001:00026dd4       islower                    0000000180027dd4 f i libucrt:_ctype.obj
 0001:00026e68       isupper                    0000000180027e68 f i libucrt:_ctype.obj
 0001:00026efc       _wcsdup                    0000000180027efc f   libucrt:wcsdup.obj
 0001:00026f80       ___lc_codepage_func        0000000180027f80 f   libucrt:initctype.obj
 0001:00026fb0       ___lc_locale_name_func     0000000180027fb0 f   libucrt:initctype.obj
 0001:00026fe4       __acrt_locale_initialize_ctype 0000000180027fe4 f   libucrt:initctype.obj
 0001:00027634       __acrt_errno_from_os_error 0000000180028634 f   libucrt:errno.obj
 0001:0002767c       __acrt_errno_map_os_error  000000018002867c f   libucrt:errno.obj
 0001:000276cc       __doserrno                 00000001800286cc f   libucrt:errno.obj
 0001:000276ec       _errno                     00000001800286ec f   libucrt:errno.obj
 0001:00027710       ?divide@__crt_strtox@@YA_KAEAUbig_integer@1@AEBU21@@Z 0000000180028710 f i libucrt:strtod.obj
 0001:00027bd0       pow                        0000000180028bd0 f   libucrt:pow.obj
 0001:00029270       powf                       000000018002a270 f   libucrt:powf.obj
 0001:0002a138       __strncnt                  000000018002b138 f   libucrt:strncnt.obj
 0001:0002a150       ??$__acrt_mbs_to_wcs_cp@U__crt_win32_buffer_internal_dynamic_resizing@@@@YAHQEBDAEAV?$__crt_win32_buffer@_WU__crt_win32_buffer_internal_dynamic_resizing@@@@I@Z 000000018002b150 f i libucrt:strftime.obj
 0001:0002a2c8       ??$__acrt_wcs_to_mbs_cp@U__crt_win32_buffer_no_resizing@@@@YAHQEB_WAEAV?$__crt_win32_buffer@DU__crt_win32_buffer_no_resizing@@@@I@Z 000000018002b2c8 f i libucrt:strftime.obj
 0001:0002a43c       _tolower_l                 000000018002b43c f   libucrt:tolower_toupper.obj
 0001:0002a57c       tolower                    000000018002b57c f   libucrt:tolower_toupper.obj
 0001:0002a5a8       wcscpy_s                   000000018002b5a8 f   libucrt:wcscpy_s.obj
 0001:0002a610       wcsnlen                    000000018002b610 f   libucrt:strnlen.obj
 0001:0002a7e8       __acrt_initialize_new_handler 000000018002b7e8 f   libucrt:new_handler.obj
 0001:0002a7f0       _callnewh                  000000018002b7f0 f   libucrt:new_handler.obj
 0001:0002a820       _query_new_handler         000000018002b820 f   libucrt:new_handler.obj
 0001:0002a854       _seh_filter_dll            000000018002b854 f   libucrt:exception_filter.obj
 0001:0002a868       _seh_filter_exe            000000018002b868 f   libucrt:exception_filter.obj
 0001:0002ac58       __acrt_initialize_thread_local_exit_callback 000000018002bc58 f   libucrt:exit.obj
 0001:0002ac60       _cexit                     000000018002bc60 f   libucrt:exit.obj
 0001:0002ac70       _exit                      000000018002bc70 f   libucrt:exit.obj
 0001:0002ac7c       _is_c_termination_complete 000000018002bc7c f   libucrt:exit.obj
 0001:0002ae48       __acrt_allocate_buffer_for_argv 000000018002be48 f   libucrt:argv_parsing.obj
 0001:0002aea8       _configure_narrow_argv     000000018002bea8 f   libucrt:argv_parsing.obj
 0001:0002b220       __dcrt_uninitialize_environments_nolock 000000018002c220 f   libucrt:environment_initialization.obj
 0001:0002b258       _initialize_narrow_environment 000000018002c258 f   libucrt:environment_initialization.obj
 0001:0002b5a0       _crt_atexit                000000018002c5a0 f   libucrt:onexit.obj
 0001:0002b5b0       _execute_onexit_table      000000018002c5b0 f   libucrt:onexit.obj
 0001:0002b5ec       _initialize_onexit_table   000000018002c5ec f   libucrt:onexit.obj
 0001:0002b614       _register_onexit_function  000000018002c614 f   libucrt:onexit.obj
 0001:0002b788       __acrt_initialize          000000018002c788 f   libucrt:initialization.obj
 0001:0002b79c       __acrt_thread_attach       000000018002c79c f   libucrt:initialization.obj
 0001:0002b7b0       __acrt_thread_detach       000000018002c7b0 f   libucrt:initialization.obj
 0001:0002b7c0       __acrt_uninitialize        000000018002c7c0 f   libucrt:initialization.obj
 0001:0002b7f8       __acrt_uninitialize_critical 000000018002c7f8 f   libucrt:initialization.obj
 0001:0002b808       _initterm                  000000018002c808 f   libucrt:initterm.obj
 0001:0002b86c       _initterm_e                000000018002c86c f   libucrt:initterm.obj
 0001:0002b8ac       strcpy_s                   000000018002c8ac f   libucrt:strcpy_s.obj
 0001:0002b90c       wcsncmp                    000000018002c90c f   libucrt:wcsncmp.obj
 0001:0002b938       ??$parse_integer@KV?$c_string_character_source@_W@__crt_strtox@@@__crt_strtox@@YAKQEAU__crt_locale_pointers@@V?$c_string_character_source@_W@0@H_N@Z 000000018002c938 f i libucrt:atox.obj
 0001:0002bfec       _wtol                      000000018002cfec f   libucrt:atox.obj
 0001:0002c030       strncmp                    000000018002d030 f   libucrt:strncmp.obj
 0001:0002c0b0       _query_app_type            000000018002d0b0 f   libucrt:report_runtime_error.obj
 0001:0002c1f8       _itow_s                    000000018002d1f8 f   libucrt:xtoa.obj
 0001:0002c218       _set_error_mode            000000018002d218 f   libucrt:set_error_mode.obj
 0001:0002c258       wcscat_s                   000000018002d258 f   libucrt:wcscat_s.obj
 0001:0002c2d8       wcsncat_s                  000000018002d2d8 f   libucrt:wcsncat_s.obj
 0001:0002c3d8       __acrt_GetModuleFileNameA  000000018002d3d8 f   libucrt:getmodulefilenamea.obj
 0001:0002c4f8       __acrt_show_wide_message_box 000000018002d4f8 f   libucrt:crtmbox.obj
 0001:0002c5e4       __acrt_get_sigabrt_handler 000000018002d5e4 f   libucrt:signal.obj
 0001:0002c614       __acrt_initialize_signal_handlers 000000018002d614 f   libucrt:signal.obj
 0001:0002c634       raise                      000000018002d634 f   libucrt:signal.obj
 0001:0002cc18       __acrt_freeptd             000000018002dc18 f   libucrt:per_thread_data.obj
 0001:0002cc5c       __acrt_getptd              000000018002dc5c f   libucrt:per_thread_data.obj
 0001:0002cd30       __acrt_getptd_head         000000018002dd30 f   libucrt:per_thread_data.obj
 0001:0002cdd8       __acrt_getptd_noexit       000000018002ddd8 f   libucrt:per_thread_data.obj
 0001:0002cea4       __acrt_initialize_ptd      000000018002dea4 f   libucrt:per_thread_data.obj
 0001:0002cee0       __acrt_uninitialize_ptd    000000018002dee0 f   libucrt:per_thread_data.obj
 0001:0002cf04       _malloc_base               000000018002df04 f   libucrt:malloc_base.obj
 0001:0002cf64       _free_base                 000000018002df64 f   libucrt:free_base.obj
 0001:0002cfa4       _calloc_base               000000018002dfa4 f   libucrt:calloc_base.obj
 0001:0002d01c       wcstol                     000000018002e01c f   libucrt:strtox.obj
 0001:0002d048       _mbtowc_l                  000000018002e048 f   libucrt:mbtowc.obj
 0001:0002d1c4       mbtowc                     000000018002e1c4 f   libucrt:mbtowc.obj
 0001:0002d1cc       _wctomb_s_l                000000018002e1cc f   libucrt:wctomb.obj
 0001:0002d36c       wctomb_s                   000000018002e36c f   libucrt:wctomb.obj
 0001:0002d380       __acrt_update_locale_info  000000018002e380 f   libucrt:locale_update.obj
 0001:0002d3b4       __acrt_update_multibyte_info 000000018002e3b4 f   libucrt:locale_update.obj
 0001:0002ddbc       __acrt_fp_format           000000018002edbc f   libucrt:cvt.obj
 0001:0002e044       _fputwc_nolock             000000018002f044 f   libucrt:fputwc.obj
 0001:0002e1c0       _fileno                    000000018002f1c0 f   libucrt:fileno.obj
 0001:0002e1e8       _get_printf_count_output   000000018002f1e8 f   libucrt:printf_count_output.obj
 0001:0002e200       __acrt_stdio_begin_temporary_buffering_nolock 000000018002f200 f   libucrt:_sftbuf.obj
 0001:0002e2d0       __acrt_stdio_end_temporary_buffering_nolock 000000018002f2d0 f   libucrt:_sftbuf.obj
 0001:0002e574       __acrt_copy_locale_name    000000018002f574 f   libucrt:wsetlocale.obj
 0001:0002e5f8       __acrt_set_locale_changed  000000018002f5f8 f   libucrt:wsetlocale.obj
 0001:0002e604       __acrt_uninitialize_locale 000000018002f604 f   libucrt:wsetlocale.obj
 0001:0002e634       __lc_lctowcs               000000018002f634 f   libucrt:wsetlocale.obj
 0001:0002e6d8       __lc_wcstolc               000000018002f6d8 f   libucrt:wsetlocale.obj
 0001:0002e914       _expandlocale              000000018002f914 f   libucrt:wsetlocale.obj
 0001:0002ecf8       _wcscats                   000000018002fcf8 f   libucrt:wsetlocale.obj
 0001:0002ed60       _wsetlocale                000000018002fd60 f   libucrt:wsetlocale.obj
 0001:0002f7d4       __acrt_initialize_lowio    00000001800307d4 f   libucrt:ioinit.obj
 0001:0002f810       __acrt_uninitialize_lowio  0000000180030810 f   libucrt:ioinit.obj
 0001:0002f850       _raise_exc                 0000000180030850 f   libucrt:fpexcept.obj
 0001:0002f878       _raise_exc_ex              0000000180030878 f   libucrt:fpexcept.obj
 0001:0002fb88       _raise_excf                0000000180030b88 f   libucrt:fpexcept.obj
 0001:0002fbb4       _set_errno_from_matherr    0000000180030bb4 f   libucrt:fpexcept.obj
 0001:0002fbe4       _clrfp                     0000000180030be4 f   libucrt:fpctrl.obj
 0001:0002fc04       _ctrlfp                    0000000180030c04 f   libucrt:fpctrl.obj
 0001:0002fc80       _set_statfp                0000000180030c80 f   libucrt:fpctrl.obj
 0001:0002fca0       _statfp                    0000000180030ca0 f   libucrt:fpctrl.obj
 0001:0002ff30       __acrt_AppPolicyGetProcessTerminationMethodInternal 0000000180030f30 f   libucrt:winapi_thunks.obj
 0001:0002ff80       __acrt_AppPolicyGetShowDeveloperDiagnosticInternal 0000000180030f80 f   libucrt:winapi_thunks.obj
 0001:0002ffd0       __acrt_AppPolicyGetWindowingModelInternal 0000000180030fd0 f   libucrt:winapi_thunks.obj
 0001:00030020       __acrt_AreFileApisANSI     0000000180031020 f   libucrt:winapi_thunks.obj
 0001:0003005c       __acrt_EnumSystemLocalesEx 000000018003105c f   libucrt:winapi_thunks.obj
 0001:000300f4       __acrt_FlsAlloc            00000001800310f4 f   libucrt:winapi_thunks.obj
 0001:0003013c       __acrt_FlsFree             000000018003113c f   libucrt:winapi_thunks.obj
 0001:00030184       __acrt_FlsGetValue         0000000180031184 f   libucrt:winapi_thunks.obj
 0001:000301cc       __acrt_FlsSetValue         00000001800311cc f   libucrt:winapi_thunks.obj
 0001:00030220       __acrt_GetLocaleInfoEx     0000000180031220 f   libucrt:winapi_thunks.obj
 0001:000302a4       __acrt_GetSystemTimePreciseAsFileTime 00000001800312a4 f   libucrt:winapi_thunks.obj
 0001:000302ec       __acrt_GetUserDefaultLocaleName 00000001800312ec f   libucrt:winapi_thunks.obj
 0001:00030350       __acrt_InitializeCriticalSectionEx 0000000180031350 f   libucrt:winapi_thunks.obj
 0001:000303b4       __acrt_IsValidLocaleName   00000001800313b4 f   libucrt:winapi_thunks.obj
 0001:0003040c       __acrt_LCIDToLocaleName    000000018003140c f   libucrt:winapi_thunks.obj
 0001:0003047c       __acrt_LCMapStringEx       000000018003147c f   libucrt:winapi_thunks.obj
 0001:00030558       __acrt_LocaleNameToLCID    0000000180031558 f   libucrt:winapi_thunks.obj
 0001:000305a8       __acrt_MessageBoxW         00000001800315a8 f   libucrt:winapi_thunks.obj
 0001:0003061c       __acrt_can_show_message_box 000000018003161c f   libucrt:winapi_thunks.obj
 0001:0003068c       __acrt_can_use_vista_locale_apis 000000018003168c f   libucrt:winapi_thunks.obj
 0001:000306bc       __acrt_eagerly_load_locale_apis 00000001800316bc f   libucrt:winapi_thunks.obj
 0001:00030818       __acrt_get_parent_window   0000000180031818 f   libucrt:winapi_thunks.obj
 0001:00030890       __acrt_initialize_winapi_thunks 0000000180031890 f   libucrt:winapi_thunks.obj
 0001:000308c4       __acrt_is_interactive      00000001800318c4 f   libucrt:winapi_thunks.obj
 0001:0003098c       __acrt_uninitialize_winapi_thunks 000000018003198c f   libucrt:winapi_thunks.obj
 0001:00030bd4       _mbstowcs_s_l              0000000180031bd4 f   libucrt:mbstowcs.obj
 0001:00030d08       mbstowcs_s                 0000000180031d08 f   libucrt:mbstowcs.obj
 0001:00031090       _wcstombs_s_l              0000000180032090 f   libucrt:wcstombs.obj
 0001:0003117c       _fcloseall                 000000018003217c f   libucrt:closeall.obj
 0001:00031230       __acrt_stdio_free_buffer_nolock 0000000180032230 f   libucrt:_freebuf.obj
 0001:000312e4       _close                     00000001800322e4 f   libucrt:close.obj
 0001:00031388       _close_nolock              0000000180032388 f   libucrt:close.obj
 0001:00031448       ?__acrt_stdio_free_stream@@YAXV__crt_stdio_stream@@@Z 0000000180032448 f   libucrt:stream.obj
 0001:000314f0       _commit                    00000001800324f0 f   libucrt:commit.obj
 0001:00031df0       _write                     0000000180032df0 f   libucrt:write.obj
 0001:00031edc       _write_nolock              0000000180032edc f   libucrt:write.obj
 0001:000321b8       __acrt_stdio_refill_and_read_narrow_nolock 00000001800331b8 f   libucrt:_filbuf.obj
 0001:000327f4       _ftelli64                  00000001800337f4 f   libucrt:ftell.obj
 0001:000327fc       _ftelli64_nolock           00000001800337fc f   libucrt:ftell.obj
 0001:00032a48       __acrt_stdio_flush_and_write_narrow_nolock 0000000180033a48 f   libucrt:_flsbuf.obj
 0001:00032b34       __acrt_stdio_flush_and_write_wide_nolock 0000000180033b34 f   libucrt:_flsbuf.obj
 0001:000331f4       _read                      00000001800341f4 f   libucrt:read.obj
 0001:00033310       _read_nolock               0000000180034310 f   libucrt:read.obj
 0001:000338f4       _lseeki64                  00000001800348f4 f   libucrt:lseek.obj
 0001:000338fc       _lseeki64_nolock           00000001800348fc f   libucrt:lseek.obj
 0001:00033904       __acrt_stdio_allocate_buffer_nolock 0000000180034904 f   libucrt:_getbuf.obj
 0001:0003396c       _isctype_l                 000000018003496c f   libucrt:isctype.obj
 0001:00033bf8       __acrt_GetLocaleInfoA      0000000180034bf8 f   libucrt:getlocaleinfoa.obj
 0001:00033dc0       __acrt_GetStringTypeA      0000000180034dc0 f   libucrt:getstringtypea.obj
 0001:00034268       __acrt_LCMapStringA        0000000180035268 f   libucrt:lcmapstringa.obj
 0001:00034300       _realloc_base              0000000180035300 f   libucrt:realloc_base.obj
 0001:0003437c       iswctype                   000000018003537c f   libucrt:iswctype.obj
 0001:000343f0       __acrt_initialize_fma3     00000001800353f0 f   libucrt:fma3_available.obj
 0001:00034460       _pow_special               0000000180035460 f   libucrt:pow_special.obj
 0001:00034584       _powf_special              0000000180035584 f   libucrt:pow_special.obj
 0001:00034710       __acrt_MultiByteToWideChar 0000000180035710 f   libucrt:multibytetowidechar.obj
 0001:0003476c       __acrt_WideCharToMultiByte 000000018003576c f   libucrt:widechartomultibyte.obj
 0001:00034804       _wcsicmp                   0000000180035804 f   libucrt:wcsicmp.obj
 0001:0003489c       _wcsicmp_l                 000000018003589c f   libucrt:wcsicmp.obj
 0001:0003499c       __acrt_initialize_timeset  000000018003599c f   libucrt:timeset.obj
 0001:000349e0       _isleadbyte_l              00000001800359e0 f i libucrt:_wctype.obj
 0001:00034a2c       __acrt_get_developer_information_policy 0000000180035a2c f   libucrt:win_policies.obj
 0001:00034a80       __acrt_get_process_end_policy 0000000180035a80 f   libucrt:win_policies.obj
 0001:00034abc       __acrt_get_windowing_model_policy 0000000180035abc f   libucrt:win_policies.obj
 0001:00034b3c       ??$__acrt_wcs_to_mbs_cp@U__crt_win32_buffer_internal_dynamic_resizing@@@@YAHQEB_WAEAV?$__crt_win32_buffer@DU__crt_win32_buffer_internal_dynamic_resizing@@@@I@Z 0000000180035b3c f i libucrt:argv_wildcards.obj
 0001:0003536c       __acrt_expand_narrow_argv_wildcards 000000018003636c f   libucrt:argv_wildcards.obj
 0001:00035aa0       __acrt_initialize_multibyte 0000000180036aa0 f   libucrt:mbctype.obj
 0001:00035b00       __acrt_update_thread_multibyte_data 0000000180036b00 f   libucrt:mbctype.obj
 0001:00035b1c       _setmbcp_nolock            0000000180036b1c f   libucrt:mbctype.obj
 0001:00035e50       _ismbblead                 0000000180036e50 f   libucrt:ismbbyte.obj
 0001:00035e64       __acrt_initialize_command_line 0000000180036e64 f   libucrt:argv_data.obj
 0001:00035e8c       __dcrt_get_narrow_environment_from_os 0000000180036e8c f   libucrt:get_environment_from_os.obj
 0001:00035f90       _recalloc_base             0000000180036f90 f   libucrt:recalloc.obj
 0001:00036028       __acrt_initialize_heap     0000000180037028 f   libucrt:heap_handle.obj
 0001:00036044       __acrt_uninitialize_heap   0000000180037044 f   libucrt:heap_handle.obj
 0001:00036050       __acrt_execute_initializers 0000000180037050 f   libucrt:shared_initialization.obj
 0001:000360d0       __acrt_execute_uninitializers 00000001800370d0 f   libucrt:shared_initialization.obj
 0001:0003610c       __acrt_has_user_matherr    000000018003710c f   libucrt:matherr.obj
 0001:0003612c       __acrt_initialize_user_matherr 000000018003712c f   libucrt:matherr.obj
 0001:00036134       __acrt_invoke_user_matherr 0000000180037134 f   libucrt:matherr.obj
 0001:00036164       wcsncpy_s                  0000000180037164 f   libucrt:wcsncpy_s.obj
 0001:00036248       __acrt_add_locale_ref      0000000180037248 f   libucrt:locale_refcounting.obj
 0001:000362d4       __acrt_free_locale         00000001800372d4 f   libucrt:locale_refcounting.obj
 0001:0003644c       __acrt_locale_add_lc_time_reference 000000018003744c f   libucrt:locale_refcounting.obj
 0001:00036474       __acrt_locale_free_lc_time_if_unreferenced 0000000180037474 f   libucrt:locale_refcounting.obj
 0001:000364ac       __acrt_locale_release_lc_time_reference 00000001800374ac f   libucrt:locale_refcounting.obj
 0001:000364d4       __acrt_release_locale_ref  00000001800374d4 f   libucrt:locale_refcounting.obj
 0001:0003657c       __acrt_update_thread_locale_data 000000018003757c f   libucrt:locale_refcounting.obj
 0001:000365ec       _updatetlocinfoEx_nolock   00000001800375ec f   libucrt:locale_refcounting.obj
 0001:00036654       _query_new_mode            0000000180037654 f   libucrt:new_mode.obj
 0001:0003665c       ?__mbrtowc_utf8@__crt_mbstring@@YA_KPEA_WPEBD_KPEAU_Mbstatet@@@Z 000000018003765c f   libucrt:mbrtowc.obj
 0001:00036698       ?__mbsrtowcs_utf8@__crt_mbstring@@YA_KPEA_WPEAPEBD_KPEAU_Mbstatet@@@Z 0000000180037698 f   libucrt:mbrtowc.obj
 0001:00036810       ?__c32rtomb_utf8@__crt_mbstring@@YA_KPEAD_UPEAU_Mbstatet@@@Z 0000000180037810 f   libucrt:c32rtomb.obj
 0001:000368c8       c32rtomb                   00000001800378c8 f   libucrt:c32rtomb.obj
 0001:000368d0       __acrt_fp_strflt_to_string 00000001800378d0 f   libucrt:_fptostr.obj
 0001:000369b4       __acrt_fltout              00000001800379b4 f   libucrt:cfout.obj
 0001:00037be8       _isatty                    0000000180038be8 f   libucrt:isatty.obj
 0001:00037c48       __acrt_locale_free_monetary 0000000180038c48 f   libucrt:initmon.obj
 0001:00037d54       __acrt_locale_initialize_monetary 0000000180038d54 f   libucrt:initmon.obj
 0001:00038288       __acrt_locale_free_numeric 0000000180039288 f   libucrt:initnum.obj
 0001:000382f4       __acrt_locale_initialize_numeric 00000001800392f4 f   libucrt:initnum.obj
 0001:00038974       __acrt_locale_free_time    0000000180039974 f   libucrt:inittime.obj
 0001:00038a7c       __acrt_locale_initialize_time 0000000180039a7c f   libucrt:inittime.obj
 0001:00038b18       wcscspn                    0000000180039b18 f   libucrt:wcscspn.obj
 0001:00038b58       wcspbrk                    0000000180039b58 f   libucrt:wcspbrk.obj
 0001:00039340       __acrt_get_qualified_locale 000000018003a340 f   libucrt:get_qualified_locale.obj
 0001:00039d74       __acrt_get_qualified_locale_downlevel 000000018003ad74 f   libucrt:getqloc_downlevel.obj
 0001:00039ff4       __acrt_lowio_create_handle_array 000000018003aff4 f   libucrt:osfinfo.obj
 0001:0003a09c       __acrt_lowio_destroy_handle_array 000000018003b09c f   libucrt:osfinfo.obj
 0001:0003a0ec       __acrt_lowio_ensure_fh_exists 000000018003b0ec f   libucrt:osfinfo.obj
 0001:0003a194       __acrt_lowio_lock_fh       000000018003b194 f   libucrt:osfinfo.obj
 0001:0003a1bc       __acrt_lowio_unlock_fh     000000018003b1bc f   libucrt:osfinfo.obj
 0001:0003a1e4       _free_osfhnd               000000018003b1e4 f   libucrt:osfinfo.obj
 0001:0003a2a0       _get_osfhandle             000000018003b2a0 f   libucrt:osfinfo.obj
 0001:0003a330       _get_fpsr                  000000018003b330 f   libucrt:fpsr.obj
 0001:0003a340       _set_fpsr                  000000018003b340 f   libucrt:fpsr.obj
 0001:0003a34a       _fclrf                     000000018003b34a f   libucrt:fpsr.obj
 0001:0003a35e       _frnd                      000000018003b35e f   libucrt:fpsr.obj
 0001:0003a468       __acrt_DownlevelLCIDToLocaleName 000000018003b468 f   libucrt:lcidtoname_downlevel.obj
 0001:0003a55c       __acrt_DownlevelLocaleNameToLCID 000000018003b55c f   libucrt:lcidtoname_downlevel.obj
 0001:0003a590       ?__wcsrtombs_utf8@__crt_mbstring@@YA_KPEADPEAPEB_W_KPEAU_Mbstatet@@@Z 000000018003b590 f   libucrt:wcrtomb.obj
 0001:0003a6ac       _putwch_nolock             000000018003b6ac f   libucrt:putwch.obj
 0001:0003a6e8       strncpy_s                  000000018003b6e8 f   libucrt:strncpy_s.obj
 0001:0003a7bc       __acrt_GetStringTypeW      000000018003b7bc f   libucrt:getstringtypew.obj
 0001:0003a7c4       __acrt_fenv_get_control    000000018003b7c4 f   libucrt:_fenvutils.obj
 0001:0003a8b8       __acrt_fenv_get_status     000000018003b8b8 f   libucrt:_fenvutils.obj
 0001:0003a90c       __acrt_fenv_set_control    000000018003b90c f   libucrt:_fenvutils.obj
 0001:0003aa54       __acrt_fenv_set_status     000000018003ba54 f   libucrt:_fenvutils.obj
 0001:0003abfc       _handle_error              000000018003bbfc f   libucrt:libm_error.obj
 0001:0003ad24       _handle_errorf             000000018003bd24 f   libucrt:libm_error.obj
 0001:0003ae58       _handle_nan                000000018003be58 f   libucrt:libm_error.obj
 0001:0003ae74       _handle_nanf               000000018003be74 f   libucrt:libm_error.obj
 0001:0003ae84       _towlower_l                000000018003be84 f   libucrt:towlower.obj
 0001:0003af50       qsort                      000000018003bf50 f   libucrt:qsort.obj
 0001:0003b3b0       strpbrk                    000000018003c3b0 f   libucrt:strpbrk.obj
 0001:0003b790       _mbsdec                    000000018003c790 f   libucrt:mbsdec.obj
 0001:0003b798       _mbsdec_l                  000000018003c798 f   libucrt:mbsdec.obj
 0001:0003b844       _msize_base                000000018003c844 f   libucrt:msize.obj
 0001:0003b880       ?__mbrtoc32_utf8@__crt_mbstring@@YA_KPEA_UPEBD_KPEAU_Mbstatet@@@Z 000000018003c880 f   libucrt:mbrtoc32.obj
 0001:0003ba5c       fegetenv                   000000018003ca5c f   libucrt:fegetenv.obj
 0001:0003ba7c       fesetenv                   000000018003ca7c f   libucrt:fesetenv.obj
 0001:0003bacc       feholdexcept               000000018003cacc f   libucrt:feholdexcept.obj
 0001:0003bb1c       ceil                       000000018003cb1c f   libucrt:ceil.obj
 0001:0003bbe0       log10                      000000018003cbe0 f   libucrt:log10.obj
 0001:0003c18c       _wcsnicmp                  000000018003d18c f   libucrt:wcsnicmp.obj
 0001:0003c238       _wcsnicmp_l                000000018003d238 f   libucrt:wcsnicmp.obj
 0001:0003c360       wcscmp                     000000018003d360 f   libucrt:wcscmp.obj
 0001:0003c398       ?__c16rtomb_utf8@__crt_mbstring@@YA_KPEAD_SPEAU_Mbstatet@@@Z 000000018003d398 f   libucrt:c16rtomb.obj
 0001:0003c440       __dcrt_lowio_ensure_console_output_initialized 000000018003d440 f   libucrt:initcon.obj
 0001:0003c494       __dcrt_terminate_console_output 000000018003d494 f   libucrt:initcon.obj
 0001:0003c4b0       __dcrt_write_console       000000018003d4b0 f   libucrt:initcon.obj
 0001:0003c570       __acrt_LCMapStringW        000000018003d570 f   libucrt:lcmapstringw.obj
 0001:0003c5f8       _clearfp                   000000018003d5f8 f   libucrt:ieee.obj
 0001:0003c670       _log10_special             000000018003d670 f   libucrt:log_special.obj
 0001:0003c726       IsProcessorFeaturePresent  000000018003d726 f   kernel32:KERNEL32.dll
 0001:0003c72c       ?DloadAcquireSectionWriteAccess@@YAXXZ 000000018003d72c f i DelayImp:delayhlp.obj
 0001:0003c7d8       ?DloadGetSRWLockFunctionPointers@@YAEXZ 000000018003d7d8 f i DelayImp:delayhlp.obj
 0001:0003c874       ?DloadMakePermanentImageCommit@@YAXPEAX_K@Z 000000018003d874 f i DelayImp:delayhlp.obj
 0001:0003c90c       ?DloadObtainSection@@YAPEAXPEAK0@Z 000000018003d90c f i DelayImp:delayhlp.obj
 0001:0003c9a8       ?DloadProtectSection@@YAXKPEAK@Z 000000018003d9a8 f i DelayImp:delayhlp.obj
 0001:0003ca38       ?DloadReleaseSectionWriteAccess@@YAXXZ 000000018003da38 f i DelayImp:delayhlp.obj
 0001:0003cacc       __delayLoadHelper2         000000018003dacc f   DelayImp:delayhlp.obj
 0001:0003cd90       _FindPESection             000000018003dd90 f   LIBCMT:pesect.obj
 0001:0003cde0       _IsNonwritableInCurrentImage 000000018003dde0 f   LIBCMT:pesect.obj
 0001:0003ce30       _ValidateImageBase         000000018003de30 f   LIBCMT:pesect.obj
 0001:0003ce60       _local_unwind              000000018003de60 f   libvcruntime:jmpuwind.obj
 0001:0003ce8c       strrchr                    000000018003de8c f   libvcruntime:strrchr.obj
 0001:0003cfd8       wcschr                     000000018003dfd8 f   libvcruntime:wcschr.obj
 0001:0003d06c       ??0__non_rtti_object@std@@QEAA@AEBV01@@Z 000000018003e06c f i libvcruntime:rtti.obj
 0001:0003d0ac       ??0bad_typeid@std@@QEAA@AEBV01@@Z 000000018003e0ac f i libvcruntime:rtti.obj
 0001:0003d5d0       ?__construct_from_string_literal@__non_rtti_object@std@@SA?AV12@QEBD@Z 000000018003e5d0 f i libvcruntime:rtti.obj
 0001:0003d5e8       ?__construct_from_string_literal@bad_cast@std@@SA?AV12@QEBD@Z 000000018003e5e8 f i libvcruntime:rtti.obj
 0001:0003d600       __RTDynamicCast            000000018003e600 f   libvcruntime:rtti.obj
 0001:0003d780       _guard_dispatch_icall_nop  000000018003e780 f   LIBCMT:guard_dispatch.obj
 0002:00000000       __imp_GetModuleHandleW     000000018003f000     kernel32:KERNEL32.dll
 0002:00000008       __imp_LoadLibraryExA       000000018003f008     kernel32:KERNEL32.dll
 0002:00000010       __imp_VirtualQuery         000000018003f010     kernel32:KERNEL32.dll
 0002:00000018       __imp_VirtualProtect       000000018003f018     kernel32:KERNEL32.dll
 0002:00000020       __imp_GetSystemInfo        000000018003f020     kernel32:KERNEL32.dll
 0002:00000028       __imp_CreateFileW          000000018003f028     kernel32:KERNEL32.dll
 0002:00000030       __imp_HeapSize             000000018003f030     kernel32:KERNEL32.dll
 0002:00000038       __imp_SetStdHandle         000000018003f038     kernel32:KERNEL32.dll
 0002:00000040       __imp_GetProcessHeap       000000018003f040     kernel32:KERNEL32.dll
 0002:00000048       __imp_FreeEnvironmentStringsW 000000018003f048     kernel32:KERNEL32.dll
 0002:00000050       __imp_GetEnvironmentStringsW 000000018003f050     kernel32:KERNEL32.dll
 0002:00000058       __imp_GetCommandLineW      000000018003f058     kernel32:KERNEL32.dll
 0002:00000060       __imp_GetCommandLineA      000000018003f060     kernel32:KERNEL32.dll
 0002:00000068       __imp_GetOEMCP             000000018003f068     kernel32:KERNEL32.dll
 0002:00000070       __imp_GetACP               000000018003f070     kernel32:KERNEL32.dll
 0002:00000078       __imp_IsValidCodePage      000000018003f078     kernel32:KERNEL32.dll
 0002:00000080       __imp_FindNextFileW        000000018003f080     kernel32:KERNEL32.dll
 0002:00000088       __imp_FindFirstFileExW     000000018003f088     kernel32:KERNEL32.dll
 0002:00000090       __imp_FindClose            000000018003f090     kernel32:KERNEL32.dll
 0002:00000098       __imp_HeapReAlloc          000000018003f098     kernel32:KERNEL32.dll
 0002:000000a0       __imp_ReadConsoleW         000000018003f0a0     kernel32:KERNEL32.dll
 0002:000000a8       __imp_SetFilePointerEx     000000018003f0a8     kernel32:KERNEL32.dll
 0002:000000b0       __imp_GetFileSizeEx        000000018003f0b0     kernel32:KERNEL32.dll
 0002:000000b8       __imp_ReadFile             000000018003f0b8     kernel32:KERNEL32.dll
 0002:000000c0       __imp_GetConsoleMode       000000018003f0c0     kernel32:KERNEL32.dll
 0002:000000c8       __imp_GetConsoleCP         000000018003f0c8     kernel32:KERNEL32.dll
 0002:000000d0       __imp_FlushFileBuffers     000000018003f0d0     kernel32:KERNEL32.dll
 0002:000000d8       __imp_CloseHandle          000000018003f0d8     kernel32:KERNEL32.dll
 0002:000000e0       __imp_EnumSystemLocalesW   000000018003f0e0     kernel32:KERNEL32.dll
 0002:000000e8       __imp_GetUserDefaultLCID   000000018003f0e8     kernel32:KERNEL32.dll
 0002:000000f0       __imp_IsValidLocale        000000018003f0f0     kernel32:KERNEL32.dll
 0002:000000f8       __imp_HeapFree             000000018003f0f8     kernel32:KERNEL32.dll
 0002:00000100       __imp_HeapAlloc            000000018003f100     kernel32:KERNEL32.dll
 0002:00000108       __imp_OutputDebugStringW   000000018003f108     kernel32:KERNEL32.dll
 0002:00000110       __imp_WriteFile            000000018003f110     kernel32:KERNEL32.dll
 0002:00000118       __imp_ExitProcess          000000018003f118     kernel32:KERNEL32.dll
 0002:00000120       __imp_Sleep                000000018003f120     kernel32:KERNEL32.dll
 0002:00000128       __imp_WriteConsoleW        000000018003f128     kernel32:KERNEL32.dll
 0002:00000130       __imp_GetModuleHandleExW   000000018003f130     kernel32:KERNEL32.dll
 0002:00000138       __imp_GetModuleFileNameW   000000018003f138     kernel32:KERNEL32.dll
 0002:00000140       __imp_GetFileType          000000018003f140     kernel32:KERNEL32.dll
 0002:00000148       __imp_GetStdHandle         000000018003f148     kernel32:KERNEL32.dll
 0002:00000150       __imp_LoadLibraryExW       000000018003f150     kernel32:KERNEL32.dll
 0002:00000158       __imp_FreeLibrary          000000018003f158     kernel32:KERNEL32.dll
 0002:00000160       __imp_InterlockedFlushSList 000000018003f160     kernel32:KERNEL32.dll
 0002:00000168       __imp_RtlUnwindEx          000000018003f168     kernel32:KERNEL32.dll
 0002:00000170       __imp_RaiseException       000000018003f170     kernel32:KERNEL32.dll
 0002:00000178       __imp_RtlPcToFileHeader    000000018003f178     kernel32:KERNEL32.dll
 0002:00000180       __imp_InitializeSListHead  000000018003f180     kernel32:KERNEL32.dll
 0002:00000188       __imp_GetCurrentThreadId   000000018003f188     kernel32:KERNEL32.dll
 0002:00000190       __imp_GetCurrentProcessId  000000018003f190     kernel32:KERNEL32.dll
 0002:00000198       __imp_QueryPerformanceCounter 000000018003f198     kernel32:KERNEL32.dll
 0002:000001a0       __imp_GetStartupInfoW      000000018003f1a0     kernel32:KERNEL32.dll
 0002:000001a8       __imp_GetModuleHandleA     000000018003f1a8     kernel32:KERNEL32.dll
 0002:000001b0       __imp_IsDebuggerPresent    000000018003f1b0     kernel32:KERNEL32.dll
 0002:000001b8       __imp_GetLastError         000000018003f1b8     kernel32:KERNEL32.dll
 0002:000001c0       __imp_WideCharToMultiByte  000000018003f1c0     kernel32:KERNEL32.dll
 0002:000001c8       __imp_EnterCriticalSection 000000018003f1c8     kernel32:KERNEL32.dll
 0002:000001d0       __imp_LeaveCriticalSection 000000018003f1d0     kernel32:KERNEL32.dll
 0002:000001d8       __imp_DeleteCriticalSection 000000018003f1d8     kernel32:KERNEL32.dll
 0002:000001e0       __imp_SetLastError         000000018003f1e0     kernel32:KERNEL32.dll
 0002:000001e8       __imp_InitializeCriticalSectionAndSpinCount 000000018003f1e8     kernel32:KERNEL32.dll
 0002:000001f0       __imp_SwitchToThread       000000018003f1f0     kernel32:KERNEL32.dll
 0002:000001f8       __imp_TlsAlloc             000000018003f1f8     kernel32:KERNEL32.dll
 0002:00000200       __imp_TlsGetValue          000000018003f200     kernel32:KERNEL32.dll
 0002:00000208       __imp_TlsSetValue          000000018003f208     kernel32:KERNEL32.dll
 0002:00000210       __imp_TlsFree              000000018003f210     kernel32:KERNEL32.dll
 0002:00000218       __imp_GetSystemTimeAsFileTime 000000018003f218     kernel32:KERNEL32.dll
 0002:00000220       __imp_RtlUnwind            000000018003f220     kernel32:KERNEL32.dll
 0002:00000228       __imp_GetProcAddress       000000018003f228     kernel32:KERNEL32.dll
 0002:00000230       __imp_EncodePointer        000000018003f230     kernel32:KERNEL32.dll
 0002:00000238       __imp_DecodePointer        000000018003f238     kernel32:KERNEL32.dll
 0002:00000240       __imp_MultiByteToWideChar  000000018003f240     kernel32:KERNEL32.dll
 0002:00000248       __imp_LCMapStringW         000000018003f248     kernel32:KERNEL32.dll
 0002:00000250       __imp_GetLocaleInfoW       000000018003f250     kernel32:KERNEL32.dll
 0002:00000258       __imp_GetStringTypeW       000000018003f258     kernel32:KERNEL32.dll
 0002:00000260       __imp_GetCPInfo            000000018003f260     kernel32:KERNEL32.dll
 0002:00000268       __imp_RtlCaptureContext    000000018003f268     kernel32:KERNEL32.dll
 0002:00000270       __imp_RtlLookupFunctionEntry 000000018003f270     kernel32:KERNEL32.dll
 0002:00000278       __imp_RtlVirtualUnwind     000000018003f278     kernel32:KERNEL32.dll
 0002:00000280       __imp_UnhandledExceptionFilter 000000018003f280     kernel32:KERNEL32.dll
 0002:00000288       __imp_SetUnhandledExceptionFilter 000000018003f288     kernel32:KERNEL32.dll
 0002:00000290       __imp_GetCurrentProcess    000000018003f290     kernel32:KERNEL32.dll
 0002:00000298       __imp_TerminateProcess     000000018003f298     kernel32:KERNEL32.dll
 0002:000002a0       __imp_IsProcessorFeaturePresent 000000018003f2a0     kernel32:KERNEL32.dll
 0002:000002a8       \177KERNEL32_NULL_THUNK_DATA 000000018003f2a8     kernel32:KERNEL32.dll
 0002:000002b0       __imp_rd_kafka_NewTopic_set_config 000000018003f2b0     librdkafka:librdkafka.dll
 0002:000002b8       __imp_rd_kafka_NewTopic_destroy 000000018003f2b8     librdkafka:librdkafka.dll
 0002:000002c0       __imp_rd_kafka_err2str     000000018003f2c0     librdkafka:librdkafka.dll
 0002:000002c8       __imp_rd_kafka_DeleteTopic_destroy 000000018003f2c8     librdkafka:librdkafka.dll
 0002:000002d0       __imp_rd_kafka_NewPartitions_destroy 000000018003f2d0     librdkafka:librdkafka.dll
 0002:000002d8       __imp_rd_kafka_event_type  000000018003f2d8     librdkafka:librdkafka.dll
 0002:000002e0       __imp_rd_kafka_topic_result_error_string 000000018003f2e0     librdkafka:librdkafka.dll
 0002:000002e8       __imp_rd_kafka_CreatePartitions_result_topics 000000018003f2e8     librdkafka:librdkafka.dll
 0002:000002f0       __imp_rd_kafka_event_CreatePartitions_result 000000018003f2f0     librdkafka:librdkafka.dll
 0002:000002f8       __imp_rd_kafka_AdminOptions_destroy 000000018003f2f8     librdkafka:librdkafka.dll
 0002:00000300       __imp_rd_kafka_queue_poll  000000018003f300     librdkafka:librdkafka.dll
 0002:00000308       __imp_rd_kafka_queue_destroy 000000018003f308     librdkafka:librdkafka.dll
 0002:00000310       __imp_rd_kafka_AdminOptions_new 000000018003f310     librdkafka:librdkafka.dll
 0002:00000318       __imp_rd_kafka_DeleteTopic_new 000000018003f318     librdkafka:librdkafka.dll
 0002:00000320       __imp_rd_kafka_CreateTopics_result_topics 000000018003f320     librdkafka:librdkafka.dll
 0002:00000328       __imp_rd_kafka_event_error 000000018003f328     librdkafka:librdkafka.dll
 0002:00000330       __imp_rd_kafka_DeleteTopics 000000018003f330     librdkafka:librdkafka.dll
 0002:00000338       __imp_rd_kafka_CreatePartitions 000000018003f338     librdkafka:librdkafka.dll
 0002:00000340       __imp_rd_kafka_CreateTopics 000000018003f340     librdkafka:librdkafka.dll
 0002:00000348       __imp_rd_kafka_event_DeleteTopics_result 000000018003f348     librdkafka:librdkafka.dll
 0002:00000350       __imp_rd_kafka_NewPartitions_new 000000018003f350     librdkafka:librdkafka.dll
 0002:00000358       __imp_rd_kafka_topic_result_error 000000018003f358     librdkafka:librdkafka.dll
 0002:00000360       __imp_rd_kafka_event_CreateTopics_result 000000018003f360     librdkafka:librdkafka.dll
 0002:00000368       __imp_rd_kafka_queue_new   000000018003f368     librdkafka:librdkafka.dll
 0002:00000370       __imp_rd_kafka_DeleteTopics_result_topics 000000018003f370     librdkafka:librdkafka.dll
 0002:00000378       __imp_rd_kafka_NewTopic_new 000000018003f378     librdkafka:librdkafka.dll
 0002:00000380       \177librdkafka_NULL_THUNK_DATA 000000018003f380     librdkafka:librdkafka.dll
 0002:00000388       __imp_?OFFSET_BEGINNING@Topic@RdKafka@@2_JB 000000018003f388     librdkafkacpp:librdkafkacpp.dll
 0002:00000390       __imp_?PARTITION_UA@Topic@RdKafka@@2HB 000000018003f390     librdkafkacpp:librdkafkacpp.dll
 0002:00000398       __imp_?OFFSET_INVALID@Topic@RdKafka@@2_JB 000000018003f398     librdkafkacpp:librdkafkacpp.dll
 0002:000003a0       __imp_?wait_destroyed@RdKafka@@YAHH@Z 000000018003f3a0     librdkafkacpp:librdkafkacpp.dll
 0002:000003a8       __imp_?OFFSET_END@Topic@RdKafka@@2_JB 000000018003f3a8     librdkafkacpp:librdkafkacpp.dll
 0002:000003b0       __imp_?create@Conf@RdKafka@@SAPEAV12@W4ConfType@12@@Z 000000018003f3b0     librdkafkacpp:librdkafkacpp.dll
 0002:000003b8       __imp_?version_str@RdKafka@@YA?AV?$basic_string@DU?$char_traits@D@std@@V?$allocator@D@2@@std@@XZ 000000018003f3b8     librdkafkacpp:librdkafkacpp.dll
 0002:000003c0       __imp_?err2str@RdKafka@@YA?AV?$basic_string@DU?$char_traits@D@std@@V?$allocator@D@2@@std@@W4ErrorCode@1@@Z 000000018003f3c0     librdkafkacpp:librdkafkacpp.dll
 0002:000003c8       __imp_??_7PartitionerCb@RdKafka@@6B@ 000000018003f3c8     librdkafkacpp:librdkafkacpp.dll
 0002:000003d0       __imp_??_7RebalanceCb@RdKafka@@6B@ 000000018003f3d0     librdkafkacpp:librdkafkacpp.dll
 0002:000003d8       __imp_??_7OffsetCommitCb@RdKafka@@6B@ 000000018003f3d8     librdkafkacpp:librdkafkacpp.dll
 0002:000003e0       __imp_??_7DeliveryReportCb@RdKafka@@6B@ 000000018003f3e0     librdkafkacpp:librdkafkacpp.dll
 0002:000003e8       __imp_??_7EventCb@RdKafka@@6B@ 000000018003f3e8     librdkafkacpp:librdkafkacpp.dll
 0002:000003f0       __imp_?create@TopicPartition@RdKafka@@SAPEAV12@AEBV?$basic_string@DU?$char_traits@D@std@@V?$allocator@D@2@@std@@H_J@Z 000000018003f3f0     librdkafkacpp:librdkafkacpp.dll
 0002:000003f8       __imp_?create@Topic@RdKafka@@SAPEAV12@PEAVHandle@2@AEBV?$basic_string@DU?$char_traits@D@std@@V?$allocator@D@2@@std@@PEAVConf@2@AEAV45@@Z 000000018003f3f8     librdkafkacpp:librdkafkacpp.dll
 0002:00000400       __imp_?create@TopicPartition@RdKafka@@SAPEAV12@AEBV?$basic_string@DU?$char_traits@D@std@@V?$allocator@D@2@@std@@H@Z 000000018003f400     librdkafkacpp:librdkafkacpp.dll
 0002:00000408       __imp_?create@KafkaConsumer@RdKafka@@SAPEAV12@PEAVConf@2@AEAV?$basic_string@DU?$char_traits@D@std@@V?$allocator@D@2@@std@@@Z 000000018003f408     librdkafkacpp:librdkafkacpp.dll
 0002:00000410       __imp_?destroy@TopicPartition@RdKafka@@SAXAEAV?$vector@PEAVTopicPartition@RdKafka@@V?$allocator@PEAVTopicPartition@RdKafka@@@std@@@std@@@Z 000000018003f410     librdkafkacpp:librdkafkacpp.dll
 0002:00000418       __imp_?create@Producer@RdKafka@@SAPEAV12@PEAVConf@2@AEAV?$basic_string@DU?$char_traits@D@std@@V?$allocator@D@2@@std@@@Z 000000018003f418     librdkafkacpp:librdkafkacpp.dll
 0002:00000420       __imp_?create@Headers@RdKafka@@SAPEAV12@AEBV?$vector@VHeader@Headers@RdKafka@@V?$allocator@VHeader@Headers@RdKafka@@@std@@@std@@@Z 000000018003f420     librdkafkacpp:librdkafkacpp.dll
 0002:00000428       __imp_?OFFSET_STORED@Topic@RdKafka@@2_JB 000000018003f428     librdkafkacpp:librdkafkacpp.dll
 0002:00000430       \177librdkafkacpp_NULL_THUNK_DATA 000000018003f430     librdkafkacpp:librdkafkacpp.dll
 0002:00000438       __guard_check_icall_fptr   000000018003f438     LIBCMT:guard_support.obj
 0002:00000440       __guard_dispatch_icall_fptr 000000018003f440     LIBCMT:guard_support.obj
 0002:00000448       __xc_a                     000000018003f448     LIBCMT:initializers.obj
 0002:000004d8       _register_kafka_           000000018003f4d8     binding.obj
 0002:000004e0       __xc_z                     000000018003f4e0     LIBCMT:initializers.obj
 0002:000004e8       __xi_a                     000000018003f4e8     LIBCMT:initializers.obj
 0002:000004f8       __acrt_stdio_initializer   000000018003f4f8     libucrt:stdio_initializer.obj
 0002:00000500       __acrt_tran_fma3_initializer 000000018003f500     libucrt:fma3_initializer.obj
 0002:00000508       __acrt_timeset_initializer 000000018003f508     libucrt:timeset_initializer.obj
 0002:00000510       __acrt_multibyte_initializer 000000018003f510     libucrt:multibyte_initializer.obj
 0002:00000518       __xi_z                     000000018003f518     LIBCMT:initializers.obj
 0002:00000520       __xp_a                     000000018003f520     LIBCMT:initializers.obj
 0002:00000528       __acrt_locale_terminator   000000018003f528     libucrt:locale_initializer.obj
 0002:00000530       __dcrt_console_output_terminator 000000018003f530     libucrt:console_output_initializer.obj
 0002:00000538       __acrt_stdio_terminator    000000018003f538     libucrt:stdio_initializer.obj
 0002:00000540       __xp_z                     000000018003f540     LIBCMT:initializers.obj
 0002:00000548       __xt_a                     000000018003f548     LIBCMT:initializers.obj
 0002:00000550       __xt_z                     000000018003f550     LIBCMT:initializers.obj
 0002:00000560       __sz_node_exe              000000018003f560     node:node.exe
 0002:00000578       ??_7exception@std@@6B@     000000018003f578     libcpmt:xthrow.obj
 0002:00000588       ??_C@_0BC@EOODALEL@Unknown?5exception@ 000000018003f588     libcpmt:xthrow.obj
 0002:000005a8       ??_7bad_alloc@std@@6B@     000000018003f5a8     libcpmt:xthrow.obj
 0002:000005b8       ??_C@_0P@GHFPNOJB@bad?5allocation@ 000000018003f5b8     libcpmt:xthrow.obj
 0002:000005d0       ??_7logic_error@std@@6B@   000000018003f5d0     libcpmt:xthrow.obj
 0002:000005e8       ??_7length_error@std@@6B@  000000018003f5e8     libcpmt:xthrow.obj
 0002:000005f8       ??_C@_0O@BFJCFAAK@unknown?5error@ 000000018003f5f8     libcpmt:xonce.obj
 0002:000006d8       ??_7_Facet_base@std@@6B@   000000018003f6d8     libcpmt:locale0.obj
 0002:000006f8       ??_7_Locimp@locale@std@@6B@ 000000018003f6f8     libcpmt:locale0.obj
 0002:00000710       ??_C@_01NBENCBCI@?$CK@     000000018003f710     libcpmt:locale0.obj
 0002:00000714       ??_C@_01GFHCPBMG@C@        000000018003f714     libcpmt:locale0.obj
 0002:00000928       ??_7bad_cast@std@@6B@      000000018003f928     libcpmt:cerr.obj
 0002:00000938       ??_C@_08EPJLHIJG@bad?5cast@ 000000018003f938     libcpmt:cerr.obj
 0002:00000950       ??_7?$ctype@D@std@@6B@     000000018003f950     libcpmt:cerr.obj
 0002:000009b0       ??_7_Iostream_error_category@std@@6B@ 000000018003f9b0     libcpmt:cerr.obj
 0002:000009e8       ??_7ios_base@std@@6B@      000000018003f9e8     libcpmt:cerr.obj
 0002:000009f8       ??_7?$basic_streambuf@DU?$char_traits@D@std@@@std@@6B@ 000000018003f9f8     libcpmt:cerr.obj
 0002:00000a78       ??_7?$basic_filebuf@DU?$char_traits@D@std@@@std@@6B@ 000000018003fa78     libcpmt:cerr.obj
 0002:00000af8       ??_7?$basic_ios@DU?$char_traits@D@std@@@std@@6B@ 000000018003faf8     libcpmt:cerr.obj
 0002:00000b08       ??_7?$basic_ostream@DU?$char_traits@D@std@@@std@@6B@ 000000018003fb08     libcpmt:cerr.obj
 0002:00000b10       ??_8?$basic_ostream@DU?$char_traits@D@std@@@std@@7B@ 000000018003fb10     libcpmt:cerr.obj
 0002:00000b20       ??_7?$codecvt@DDU_Mbstatet@@@std@@6B@ 000000018003fb20     libcpmt:cerr.obj
 0002:000012c0       ??_C@_0BN@LKKBCCDB@address?5family?5not?5supported@ 00000001800402c0     libcpmt:syserror.obj
 0002:000012e0       ??_C@_0P@LDMLAFHI@address?5in?5use@ 00000001800402e0     libcpmt:syserror.obj
 0002:000012f0       ??_C@_0BG@DHPCNBJB@address?5not?5available@ 00000001800402f0     libcpmt:syserror.obj
 0002:00001308       ??_C@_0BC@DFIBIBIL@already?5connected@ 0000000180040308     libcpmt:syserror.obj
 0002:00001320       ??_C@_0BH@CAKOHOMI@argument?5list?5too?5long@ 0000000180040320     libcpmt:syserror.obj
 0002:00001338       ??_C@_0BH@CGIMPKIM@argument?5out?5of?5domain@ 0000000180040338     libcpmt:syserror.obj
 0002:00001350       ??_C@_0M@KGHGGJGL@bad?5address@ 0000000180040350     libcpmt:syserror.obj
 0002:00001360       ??_C@_0BE@MPJPGCEO@bad?5file?5descriptor@ 0000000180040360     libcpmt:syserror.obj
 0002:00001378       ??_C@_0M@PMMIEFCP@bad?5message@ 0000000180040378     libcpmt:syserror.obj
 0002:00001388       ??_C@_0M@KPHOFDBE@broken?5pipe@ 0000000180040388     libcpmt:syserror.obj
 0002:00001398       ??_C@_0BD@MGNDDEGM@connection?5aborted@ 0000000180040398     libcpmt:syserror.obj
 0002:000013b0       ??_C@_0BP@KAIHPOGN@connection?5already?5in?5progress@ 00000001800403b0     libcpmt:syserror.obj
 0002:000013d0       ??_C@_0BD@PJLIIJEL@connection?5refused@ 00000001800403d0     libcpmt:syserror.obj
 0002:000013e8       ??_C@_0BB@IECNJNOI@connection?5reset@ 00000001800403e8     libcpmt:syserror.obj
 0002:00001400       ??_C@_0BC@PPHBOELF@cross?5device?5link@ 0000000180040400     libcpmt:syserror.obj
 0002:00001418       ??_C@_0BN@KDMIFEIP@destination?5address?5required@ 0000000180040418     libcpmt:syserror.obj
 0002:00001438       ??_C@_0BI@NGCEHDD@device?5or?5resource?5busy@ 0000000180040438     libcpmt:syserror.obj
 0002:00001450       ??_C@_0BE@JIDOCPHM@directory?5not?5empty@ 0000000180040450     libcpmt:syserror.obj
 0002:00001468       ??_C@_0BI@BNCLIGPB@executable?5format?5error@ 0000000180040468     libcpmt:syserror.obj
 0002:00001480       ??_C@_0M@MIDIAGJP@file?5exists@ 0000000180040480     libcpmt:syserror.obj
 0002:00001490       ??_C@_0P@DNAJLBJK@file?5too?5large@ 0000000180040490     libcpmt:syserror.obj
 0002:000014a0       ??_C@_0BC@EJHOMAAK@filename?5too?5long@ 00000001800404a0     libcpmt:syserror.obj
 0002:000014b8       ??_C@_0BH@KEFGLDAF@function?5not?5supported@ 00000001800404b8     libcpmt:syserror.obj
 0002:000014d0       ??_C@_0BB@DHFDFGDM@host?5unreachable@ 00000001800404d0     libcpmt:syserror.obj
 0002:000014e8       ??_C@_0BD@JPHBMONG@identifier?5removed@ 00000001800404e8     libcpmt:syserror.obj
 0002:00001500       ??_C@_0BG@CDNPAGJK@illegal?5byte?5sequence@ 0000000180040500     libcpmt:syserror.obj
 0002:00001518       ??_C@_0CD@BNPLBMNA@inappropriate?5io?5control?5operat@ 0000000180040518     libcpmt:syserror.obj
 0002:00001540       ??_C@_0M@EGEKIIMP@interrupted@ 0000000180040540     libcpmt:syserror.obj
 0002:00001550       ??_C@_0BB@FCMFBGOM@invalid?5argument@ 0000000180040550     libcpmt:syserror.obj
 0002:00001568       ??_C@_0N@OHAFKDEK@invalid?5seek@ 0000000180040568     libcpmt:syserror.obj
 0002:00001578       ??_C@_08GLNPIFBN@io?5error@ 0000000180040578     libcpmt:syserror.obj
 0002:00001588       ??_C@_0P@FLLDBIDK@is?5a?5directory@ 0000000180040588     libcpmt:syserror.obj
 0002:00001598       ??_C@_0N@IFLPBIOP@message?5size@ 0000000180040598     libcpmt:syserror.obj
 0002:000015a8       ??_C@_0N@KIIEAAIO@network?5down@ 00000001800405a8     libcpmt:syserror.obj
 0002:000015b8       ??_C@_0O@FNPDBHEE@network?5reset@ 00000001800405b8     libcpmt:syserror.obj
 0002:000015c8       ??_C@_0BE@IFNCKGE@network?5unreachable@ 00000001800405c8     libcpmt:syserror.obj
 0002:000015e0       ??_C@_0BA@PFFCAOFK@no?5buffer?5space@ 00000001800405e0     libcpmt:syserror.obj
 0002:000015f0       ??_C@_0BB@IEPBLJHK@no?5child?5process@ 00000001800405f0     libcpmt:syserror.obj
 0002:00001608       ??_C@_07PLECNNKG@no?5link@ 0000000180040608     libcpmt:syserror.obj
 0002:00001610       ??_C@_0BC@NJECKMKE@no?5lock?5available@ 0000000180040610     libcpmt:syserror.obj
 0002:00001628       ??_C@_0BF@PBGGPKKE@no?5message?5available@ 0000000180040628     libcpmt:syserror.obj
 0002:00001640       ??_C@_0L@EDOLMPAK@no?5message@ 0000000180040640     libcpmt:syserror.obj
 0002:00001650       ??_C@_0BD@EAMBFIDF@no?5protocol?5option@ 0000000180040650     libcpmt:syserror.obj
 0002:00001668       ??_C@_0BD@IJDJKDEA@no?5space?5on?5device@ 0000000180040668     libcpmt:syserror.obj
 0002:00001680       ??_C@_0BE@MKFDAFMP@no?5stream?5resources@ 0000000180040680     libcpmt:syserror.obj
 0002:00001698       ??_C@_0BK@IMCPHCBI@no?5such?5device?5or?5address@ 0000000180040698     libcpmt:syserror.obj
 0002:000016b8       ??_C@_0P@FDINDDOK@no?5such?5device@ 00000001800406b8     libcpmt:syserror.obj
 0002:000016c8       ??_C@_0BK@NDOCBPGE@no?5such?5file?5or?5directory@ 00000001800406c8     libcpmt:syserror.obj
 0002:000016e8       ??_C@_0BA@ENLPPKBN@no?5such?5process@ 00000001800406e8     libcpmt:syserror.obj
 0002:000016f8       ??_C@_0BA@DOCPFFJG@not?5a?5directory@ 00000001800406f8     libcpmt:syserror.obj
 0002:00001708       ??_C@_0N@POEIPGGF@not?5a?5socket@ 0000000180040708     libcpmt:syserror.obj
 0002:00001718       ??_C@_0N@LGAPMMPI@not?5a?5stream@ 0000000180040718     libcpmt:syserror.obj
 0002:00001728       ??_C@_0O@GLMIBBEG@not?5connected@ 0000000180040728     libcpmt:syserror.obj
 0002:00001738       ??_C@_0BC@ENOOLCNF@not?5enough?5memory@ 0000000180040738     libcpmt:syserror.obj
 0002:00001750       ??_C@_0O@NHEDABJP@not?5supported@ 0000000180040750     libcpmt:syserror.obj
 0002:00001760       ??_C@_0BD@MOLBPMEA@operation?5canceled@ 0000000180040760     libcpmt:syserror.obj
 0002:00001778       ??_C@_0BG@KDKHOPCO@operation?5in?5progress@ 0000000180040778     libcpmt:syserror.obj
 0002:00001790       ??_C@_0BI@OHIEJAAB@operation?5not?5permitted@ 0000000180040790     libcpmt:syserror.obj
 0002:000017a8       ??_C@_0BI@LNEGIFLN@operation?5not?5supported@ 00000001800407a8     libcpmt:syserror.obj
 0002:000017c0       ??_C@_0BG@OEMDKMEE@operation?5would?5block@ 00000001800407c0     libcpmt:syserror.obj
 0002:000017d8       ??_C@_0L@BLPOFLNJ@owner?5dead@ 00000001800407d8     libcpmt:syserror.obj
 0002:000017e8       ??_C@_0BC@CIJDGCDI@permission?5denied@ 00000001800407e8     libcpmt:syserror.obj
 0002:00001800       ??_C@_0P@FNPOCJBE@protocol?5error@ 0000000180040800     libcpmt:syserror.obj
 0002:00001810       ??_C@_0BH@JPPPLHJB@protocol?5not?5supported@ 0000000180040810     libcpmt:syserror.obj
 0002:00001828       ??_C@_0BG@EICBIHDP@read?5only?5file?5system@ 0000000180040828     libcpmt:syserror.obj
 0002:00001840       ??_C@_0BO@BJBOMOEJ@resource?5deadlock?5would?5occur@ 0000000180040840     libcpmt:syserror.obj
 0002:00001860       ??_C@_0BP@LKNGHENJ@resource?5unavailable?5try?5again@ 0000000180040860     libcpmt:syserror.obj
 0002:00001880       ??_C@_0BE@GOIPJJHG@result?5out?5of?5range@ 0000000180040880     libcpmt:syserror.obj
 0002:00001898       ??_C@_0BG@MPLKFPAE@state?5not?5recoverable@ 0000000180040898     libcpmt:syserror.obj
 0002:000018b0       ??_C@_0P@DIIFGFCG@stream?5timeout@ 00000001800408b0     libcpmt:syserror.obj
 0002:000018c0       ??_C@_0P@IPFDMIFL@text?5file?5busy@ 00000001800408c0     libcpmt:syserror.obj
 0002:000018d0       ??_C@_09KJPPMAOI@timed?5out@ 00000001800408d0     libcpmt:syserror.obj
 0002:000018e0       ??_C@_0BO@HACHBEKI@too?5many?5files?5open?5in?5system@ 00000001800408e0     libcpmt:syserror.obj
 0002:00001900       ??_C@_0BE@GHAFMPAH@too?5many?5files?5open@ 0000000180040900     libcpmt:syserror.obj
 0002:00001918       ??_C@_0P@HCOMKFCC@too?5many?5links@ 0000000180040918     libcpmt:syserror.obj
 0002:00001928       ??_C@_0BO@EFGOJEF@too?5many?5symbolic?5link?5levels@ 0000000180040928     libcpmt:syserror.obj
 0002:00001948       ??_C@_0BA@KGKGOOJA@value?5too?5large@ 0000000180040948     libcpmt:syserror.obj
 0002:00001958       ??_C@_0BE@MIEJDDNH@wrong?5protocol?5type@ 0000000180040958     libcpmt:syserror.obj
 0002:00001998       ??_C@_1BK@MGMFAEKH@?$AAk?$AAe?$AAr?$AAn?$AAe?$AAl?$AA3?$AA2?$AA?4?$AAd?$AAl?$AAl@ 0000000180040998     libcpmt:winapisupp.obj
 0002:000019b8       ??_C@_08KNHFBNJ@FlsAlloc@  00000001800409b8     libcpmt:winapisupp.obj
 0002:000019c8       ??_C@_07PEJMOBNF@FlsFree@  00000001800409c8     libcpmt:winapisupp.obj
 0002:000019d0       ??_C@_0M@GDNOONDI@FlsGetValue@ 00000001800409d0     libcpmt:winapisupp.obj
 0002:000019e0       ??_C@_0M@JCPCPOEF@FlsSetValue@ 00000001800409e0     libcpmt:winapisupp.obj
 0002:000019f0       ??_C@_0BM@HCFOFFN@InitializeCriticalSectionEx@ 00000001800409f0     libcpmt:winapisupp.obj
 0002:00001a10       ??_C@_0BE@GPLMMCMH@InitOnceExecuteOnce@ 0000000180040a10     libcpmt:winapisupp.obj
 0002:00001a28       ??_C@_0P@DLHPPCNH@CreateEventExW@ 0000000180040a28     libcpmt:winapisupp.obj
 0002:00001a38       ??_C@_0BB@MEFPJLHN@CreateSemaphoreW@ 0000000180040a38     libcpmt:winapisupp.obj
 0002:00001a50       ??_C@_0BD@KIEEOEEH@CreateSemaphoreExW@ 0000000180040a50     libcpmt:winapisupp.obj
 0002:00001a68       ??_C@_0BG@OGFAJCKC@CreateThreadpoolTimer@ 0000000180040a68     libcpmt:winapisupp.obj
 0002:00001a80       ??_C@_0BD@LPLEMMDI@SetThreadpoolTimer@ 0000000180040a80     libcpmt:winapisupp.obj
 0002:00001a98       ??_C@_0CA@FMNJENH@WaitForThreadpoolTimerCallbacks@ 0000000180040a98     libcpmt:winapisupp.obj
 0002:00001ab8       ??_C@_0BF@DCFCCNOC@CloseThreadpoolTimer@ 0000000180040ab8     libcpmt:winapisupp.obj
 0002:00001ad0       ??_C@_0BF@FLABGKKM@CreateThreadpoolWait@ 0000000180040ad0     libcpmt:winapisupp.obj
 0002:00001ae8       ??_C@_0BC@MGCOHNA@SetThreadpoolWait@ 0000000180040ae8     libcpmt:winapisupp.obj
 0002:00001b00       ??_C@_0BE@OCIOMIMP@CloseThreadpoolWait@ 0000000180040b00     libcpmt:winapisupp.obj
 0002:00001b18       ??_C@_0BJ@LKGHFHBO@FlushProcessWriteBuffers@ 0000000180040b18     libcpmt:winapisupp.obj
 0002:00001b38       ??_C@_0BP@KALKKPMO@FreeLibraryWhenCallbackReturns@ 0000000180040b38     libcpmt:winapisupp.obj
 0002:00001b58       ??_C@_0BK@DFNBACLA@GetCurrentProcessorNumber@ 0000000180040b58     libcpmt:winapisupp.obj
 0002:00001b78       ??_C@_0BE@FKKLLFLM@CreateSymbolicLinkW@ 0000000180040b78     libcpmt:winapisupp.obj
 0002:00001b90       ??_C@_0BE@JOGNEJCI@GetCurrentPackageId@ 0000000180040b90     libcpmt:winapisupp.obj
 0002:00001ba8       ??_C@_0P@CDHHOHKP@GetTickCount64@ 0000000180040ba8     libcpmt:winapisupp.obj
 0002:00001bb8       ??_C@_0BN@NEEHBBPO@GetFileInformationByHandleEx@ 0000000180040bb8     libcpmt:winapisupp.obj
 0002:00001bd8       ??_C@_0BL@KBBHGKCM@SetFileInformationByHandle@ 0000000180040bd8     libcpmt:winapisupp.obj
 0002:00001bf8       ??_C@_0BP@FPNJPEJC@GetSystemTimePreciseAsFileTime@ 0000000180040bf8     libcpmt:winapisupp.obj
 0002:00001c18       ??_C@_0BM@HLJJNPAH@InitializeConditionVariable@ 0000000180040c18     libcpmt:winapisupp.obj
 0002:00001c38       ??_C@_0BG@BFNILBLN@WakeConditionVariable@ 0000000180040c38     libcpmt:winapisupp.obj
 0002:00001c50       ??_C@_0BJ@PGPPEPCC@WakeAllConditionVariable@ 0000000180040c50     libcpmt:winapisupp.obj
 0002:00001c70       ??_C@_0BJ@JEBJOJFJ@SleepConditionVariableCS@ 0000000180040c70     libcpmt:winapisupp.obj
 0002:00001c90       ??_C@_0BC@MMLHEBPB@InitializeSRWLock@ 0000000180040c90     libcpmt:winapisupp.obj
 0002:00001ca8       ??_C@_0BI@OMNLIJDB@AcquireSRWLockExclusive@ 0000000180040ca8     libcpmt:winapisupp.obj
 0002:00001cc0       ??_C@_0BL@OGHFEMNA@TryAcquireSRWLockExclusive@ 0000000180040cc0     libcpmt:winapisupp.obj
 0002:00001ce0       ??_C@_0BI@HMIEPCNJ@ReleaseSRWLockExclusive@ 0000000180040ce0     libcpmt:winapisupp.obj
 0002:00001cf8       ??_C@_0BK@LGACAGIC@SleepConditionVariableSRW@ 0000000180040cf8     libcpmt:winapisupp.obj
 0002:00001d18       ??_C@_0BF@GGPHFPJA@CreateThreadpoolWork@ 0000000180040d18     libcpmt:winapisupp.obj
 0002:00001d30       ??_C@_0BF@NHDAIMMO@SubmitThreadpoolWork@ 0000000180040d30     libcpmt:winapisupp.obj
 0002:00001d48       ??_C@_0BE@NPHIPNPD@CloseThreadpoolWork@ 0000000180040d48     libcpmt:winapisupp.obj
 0002:00001d60       ??_C@_0BA@IHGNDAEB@CompareStringEx@ 0000000180040d60     libcpmt:winapisupp.obj
 0002:00001d70       ??_C@_0BA@ONOKGCMP@GetLocaleInfoEx@ 0000000180040d70     libcpmt:winapisupp.obj
 0002:00001d80       ??_C@_0O@KKBNKAPF@LCMapStringEx@ 0000000180040d80     libcpmt:winapisupp.obj
 0002:00001db8       ?_BADOFF@std@@3_JB         0000000180040db8     libcpmt:ios.obj
 0002:00001de8       ??_C@_11LOCGONAA@@         0000000180040de8     libcpmt:wlocale.obj
 0002:00001dec       ??_C@_01JOAMLHOP@?9@       0000000180040dec     libcpmt:wlocale.obj
 0002:00003b10       ??_C@_15EMKDOKLE@?$AAa?$AAr@ 0000000180042b10     libcpmt:winapinls.obj
 0002:00003b18       ??_C@_15KNPADPLH@?$AAb?$AAg@ 0000000180042b18     libcpmt:winapinls.obj
 0002:00003b20       ??_C@_15EDMHLDMO@?$AAc?$AAa@ 0000000180042b20     libcpmt:winapinls.obj
 0002:00003b28       ??_C@_1O@BPEAJADD@?$AAz?$AAh?$AA?9?$AAC?$AAH?$AAS@ 0000000180042b28     libcpmt:winapinls.obj
 0002:00003b38       ??_C@_15LJNHCMNK@?$AAc?$AAs@ 0000000180042b38     libcpmt:winapinls.obj
 0002:00003b40       ??_C@_15FOMCIDHG@?$AAd?$AAa@ 0000000180042b40     libcpmt:winapinls.obj
 0002:00003b48       ??_C@_15NBKABECB@?$AAd?$AAe@ 0000000180042b48     libcpmt:winapinls.obj
 0002:00003b50       ??_C@_15GHPEIIAO@?$AAe?$AAl@ 0000000180042b50     libcpmt:winapinls.obj
 0002:00003b58       ??_C@_15MNPNEAIF@?$AAe?$AAn@ 0000000180042b58     libcpmt:winapinls.obj
 0002:00003b60       ??_C@_15GPIOMPMH@?$AAe?$AAs@ 0000000180042b60     libcpmt:winapinls.obj
 0002:00003b68       ??_C@_15NGLOAKJC@?$AAf?$AAi@ 0000000180042b68     libcpmt:winapinls.obj
 0002:00003b70       ??_C@_15FBKGNKAM@?$AAf?$AAr@ 0000000180042b70     libcpmt:winapinls.obj
 0002:00003b78       ??_C@_15KGGCNEFK@?$AAh?$AAe@ 0000000180042b78     libcpmt:winapinls.obj
 0002:00003b80       ??_C@_15PGHLIDMF@?$AAh?$AAu@ 0000000180042b80     libcpmt:winapinls.obj
 0002:00003b88       ??_C@_15BIEMAPLM@?$AAi?$AAs@ 0000000180042b88     libcpmt:winapinls.obj
 0002:00003b90       ??_C@_15IFJLDHAF@?$AAi?$AAt@ 0000000180042b90     libcpmt:winapinls.obj
 0002:00003b98       ??_C@_15GEMIOCAG@?$AAj?$AAa@ 0000000180042b98     libcpmt:winapinls.obj
 0002:00003ba0       ??_C@_15EPELEGJA@?$AAk?$AAo@ 0000000180042ba0     libcpmt:winapinls.obj
 0002:00003ba8       ??_C@_15NDDHIMN@?$AAn?$AAl@ 0000000180042ba8     libcpmt:winapinls.obj
 0002:00003bb0       ??_C@_15BPIGNHCD@?$AAn?$AAo@ 0000000180042bb0     libcpmt:winapinls.obj
 0002:00003bb8       ??_C@_15DEOPBLCG@?$AAp?$AAl@ 0000000180042bb8     libcpmt:winapinls.obj
 0002:00003bc0       ??_C@_15KBECGEFG@?$AAp?$AAt@ 0000000180042bc0     libcpmt:winapinls.obj
 0002:00003bc8       ??_C@_15GLJCBFMD@?$AAr?$AAo@ 0000000180042bc8     libcpmt:winapinls.obj
 0002:00003bd0       ??_C@_15FEDGKCDI@?$AAr?$AAu@ 0000000180042bd0     libcpmt:winapinls.obj
 0002:00003bd8       ??_C@_15GLKMLLHM@?$AAh?$AAr@ 0000000180042bd8     libcpmt:winapinls.obj
 0002:00003be0       ??_C@_15CPKMFBDB@?$AAs?$AAk@ 0000000180042be0     libcpmt:winapinls.obj
 0002:00003be8       ??_C@_15BAAIOGMK@?$AAs?$AAq@ 0000000180042be8     libcpmt:winapinls.obj
 0002:00003bf0       ??_C@_15INNPNOHD@?$AAs?$AAv@ 0000000180042bf0     libcpmt:winapinls.obj
 0002:00003bf8       ??_C@_15CABMMOGH@?$AAt?$AAh@ 0000000180042bf8     libcpmt:winapinls.obj
 0002:00003c00       ??_C@_15BPLIHJJM@?$AAt?$AAr@ 0000000180042c00     libcpmt:winapinls.obj
 0002:00003c08       ??_C@_15NEOEKKDJ@?$AAu?$AAr@ 0000000180042c08     libcpmt:winapinls.obj
 0002:00003c10       ??_C@_15NFICGAJK@?$AAi?$AAd@ 0000000180042c10     libcpmt:winapinls.obj
 0002:00003c18       ??_C@_15PJPFLCCM@?$AAu?$AAk@ 0000000180042c18     libcpmt:winapinls.obj
 0002:00003c20       ??_C@_15HPJPHDM@?$AAb?$AAe@ 0000000180042c20     libcpmt:winapinls.obj
 0002:00003c28       ??_C@_15LCHLGJII@?$AAs?$AAl@ 0000000180042c28     libcpmt:winapinls.obj
 0002:00003c30       ??_C@_15PCFJPHHO@?$AAe?$AAt@ 0000000180042c30     libcpmt:winapinls.obj
 0002:00003c38       ??_C@_15HPFPGODN@?$AAl?$AAv@ 0000000180042c38     libcpmt:winapinls.obj
 0002:00003c40       ??_C@_15NFFGKGLG@?$AAl?$AAt@ 0000000180042c40     libcpmt:winapinls.obj
 0002:00003c48       ??_C@_15BDAKCCHN@?$AAf?$AAa@ 0000000180042c48     libcpmt:winapinls.obj
 0002:00003c50       ??_C@_15NFGIAIAJ@?$AAv?$AAi@ 0000000180042c50     libcpmt:winapinls.obj
 0002:00003c58       ??_C@_15LMKNDMHN@?$AAh?$AAy@ 0000000180042c58     libcpmt:winapinls.obj
 0002:00003c60       ??_C@_15IJBHMCFL@?$AAa?$AAz@ 0000000180042c60     libcpmt:winapinls.obj
 0002:00003c68       ??_C@_15EKOFJABL@?$AAe?$AAu@ 0000000180042c68     libcpmt:winapinls.obj
 0002:00003c70       ??_C@_15BGHADCNK@?$AAm?$AAk@ 0000000180042c70     libcpmt:winapinls.obj
 0002:00003c78       ??_C@_15JDNICKHM@?$AAa?$AAf@ 0000000180042c78     libcpmt:winapinls.obj
 0002:00003c80       ??_C@_15KPJEDBKD@?$AAk?$AAa@ 0000000180042c80     libcpmt:winapinls.obj
 0002:00003c88       ??_C@_15PDNFFFEO@?$AAf?$AAo@ 0000000180042c88     libcpmt:winapinls.obj
 0002:00003c90       ??_C@_15OMLEGLOC@?$AAh?$AAi@ 0000000180042c90     libcpmt:winapinls.obj
 0002:00003c98       ??_C@_15IDNNENKK@?$AAm?$AAs@ 0000000180042c98     libcpmt:winapinls.obj
 0002:00003ca0       ??_C@_15MACJNBMH@?$AAk?$AAk@ 0000000180042ca0     libcpmt:winapinls.obj
 0002:00003ca8       ??_C@_15DKDJEOND@?$AAk?$AAy@ 0000000180042ca8     libcpmt:winapinls.obj
 0002:00003cb0       ??_C@_15DFGDLJBG@?$AAs?$AAw@ 0000000180042cb0     libcpmt:winapinls.obj
 0002:00003cb8       ??_C@_15BBFAICNG@?$AAu?$AAz@ 0000000180042cb8     libcpmt:winapinls.obj
 0002:00003cc0       ??_C@_15DKNDCGEA@?$AAt?$AAt@ 0000000180042cc0     libcpmt:winapinls.obj
 0002:00003cc8       ??_C@_15MGIFMDPL@?$AAp?$AAa@ 0000000180042cc8     libcpmt:winapinls.obj
 0002:00003cd0       ??_C@_15HCNDBBA@?$AAg?$AAu@ 0000000180042cd0     libcpmt:winapinls.obj
 0002:00003cd8       ??_C@_15FNBEIBON@?$AAt?$AAa@ 0000000180042cd8     libcpmt:winapinls.obj
 0002:00003ce0       ??_C@_15NCHGBGLK@?$AAt?$AAe@ 0000000180042ce0     libcpmt:winapinls.obj
 0002:00003ce8       ??_C@_15PHPHCBPF@?$AAk?$AAn@ 0000000180042ce8     libcpmt:winapinls.obj
 0002:00003cf0       ??_C@_15DLGBCKMP@?$AAm?$AAr@ 0000000180042cf0     libcpmt:winapinls.obj
 0002:00003cf8       ??_C@_15EABBLBFF@?$AAs?$AAa@ 0000000180042cf8     libcpmt:winapinls.obj
 0002:00003d00       ??_C@_15CBKOMCOI@?$AAm?$AAn@ 0000000180042d00     libcpmt:winapinls.obj
 0002:00003d08       ??_C@_15CKDMCJAF@?$AAg?$AAl@ 0000000180042d08     libcpmt:winapinls.obj
 0002:00003d10       ??_C@_17CNJFBPG@?$AAk?$AAo?$AAk@ 0000000180042d10     libcpmt:winapinls.obj
 0002:00003d18       ??_C@_17FFBJICPL@?$AAs?$AAy?$AAr@ 0000000180042d18     libcpmt:winapinls.obj
 0002:00003d20       ??_C@_17KPNDCPAF@?$AAd?$AAi?$AAv@ 0000000180042d20     libcpmt:winapinls.obj
 0002:00003d28       ??_C@_1M@OKAHONE@?$AAa?$AAr?$AA?9?$AAS?$AAA@ 0000000180042d28     libcpmt:winapinls.obj
 0002:00003d38       ??_C@_1M@FFFIGIGK@?$AAb?$AAg?$AA?9?$AAB?$AAG@ 0000000180042d38     libcpmt:winapinls.obj
 0002:00003d48       ??_C@_1M@BJNKEDC@?$AAc?$AAa?$AA?9?$AAE?$AAS@ 0000000180042d48     libcpmt:winapinls.obj
 0002:00003d58       ??_C@_1M@CLNBBOPM@?$AAz?$AAh?$AA?9?$AAT?$AAW@ 0000000180042d58     libcpmt:winapinls.obj
 0002:00003d68       ??_C@_1M@IJJHFJHA@?$AAc?$AAs?$AA?9?$AAC?$AAZ@ 0000000180042d68     libcpmt:winapinls.obj
 0002:00003d78       ??_C@_1M@CLPEOBGI@?$AAd?$AAa?$AA?9?$AAD?$AAK@ 0000000180042d78     libcpmt:winapinls.obj
 0002:00003d88       ??_C@_1M@MCMADGCB@?$AAd?$AAe?$AA?9?$AAD?$AAE@ 0000000180042d88     libcpmt:winapinls.obj
 0002:00003d98       ??_C@_1M@OOCKEMAM@?$AAe?$AAl?$AA?9?$AAG?$AAR@ 0000000180042d98     libcpmt:winapinls.obj
 0002:00003da8       ??_C@_1M@BMHNFIME@?$AAe?$AAn?$AA?9?$AAU?$AAS@ 0000000180042da8     libcpmt:winapinls.obj
 0002:00003db8       ??_C@_1M@DDNJFGID@?$AAf?$AAi?$AA?9?$AAF?$AAI@ 0000000180042db8     libcpmt:winapinls.obj
 0002:00003dc8       ??_C@_1M@GLIPPMAC@?$AAf?$AAr?$AA?9?$AAF?$AAR@ 0000000180042dc8     libcpmt:winapinls.obj
 0002:00003dd8       ??_C@_1M@GFMCHPE@?$AAh?$AAe?$AA?9?$AAI?$AAL@ 0000000180042dd8     libcpmt:winapinls.obj
 0002:00003de8       ??_C@_1M@MHLPGNKM@?$AAh?$AAu?$AA?9?$AAH?$AAU@ 0000000180042de8     libcpmt:winapinls.obj
 0002:00003df8       ??_C@_1M@LPDDNNPN@?$AAi?$AAs?$AA?9?$AAI?$AAS@ 0000000180042df8     libcpmt:winapinls.obj
 0002:00003e08       ??_C@_1M@MADIPODN@?$AAi?$AAt?$AA?9?$AAI?$AAT@ 0000000180042e08     libcpmt:winapinls.obj
 0002:00003e18       ??_C@_1M@HPNHIDJI@?$AAj?$AAa?$AA?9?$AAJ?$AAP@ 0000000180042e18     libcpmt:winapinls.obj
 0002:00003e28       ??_C@_1M@JLOOOEGK@?$AAk?$AAo?$AA?9?$AAK?$AAR@ 0000000180042e28     libcpmt:winapinls.obj
 0002:00003e38       ??_C@_1M@IHBJJGG@?$AAn?$AAl?$AA?9?$AAN?$AAL@ 0000000180042e38     libcpmt:winapinls.obj
 0002:00003e48       ??_C@_1M@EANAGDL@?$AAn?$AAb?$AA?9?$AAN?$AAO@ 0000000180042e48     libcpmt:winapinls.obj
 0002:00003e58       ??_C@_1M@NEIEMEGP@?$AAp?$AAl?$AA?9?$AAP?$AAL@ 0000000180042e58     libcpmt:winapinls.obj
 0002:00003e68       ??_C@_1M@BOCFIGEP@?$AAp?$AAt?$AA?9?$AAB?$AAR@ 0000000180042e68     libcpmt:winapinls.obj
 0002:00003e78       ??_C@_1M@IMPFOPBG@?$AAr?$AAo?$AA?9?$AAR?$AAO@ 0000000180042e78     libcpmt:winapinls.obj
 0002:00003e88       ??_C@_1M@IDNNEJMM@?$AAr?$AAu?$AA?9?$AAR?$AAU@ 0000000180042e88     libcpmt:winapinls.obj
 0002:00003e98       ??_C@_1M@LILEEOGM@?$AAh?$AAr?$AA?9?$AAH?$AAR@ 0000000180042e98     libcpmt:winapinls.obj
 0002:00003ea8       ??_C@_1M@FKIFEHPB@?$AAs?$AAk?$AA?9?$AAS?$AAK@ 0000000180042ea8     libcpmt:winapinls.obj
 0002:00003eb8       ??_C@_1M@LJMAMNPJ@?$AAs?$AAq?$AA?9?$AAA?$AAL@ 0000000180042eb8     libcpmt:winapinls.obj
 0002:00003ec8       ??_C@_1M@GIAKDKJK@?$AAs?$AAv?$AA?9?$AAS?$AAE@ 0000000180042ec8     libcpmt:winapinls.obj
 0002:00003ed8       ??_C@_1M@MKJKIKCL@?$AAt?$AAh?$AA?9?$AAT?$AAH@ 0000000180042ed8     libcpmt:winapinls.obj
 0002:00003ee8       ??_C@_1M@MFLCCMPB@?$AAt?$AAr?$AA?9?$AAT?$AAR@ 0000000180042ee8     libcpmt:winapinls.obj
 0002:00003ef8       ??_C@_1M@OIJHDKJN@?$AAu?$AAr?$AA?9?$AAP?$AAK@ 0000000180042ef8     libcpmt:winapinls.obj
 0002:00003f08       ??_C@_1M@LHIPCIEK@?$AAi?$AAd?$AA?9?$AAI?$AAD@ 0000000180042f08     libcpmt:winapinls.obj
 0002:00003f18       ??_C@_1M@MFMOBGI@?$AAu?$AAk?$AA?9?$AAU?$AAA@ 0000000180042f18     libcpmt:winapinls.obj
 0002:00003f28       ??_C@_1M@OBGLJIPL@?$AAb?$AAe?$AA?9?$AAB?$AAY@ 0000000180042f28     libcpmt:winapinls.obj
 0002:00003f38       ??_C@_1M@BCFAJEAD@?$AAs?$AAl?$AA?9?$AAS?$AAI@ 0000000180042f38     libcpmt:winapinls.obj
 0002:00003f48       ??_C@_1M@FKFFEDDN@?$AAe?$AAt?$AA?9?$AAE?$AAE@ 0000000180042f48     libcpmt:winapinls.obj
 0002:00003f58       ??_C@_1M@KGKKAACI@?$AAl?$AAv?$AA?9?$AAL?$AAV@ 0000000180042f58     libcpmt:winapinls.obj
 0002:00003f68       ??_C@_1M@IFGBIJO@?$AAl?$AAt?$AA?9?$AAL?$AAT@ 0000000180042f68     libcpmt:winapinls.obj
 0002:00003f78       ??_C@_1M@FGEAHEDM@?$AAf?$AAa?$AA?9?$AAI?$AAR@ 0000000180042f78     libcpmt:winapinls.obj
 0002:00003f88       ??_C@_1M@KBMAIBFN@?$AAv?$AAi?$AA?9?$AAV?$AAN@ 0000000180042f88     libcpmt:winapinls.obj
 0002:00003f98       ??_C@_1M@GPCBKDJK@?$AAh?$AAy?$AA?9?$AAA?$AAM@ 0000000180042f98     libcpmt:winapinls.obj
 0002:00003fa8       ??_C@_1BG@BECMDDJB@?$AAa?$AAz?$AA?9?$AAA?$AAZ?$AA?9?$AAL?$AAa?$AAt?$AAn@ 0000000180042fa8     libcpmt:winapinls.obj
 0002:00003fc0       ??_C@_1M@MAOFCAEA@?$AAe?$AAu?$AA?9?$AAE?$AAS@ 0000000180042fc0     libcpmt:winapinls.obj
 0002:00003fd0       ??_C@_1M@IGHABKPI@?$AAm?$AAk?$AA?9?$AAM?$AAK@ 0000000180042fd0     libcpmt:winapinls.obj
 0002:00003fe0       ??_C@_1M@IAIGNEJG@?$AAt?$AAn?$AA?9?$AAZ?$AAA@ 0000000180042fe0     libcpmt:winapinls.obj
 0002:00003ff0       ??_C@_1M@IIJCOJFA@?$AAx?$AAh?$AA?9?$AAZ?$AAA@ 0000000180042ff0     libcpmt:winapinls.obj
 0002:00004000       ??_C@_1M@LGPJHNJH@?$AAz?$AAu?$AA?9?$AAZ?$AAA@ 0000000180043000     libcpmt:winapinls.obj
 0002:00004010       ??_C@_1M@HOKAOIO@?$AAa?$AAf?$AA?9?$AAZ?$AAA@ 0000000180043010     libcpmt:winapinls.obj
 0002:00004020       ??_C@_1M@DPCLHLIE@?$AAk?$AAa?$AA?9?$AAG?$AAE@ 0000000180043020     libcpmt:winapinls.obj
 0002:00004030       ??_C@_1M@BLKMHJBI@?$AAf?$AAo?$AA?9?$AAF?$AAO@ 0000000180043030     libcpmt:winapinls.obj
 0002:00004040       ??_C@_1M@LGGJAPPB@?$AAh?$AAi?$AA?9?$AAI?$AAN@ 0000000180043040     libcpmt:winapinls.obj
 0002:00004050       ??_C@_1M@FIKPIHFE@?$AAm?$AAt?$AA?9?$AAM?$AAT@ 0000000180043050     libcpmt:winapinls.obj
 0002:00004060       ??_C@_1M@HEGGPBFA@?$AAs?$AAe?$AA?9?$AAN?$AAO@ 0000000180043060     libcpmt:winapinls.obj
 0002:00004070       ??_C@_1M@EIBJEEPA@?$AAm?$AAs?$AA?9?$AAM?$AAY@ 0000000180043070     libcpmt:winapinls.obj
 0002:00004080       ??_C@_1M@FHLBGMPP@?$AAk?$AAk?$AA?9?$AAK?$AAZ@ 0000000180043080     libcpmt:winapinls.obj
 0002:00004090       ??_C@_1M@NGJJLCGI@?$AAk?$AAy?$AA?9?$AAK?$AAG@ 0000000180043090     libcpmt:winapinls.obj
 0002:000040a0       ??_C@_1M@GIENNBFC@?$AAs?$AAw?$AA?9?$AAK?$AAE@ 00000001800430a0     libcpmt:winapinls.obj
 0002:000040b0       ??_C@_1BG@NDGMJIMJ@?$AAu?$AAz?$AA?9?$AAU?$AAZ?$AA?9?$AAL?$AAa?$AAt?$AAn@ 00000001800430b0     libcpmt:winapinls.obj
 0002:000040c8       ??_C@_1M@IDCCIHBC@?$AAt?$AAt?$AA?9?$AAR?$AAU@ 00000001800430c8     libcpmt:winapinls.obj
 0002:000040d8       ??_C@_1M@LOICPMOJ@?$AAb?$AAn?$AA?9?$AAI?$AAN@ 00000001800430d8     libcpmt:winapinls.obj
 0002:000040e8       ??_C@_1M@KPKKNEAH@?$AAp?$AAa?$AA?9?$AAI?$AAN@ 00000001800430e8     libcpmt:winapinls.obj
 0002:000040f8       ??_C@_1M@PJGPPBOG@?$AAg?$AAu?$AA?9?$AAI?$AAN@ 00000001800430f8     libcpmt:winapinls.obj
 0002:00004108       ??_C@_1M@KMKMOPHI@?$AAt?$AAa?$AA?9?$AAI?$AAN@ 0000000180043108     libcpmt:winapinls.obj
 0002:00004118       ??_C@_1M@KFEHEPAC@?$AAt?$AAe?$AA?9?$AAI?$AAN@ 0000000180043118     libcpmt:winapinls.obj
 0002:00004128       ??_C@_1M@CDCLMGHI@?$AAk?$AAn?$AA?9?$AAI?$AAN@ 0000000180043128     libcpmt:winapinls.obj
 0002:00004138       ??_C@_1M@MIODLDKF@?$AAm?$AAl?$AA?9?$AAI?$AAN@ 0000000180043138     libcpmt:winapinls.obj
 0002:00004148       ??_C@_1M@PBIEACPO@?$AAm?$AAr?$AA?9?$AAI?$AAN@ 0000000180043148     libcpmt:winapinls.obj
 0002:00004158       ??_C@_1M@NIDEAGPH@?$AAs?$AAa?$AA?9?$AAI?$AAN@ 0000000180043158     libcpmt:winapinls.obj
 0002:00004168       ??_C@_1M@FHIHCBIO@?$AAm?$AAn?$AA?9?$AAM?$AAN@ 0000000180043168     libcpmt:winapinls.obj
 0002:00004178       ??_C@_1M@JAIJPENP@?$AAc?$AAy?$AA?9?$AAG?$AAB@ 0000000180043178     libcpmt:winapinls.obj
 0002:00004188       ??_C@_1M@PHGFBEPN@?$AAg?$AAl?$AA?9?$AAE?$AAS@ 0000000180043188     libcpmt:winapinls.obj
 0002:00004198       ??_C@_1O@KPIPDNCP@?$AAk?$AAo?$AAk?$AA?9?$AAI?$AAN@ 0000000180043198     libcpmt:winapinls.obj
 0002:000041a8       ??_C@_1O@KNHJLDJA@?$AAs?$AAy?$AAr?$AA?9?$AAS?$AAY@ 00000001800431a8     libcpmt:winapinls.obj
 0002:000041b8       ??_C@_1O@MKEKBLAH@?$AAd?$AAi?$AAv?$AA?9?$AAM?$AAV@ 00000001800431b8     libcpmt:winapinls.obj
 0002:000041c8       ??_C@_1O@OHDCKDDF@?$AAq?$AAu?$AAz?$AA?9?$AAB?$AAO@ 00000001800431c8     libcpmt:winapinls.obj
 0002:000041d8       ??_C@_1M@LEPJNLFD@?$AAn?$AAs?$AA?9?$AAZ?$AAA@ 00000001800431d8     libcpmt:winapinls.obj
 0002:000041e8       ??_C@_1M@OMLEIIJB@?$AAm?$AAi?$AA?9?$AAN?$AAZ@ 00000001800431e8     libcpmt:winapinls.obj
 0002:000041f8       ??_C@_1M@PMPEAILG@?$AAa?$AAr?$AA?9?$AAI?$AAQ@ 00000001800431f8     libcpmt:winapinls.obj
 0002:00004208       ??_C@_1M@BIBDDEMK@?$AAz?$AAh?$AA?9?$AAC?$AAN@ 0000000180043208     libcpmt:winapinls.obj
 0002:00004218       ??_C@_1M@CNKPNOEE@?$AAd?$AAe?$AA?9?$AAC?$AAH@ 0000000180043218     libcpmt:winapinls.obj
 0002:00004228       ??_C@_1M@LKMGMLKO@?$AAe?$AAn?$AA?9?$AAG?$AAB@ 0000000180043228     libcpmt:winapinls.obj
 0002:00004238       ??_C@_1M@PGKJFFGL@?$AAe?$AAs?$AA?9?$AAM?$AAX@ 0000000180043238     libcpmt:winapinls.obj
 0002:00004248       ??_C@_1M@DNNANBDC@?$AAf?$AAr?$AA?9?$AAB?$AAE@ 0000000180043248     libcpmt:winapinls.obj
 0002:00004258       ??_C@_1M@HLGMDFHM@?$AAi?$AAt?$AA?9?$AAC?$AAH@ 0000000180043258     libcpmt:winapinls.obj
 0002:00004268       ??_C@_1M@CLLBGJH@?$AAn?$AAl?$AA?9?$AAB?$AAE@ 0000000180043268     libcpmt:winapinls.obj
 0002:00004278       ??_C@_1M@BODBOGLF@?$AAn?$AAn?$AA?9?$AAN?$AAO@ 0000000180043278     libcpmt:winapinls.obj
 0002:00004288       ??_C@_1M@HFFAHKAD@?$AAp?$AAt?$AA?9?$AAP?$AAT@ 0000000180043288     libcpmt:winapinls.obj
 0002:00004298       ??_C@_1BG@LNOAKHIE@?$AAs?$AAr?$AA?9?$AAS?$AAP?$AA?9?$AAL?$AAa?$AAt?$AAn@ 0000000180043298     libcpmt:winapinls.obj
 0002:000042b0       ??_C@_1M@HBMHBGAK@?$AAs?$AAv?$AA?9?$AAF?$AAI@ 00000001800432b0     libcpmt:winapinls.obj
 0002:000042c0       ??_C@_1BG@DGCJGJBE@?$AAa?$AAz?$AA?9?$AAA?$AAZ?$AA?9?$AAC?$AAy?$AAr?$AAl@ 00000001800432c0     libcpmt:winapinls.obj
 0002:000042d8       ??_C@_1M@KEJDAAHB@?$AAs?$AAe?$AA?9?$AAS?$AAE@ 00000001800432d8     libcpmt:winapinls.obj
 0002:000042e8       ??_C@_1M@HEIBJJAD@?$AAm?$AAs?$AA?9?$AAB?$AAN@ 00000001800432e8     libcpmt:winapinls.obj
 0002:000042f8       ??_C@_1BG@PBGJMCEM@?$AAu?$AAz?$AA?9?$AAU?$AAZ?$AA?9?$AAC?$AAy?$AAr?$AAl@ 00000001800432f8     libcpmt:winapinls.obj
 0002:00004310       ??_C@_1O@LAOBCMDF@?$AAq?$AAu?$AAz?$AA?9?$AAE?$AAC@ 0000000180043310     libcpmt:winapinls.obj
 0002:00004320       ??_C@_1M@POEEMAIO@?$AAa?$AAr?$AA?9?$AAE?$AAG@ 0000000180043320     libcpmt:winapinls.obj
 0002:00004330       ??_C@_1M@EFAKDEDL@?$AAz?$AAh?$AA?9?$AAH?$AAK@ 0000000180043330     libcpmt:winapinls.obj
 0002:00004340       ??_C@_1M@HKKIJHGI@?$AAd?$AAe?$AA?9?$AAA?$AAT@ 0000000180043340     libcpmt:winapinls.obj
 0002:00004350       ??_C@_1M@KBFBEHJF@?$AAe?$AAn?$AA?9?$AAA?$AAU@ 0000000180043350     libcpmt:winapinls.obj
 0002:00004360       ??_C@_1M@MNPLFAAH@?$AAe?$AAs?$AA?9?$AAE?$AAS@ 0000000180043360     libcpmt:winapinls.obj
 0002:00004370       ??_C@_1M@HJOOJFMA@?$AAf?$AAr?$AA?9?$AAC?$AAA@ 0000000180043370     libcpmt:winapinls.obj
 0002:00004380       ??_C@_1BG@JPOFPNAB@?$AAs?$AAr?$AA?9?$AAS?$AAP?$AA?9?$AAC?$AAy?$AAr?$AAl@ 0000000180043380     libcpmt:winapinls.obj
 0002:00004398       ??_C@_1M@LNFOCMOB@?$AAs?$AAe?$AA?9?$AAF?$AAI@ 0000000180043398     libcpmt:winapinls.obj
 0002:000043a8       ??_C@_1O@MGJBOAMB@?$AAq?$AAu?$AAz?$AA?9?$AAP?$AAE@ 00000001800433a8     libcpmt:winapinls.obj
 0002:000043b8       ??_C@_1M@GJINLBOK@?$AAa?$AAr?$AA?9?$AAL?$AAY@ 00000001800433b8     libcpmt:winapinls.obj
 0002:000043c8       ??_C@_1M@GGMNHJNL@?$AAz?$AAh?$AA?9?$AAS?$AAG@ 00000001800433c8     libcpmt:winapinls.obj
 0002:000043d8       ??_C@_1M@HOIKODND@?$AAd?$AAe?$AA?9?$AAL?$AAU@ 00000001800433d8     libcpmt:winapinls.obj
 0002:000043e8       ??_C@_1M@DDOCCGFG@?$AAe?$AAn?$AA?9?$AAC?$AAA@ 00000001800433e8     libcpmt:winapinls.obj
 0002:000043f8       ??_C@_1M@BNOEMJLF@?$AAe?$AAs?$AA?9?$AAG?$AAT@ 00000001800433f8     libcpmt:winapinls.obj
 0002:00004408       ??_C@_1M@EOGNKEK@?$AAf?$AAr?$AA?9?$AAC?$AAH@ 0000000180043408     libcpmt:winapinls.obj
 0002:00004418       ??_C@_1M@FLIDJFHL@?$AAh?$AAr?$AA?9?$AAB?$AAA@ 0000000180043418     libcpmt:winapinls.obj
 0002:00004428       ??_C@_1O@FMCELNAJ@?$AAs?$AAm?$AAj?$AA?9?$AAN?$AAO@ 0000000180043428     libcpmt:winapinls.obj
 0002:00004438       ??_C@_1M@JHGLJMGJ@?$AAa?$AAr?$AA?9?$AAD?$AAZ@ 0000000180043438     libcpmt:winapinls.obj
 0002:00004448       ??_C@_1M@JKKFDCNP@?$AAz?$AAh?$AA?9?$AAM?$AAO@ 0000000180043448     libcpmt:winapinls.obj
 0002:00004458       ??_C@_1M@GEEFALPE@?$AAd?$AAe?$AA?9?$AAL?$AAI@ 0000000180043458     libcpmt:winapinls.obj
 0002:00004468       ??_C@_1M@IGEOFBG@?$AAe?$AAn?$AA?9?$AAN?$AAZ@ 0000000180043468     libcpmt:winapinls.obj
 0002:00004478       ??_C@_1M@KDBONEHP@?$AAe?$AAs?$AA?9?$AAC?$AAR@ 0000000180043478     libcpmt:winapinls.obj
 0002:00004488       ??_C@_1M@FHMDOHNN@?$AAf?$AAr?$AA?9?$AAL?$AAU@ 0000000180043488     libcpmt:winapinls.obj
 0002:00004498       ??_C@_1BG@NFKKMAFG@?$AAb?$AAs?$AA?9?$AAB?$AAA?$AA?9?$AAL?$AAa?$AAt?$AAn@ 0000000180043498     libcpmt:winapinls.obj
 0002:000044b0       ??_C@_1O@IMNBEMCI@?$AAs?$AAm?$AAj?$AA?9?$AAS?$AAE@ 00000001800434b0     libcpmt:winapinls.obj
 0002:000044c0       ??_C@_1M@DHHMBNDP@?$AAa?$AAr?$AA?9?$AAM?$AAA@ 00000001800434c0     libcpmt:winapinls.obj
 0002:000044d0       ??_C@_1M@BNBLJCGH@?$AAe?$AAn?$AA?9?$AAI?$AAE@ 00000001800434d0     libcpmt:winapinls.obj
 0002:000044e0       ??_C@_1M@GEPAFMDL@?$AAe?$AAs?$AA?9?$AAP?$AAA@ 00000001800434e0     libcpmt:winapinls.obj
 0002:000044f0       ??_C@_1M@OJONDMDL@?$AAf?$AAr?$AA?9?$AAM?$AAC@ 00000001800434f0     libcpmt:winapinls.obj
 0002:00004500       ??_C@_1BG@OBCNFJB@?$AAs?$AAr?$AA?9?$AAB?$AAA?$AA?9?$AAL?$AAa?$AAt?$AAn@ 0000000180043500     libcpmt:winapinls.obj
 0002:00004518       ??_C@_1O@KEMEEGPO@?$AAs?$AAm?$AAa?$AA?9?$AAN?$AAO@ 0000000180043518     libcpmt:winapinls.obj
 0002:00004528       ??_C@_1M@ELMGFODK@?$AAa?$AAr?$AA?9?$AAT?$AAN@ 0000000180043528     libcpmt:winapinls.obj
 0002:00004538       ??_C@_1M@BHDLHFAF@?$AAe?$AAn?$AA?9?$AAZ?$AAA@ 0000000180043538     libcpmt:winapinls.obj
 0002:00004548       ??_C@_1M@BMGIGLIF@?$AAe?$AAs?$AA?9?$AAD?$AAO@ 0000000180043548     libcpmt:winapinls.obj
 0002:00004558       ??_C@_1BG@CMBHIPBE@?$AAs?$AAr?$AA?9?$AAB?$AAA?$AA?9?$AAC?$AAy?$AAr?$AAl@ 0000000180043558     libcpmt:winapinls.obj
 0002:00004570       ??_C@_1O@HEDBLHNP@?$AAs?$AAm?$AAa?$AA?9?$AAS?$AAE@ 0000000180043570     libcpmt:winapinls.obj
 0002:00004580       ??_C@_1M@DAGCADIM@?$AAa?$AAr?$AA?9?$AAO?$AAM@ 0000000180043580     libcpmt:winapinls.obj
 0002:00004590       ??_C@_1M@FODLMICG@?$AAe?$AAn?$AA?9?$AAJ?$AAM@ 0000000180043590     libcpmt:winapinls.obj
 0002:000045a0       ??_C@_1M@DNMLCIHB@?$AAe?$AAs?$AA?9?$AAV?$AAE@ 00000001800435a0     libcpmt:winapinls.obj
 0002:000045b0       ??_C@_1O@EOKHMKJK@?$AAs?$AAm?$AAs?$AA?9?$AAF?$AAI@ 00000001800435b0     libcpmt:winapinls.obj
 0002:000045c0       ??_C@_1M@CAFJMKOF@?$AAa?$AAr?$AA?9?$AAY?$AAE@ 00000001800435c0     libcpmt:winapinls.obj
 0002:000045d0       ??_C@_1M@CBFHIJLI@?$AAe?$AAn?$AA?9?$AAC?$AAB@ 00000001800435d0     libcpmt:winapinls.obj
 0002:000045e0       ??_C@_1M@BGNFLDN@?$AAe?$AAs?$AA?9?$AAC?$AAO@ 00000001800435e0     libcpmt:winapinls.obj
 0002:000045f0       ??_C@_1O@JMPHMAMC@?$AAs?$AAm?$AAn?$AA?9?$AAF?$AAI@ 00000001800435f0     libcpmt:winapinls.obj
 0002:00004600       ??_C@_1M@JLANABKE@?$AAa?$AAr?$AA?9?$AAS?$AAY@ 0000000180043600     libcpmt:winapinls.obj
 0002:00004610       ??_C@_1M@HPKGCFGN@?$AAe?$AAn?$AA?9?$AAB?$AAZ@ 0000000180043610     libcpmt:winapinls.obj
 0002:00004620       ??_C@_1M@OLJCMLGM@?$AAe?$AAs?$AA?9?$AAP?$AAE@ 0000000180043620     libcpmt:winapinls.obj
 0002:00004630       ??_C@_1M@MKKGFKLE@?$AAa?$AAr?$AA?9?$AAJ?$AAO@ 0000000180043630     libcpmt:winapinls.obj
 0002:00004640       ??_C@_1M@EKPGLDNI@?$AAe?$AAn?$AA?9?$AAT?$AAT@ 0000000180043640     libcpmt:winapinls.obj
 0002:00004650       ??_C@_1M@OONGHFHE@?$AAe?$AAs?$AA?9?$AAA?$AAR@ 0000000180043650     libcpmt:winapinls.obj
 0002:00004660       ??_C@_1M@OOJFGBHE@?$AAa?$AAr?$AA?9?$AAL?$AAB@ 0000000180043660     libcpmt:winapinls.obj
 0002:00004670       ??_C@_1M@GCEJHNEG@?$AAe?$AAn?$AA?9?$AAZ?$AAW@ 0000000180043670     libcpmt:winapinls.obj
 0002:00004680       ??_C@_1M@JNOCAHJI@?$AAe?$AAs?$AA?9?$AAE?$AAC@ 0000000180043680     libcpmt:winapinls.obj
 0002:00004690       ??_C@_1M@JEFHPGGB@?$AAa?$AAr?$AA?9?$AAK?$AAW@ 0000000180043690     libcpmt:winapinls.obj
 0002:000046a0       ??_C@_1M@MLKIBJOJ@?$AAe?$AAn?$AA?9?$AAP?$AAH@ 00000001800436a0     libcpmt:winapinls.obj
 0002:000046b0       ??_C@_1M@BDNIPEND@?$AAe?$AAs?$AA?9?$AAC?$AAL@ 00000001800436b0     libcpmt:winapinls.obj
 0002:000046c0       ??_C@_1M@MPNMEKBD@?$AAa?$AAr?$AA?9?$AAA?$AAE@ 00000001800436c0     libcpmt:winapinls.obj
 0002:000046d0       ??_C@_1M@KBJALCPI@?$AAe?$AAs?$AA?9?$AAU?$AAY@ 00000001800436d0     libcpmt:winapinls.obj
 0002:000046e0       ??_C@_1M@LLCCOAGA@?$AAa?$AAr?$AA?9?$AAB?$AAH@ 00000001800436e0     libcpmt:winapinls.obj
 0002:000046f0       ??_C@_1M@PBFNCDEL@?$AAe?$AAs?$AA?9?$AAP?$AAY@ 00000001800436f0     libcpmt:winapinls.obj
 0002:00004700       ??_C@_1M@EDGINPNP@?$AAa?$AAr?$AA?9?$AAQ?$AAA@ 0000000180043700     libcpmt:winapinls.obj
 0002:00004710       ??_C@_1M@MKDBIIJI@?$AAe?$AAs?$AA?9?$AAB?$AAO@ 0000000180043710     libcpmt:winapinls.obj
 0002:00004720       ??_C@_1M@CPKKEBLD@?$AAe?$AAs?$AA?9?$AAS?$AAV@ 0000000180043720     libcpmt:winapinls.obj
 0002:00004730       ??_C@_1M@NDBGMMJL@?$AAe?$AAs?$AA?9?$AAH?$AAN@ 0000000180043730     libcpmt:winapinls.obj
 0002:00004740       ??_C@_1M@JIJIBHDP@?$AAe?$AAs?$AA?9?$AAN?$AAI@ 0000000180043740     libcpmt:winapinls.obj
 0002:00004750       ??_C@_1M@CGFMKEEK@?$AAe?$AAs?$AA?9?$AAP?$AAR@ 0000000180043750     libcpmt:winapinls.obj
 0002:00004760       ??_C@_1O@ICJHKIIK@?$AAz?$AAh?$AA?9?$AAC?$AAH?$AAT@ 0000000180043760     libcpmt:winapinls.obj
 0002:00004770       ??_C@_15CLNEJCE@?$AAs?$AAr@ 0000000180043770     libcpmt:winapinls.obj
 0002:00004778       ??_C@_1M@KAHEKEIG@?$AAa?$AAf?$AA?9?$AAz?$AAa@ 0000000180043778     libcpmt:winapinls.obj
 0002:00004788       ??_C@_1M@GIECOABL@?$AAa?$AAr?$AA?9?$AAa?$AAe@ 0000000180043788     libcpmt:winapinls.obj
 0002:00004798       ??_C@_1M@BMLMEKGI@?$AAa?$AAr?$AA?9?$AAb?$AAh@ 0000000180043798     libcpmt:winapinls.obj
 0002:000047a8       ??_C@_1M@DAPFDGGB@?$AAa?$AAr?$AA?9?$AAd?$AAz@ 00000001800437a8     libcpmt:winapinls.obj
 0002:000047b8       ??_C@_1M@FJNKGKIG@?$AAa?$AAr?$AA?9?$AAe?$AAg@ 00000001800437b8     libcpmt:winapinls.obj
 0002:000047c8       ??_C@_1M@FLGKKCLO@?$AAa?$AAr?$AA?9?$AAi?$AAq@ 00000001800437c8     libcpmt:winapinls.obj
 0002:000047d8       ??_C@_1M@GNDIPALM@?$AAa?$AAr?$AA?9?$AAj?$AAo@ 00000001800437d8     libcpmt:winapinls.obj
 0002:000047e8       ??_C@_1M@DDMJFMGJ@?$AAa?$AAr?$AA?9?$AAk?$AAw@ 00000001800437e8     libcpmt:winapinls.obj
 0002:000047f8       ??_C@_1M@EJALMLHM@?$AAa?$AAr?$AA?9?$AAl?$AAb@ 00000001800437f8     libcpmt:winapinls.obj
 0002:00004808       ??_C@_1M@MOBDBLOC@?$AAa?$AAr?$AA?9?$AAl?$AAy@ 0000000180043808     libcpmt:winapinls.obj
 0002:00004818       ??_C@_1M@JAOCLHDH@?$AAa?$AAr?$AA?9?$AAm?$AAa@ 0000000180043818     libcpmt:winapinls.obj
 0002:00004828       ??_C@_1M@JHPMKJIE@?$AAa?$AAr?$AA?9?$AAo?$AAm@ 0000000180043828     libcpmt:winapinls.obj
 0002:00004838       ??_C@_1M@OEPGHFNH@?$AAa?$AAr?$AA?9?$AAq?$AAa@ 0000000180043838     libcpmt:winapinls.obj
 0002:00004848       ??_C@_1M@KJDONENM@?$AAa?$AAr?$AA?9?$AAs?$AAa@ 0000000180043848     libcpmt:winapinls.obj
 0002:00004858       ??_C@_1M@DMJDKLKM@?$AAa?$AAr?$AA?9?$AAs?$AAy@ 0000000180043858     libcpmt:winapinls.obj
 0002:00004868       ??_C@_1M@OMFIPEDC@?$AAa?$AAr?$AA?9?$AAt?$AAn@ 0000000180043868     libcpmt:winapinls.obj
 0002:00004878       ??_C@_1M@IHMHGAON@?$AAa?$AAr?$AA?9?$AAy?$AAe@ 0000000180043878     libcpmt:winapinls.obj
 0002:00004888       ??_C@_1BG@KDCPGJGB@?$AAa?$AAz?$AA?9?$AAa?$AAz?$AA?9?$AAc?$AAy?$AAr?$AAl@ 0000000180043888     libcpmt:winapinls.obj
 0002:000048a0       ??_C@_1BG@IBCKDDOE@?$AAa?$AAz?$AA?9?$AAa?$AAz?$AA?9?$AAl?$AAa?$AAt?$AAn@ 00000001800438a0     libcpmt:winapinls.obj
 0002:000048b8       ??_C@_1M@EGPFDCPD@?$AAb?$AAe?$AA?9?$AAb?$AAy@ 00000001800438b8     libcpmt:winapinls.obj
 0002:000048c8       ??_C@_1M@PCMGMCGC@?$AAb?$AAg?$AA?9?$AAb?$AAg@ 00000001800438c8     libcpmt:winapinls.obj
 0002:000048d8       ??_C@_1M@BJBMFGOB@?$AAb?$AAn?$AA?9?$AAi?$AAn@ 00000001800438d8     libcpmt:winapinls.obj
 0002:000048e8       ??_C@_1BG@EAKMMACD@?$AAb?$AAs?$AA?9?$AAb?$AAa?$AA?9?$AAl?$AAa?$AAt?$AAn@ 00000001800438e8     libcpmt:winapinls.obj
 0002:00004900       ??_C@_1M@KGADAODK@?$AAc?$AAa?$AA?9?$AAe?$AAs@ 0000000180043900     libcpmt:winapinls.obj
 0002:00004910       ??_C@_1M@COAJPDHI@?$AAc?$AAs?$AA?9?$AAc?$AAz@ 0000000180043910     libcpmt:winapinls.obj
 0002:00004920       ??_C@_1M@DHBHFONH@?$AAc?$AAy?$AA?9?$AAg?$AAb@ 0000000180043920     libcpmt:winapinls.obj
 0002:00004930       ??_C@_1M@IMGKELGA@?$AAd?$AAa?$AA?9?$AAd?$AAk@ 0000000180043930     libcpmt:winapinls.obj
 0002:00004940       ??_C@_1M@NNDGDNGA@?$AAd?$AAe?$AA?9?$AAa?$AAt@ 0000000180043940     libcpmt:winapinls.obj
 0002:00004950       ??_C@_1M@IKDBHEEM@?$AAd?$AAe?$AA?9?$AAc?$AAh@ 0000000180043950     libcpmt:winapinls.obj
 0002:00004960       ??_C@_1M@GFFOJMCJ@?$AAd?$AAe?$AA?9?$AAd?$AAe@ 0000000180043960     libcpmt:winapinls.obj
 0002:00004970       ??_C@_1M@MDNLKBPM@?$AAd?$AAe?$AA?9?$AAl?$AAi@ 0000000180043970     libcpmt:winapinls.obj
 0002:00004980       ??_C@_1M@NJBEEJNL@?$AAd?$AAe?$AA?9?$AAl?$AAu@ 0000000180043980     libcpmt:winapinls.obj
 0002:00004990       ??_C@_1O@GNNELBAP@?$AAd?$AAi?$AAv?$AA?9?$AAm?$AAv@ 0000000180043990     libcpmt:winapinls.obj
 0002:000049a0       ??_C@_1M@EJLEOGAE@?$AAe?$AAl?$AA?9?$AAg?$AAr@ 00000001800439a0     libcpmt:winapinls.obj
 0002:000049b0       ??_C@_1M@GMPONJN@?$AAe?$AAn?$AA?9?$AAa?$AAu@ 00000001800439b0     libcpmt:winapinls.obj
 0002:000049c0       ??_C@_1M@NIDIIPGF@?$AAe?$AAn?$AA?9?$AAb?$AAz@ 00000001800439c0     libcpmt:winapinls.obj
 0002:000049d0       ??_C@_1M@JEHMIMFO@?$AAe?$AAn?$AA?9?$AAc?$AAa@ 00000001800439d0     libcpmt:winapinls.obj
 0002:000049e0       ??_C@_1M@IGMJCDLA@?$AAe?$AAn?$AA?9?$AAc?$AAb@ 00000001800439e0     libcpmt:winapinls.obj
 0002:000049f0       ??_C@_1M@BNFIGBKG@?$AAe?$AAn?$AA?9?$AAg?$AAb@ 00000001800439f0     libcpmt:winapinls.obj
 0002:00004a00       ??_C@_1M@LKIFDIGP@?$AAe?$AAn?$AA?9?$AAi?$AAe@ 0000000180043a00     libcpmt:winapinls.obj
 0002:00004a10       ??_C@_1M@PJKFGCCO@?$AAe?$AAn?$AA?9?$AAj?$AAm@ 0000000180043a10     libcpmt:winapinls.obj
 0002:00004a20       ??_C@_1M@KPPKEPBO@?$AAe?$AAn?$AA?9?$AAn?$AAz@ 0000000180043a20     libcpmt:winapinls.obj
 0002:00004a30       ??_C@_1M@GMDGLDOB@?$AAe?$AAn?$AA?9?$AAp?$AAh@ 0000000180043a30     libcpmt:winapinls.obj
 0002:00004a40       ??_C@_1M@ONGIBJNA@?$AAe?$AAn?$AA?9?$AAt?$AAt@ 0000000180043a40     libcpmt:winapinls.obj
 0002:00004a50       ??_C@_1M@LLODPCMM@?$AAe?$AAn?$AA?9?$AAu?$AAs@ 0000000180043a50     libcpmt:winapinls.obj
 0002:00004a60       ??_C@_1M@LAKFNPAN@?$AAe?$AAn?$AA?9?$AAz?$AAa@ 0000000180043a60     libcpmt:winapinls.obj
 0002:00004a70       ??_C@_1M@MFNHNHEO@?$AAe?$AAn?$AA?9?$AAz?$AAw@ 0000000180043a70     libcpmt:winapinls.obj
 0002:00004a80       ??_C@_1M@EJEINPHM@?$AAe?$AAs?$AA?9?$AAa?$AAr@ 0000000180043a80     libcpmt:winapinls.obj
 0002:00004a90       ??_C@_1M@GNKPCCJA@?$AAe?$AAs?$AA?9?$AAb?$AAo@ 0000000180043a90     libcpmt:winapinls.obj
 0002:00004aa0       ??_C@_1M@LEEGFONL@?$AAe?$AAs?$AA?9?$AAc?$AAl@ 0000000180043aa0     libcpmt:winapinls.obj
 0002:00004ab0       ??_C@_1M@KGPDPBDF@?$AAe?$AAs?$AA?9?$AAc?$AAo@ 0000000180043ab0     libcpmt:winapinls.obj
 0002:00004ac0       ??_C@_1M@EIAHOHH@?$AAe?$AAs?$AA?9?$AAc?$AAr@ 0000000180043ac0     libcpmt:winapinls.obj
 0002:00004ad0       ??_C@_1M@LLPGMBIN@?$AAe?$AAs?$AA?9?$AAd?$AAo@ 0000000180043ad0     libcpmt:winapinls.obj
 0002:00004ae0       ??_C@_1M@DKHMKNJA@?$AAe?$AAs?$AA?9?$AAe?$AAc@ 0000000180043ae0     libcpmt:winapinls.obj
 0002:00004af0       ??_C@_1M@GKGFPKAP@?$AAe?$AAs?$AA?9?$AAe?$AAs@ 0000000180043af0     libcpmt:winapinls.obj
 0002:00004b00       ??_C@_1M@LKHKGDLN@?$AAe?$AAs?$AA?9?$AAg?$AAt@ 0000000180043b00     libcpmt:winapinls.obj
 0002:00004b10       ??_C@_1M@HEIIGGJD@?$AAe?$AAs?$AA?9?$AAh?$AAn@ 0000000180043b10     libcpmt:winapinls.obj
 0002:00004b20       ??_C@_1M@FBDHPPGD@?$AAe?$AAs?$AA?9?$AAm?$AAx@ 0000000180043b20     libcpmt:winapinls.obj
 0002:00004b30       ??_C@_1M@DPAGLNDH@?$AAe?$AAs?$AA?9?$AAn?$AAi@ 0000000180043b30     libcpmt:winapinls.obj
 0002:00004b40       ??_C@_1M@MDGOPGDD@?$AAe?$AAs?$AA?9?$AAp?$AAa@ 0000000180043b40     libcpmt:winapinls.obj
 0002:00004b50       ??_C@_1M@EMAMGBGE@?$AAe?$AAs?$AA?9?$AAp?$AAe@ 0000000180043b50     libcpmt:winapinls.obj
 0002:00004b60       ??_C@_1M@IBMCAOEC@?$AAe?$AAs?$AA?9?$AAp?$AAr@ 0000000180043b60     libcpmt:winapinls.obj
 0002:00004b70       ??_C@_1M@FGMDIJED@?$AAe?$AAs?$AA?9?$AAp?$AAy@ 0000000180043b70     libcpmt:winapinls.obj
 0002:00004b80       ??_C@_1M@IIDEOLLL@?$AAe?$AAs?$AA?9?$AAs?$AAv@ 0000000180043b80     libcpmt:winapinls.obj
 0002:00004b90       ??_C@_1M@GAOBIPA@?$AAe?$AAs?$AA?9?$AAu?$AAy@ 0000000180043b90     libcpmt:winapinls.obj
 0002:00004ba0       ??_C@_1M@JKFFICHJ@?$AAe?$AAs?$AA?9?$AAv?$AAe@ 0000000180043ba0     libcpmt:winapinls.obj
 0002:00004bb0       ??_C@_1M@PNMLOJDF@?$AAe?$AAt?$AA?9?$AAe?$AAe@ 0000000180043bb0     libcpmt:winapinls.obj
 0002:00004bc0       ??_C@_1M@GHHLIKEI@?$AAe?$AAu?$AA?9?$AAe?$AAs@ 0000000180043bc0     libcpmt:winapinls.obj
 0002:00004bd0       ??_C@_1M@PBNONODE@?$AAf?$AAa?$AA?9?$AAi?$AAr@ 0000000180043bd0     libcpmt:winapinls.obj
 0002:00004be0       ??_C@_1M@JEEHPMIL@?$AAf?$AAi?$AA?9?$AAf?$AAi@ 0000000180043be0     libcpmt:winapinls.obj
 0002:00004bf0       ??_C@_1M@LMDCNDBA@?$AAf?$AAo?$AA?9?$AAf?$AAo@ 0000000180043bf0     libcpmt:winapinls.obj
 0002:00004c00       ??_C@_1M@JKEOHLDK@?$AAf?$AAr?$AA?9?$AAb?$AAe@ 0000000180043c00     libcpmt:winapinls.obj
 0002:00004c10       ??_C@_1M@NOHADPMI@?$AAf?$AAr?$AA?9?$AAc?$AAa@ 0000000180043c10     libcpmt:winapinls.obj
 0002:00004c20       ??_C@_1M@KDHIHAEC@?$AAf?$AAr?$AA?9?$AAc?$AAh@ 0000000180043c20     libcpmt:winapinls.obj
 0002:00004c30       ??_C@_1M@MMBBFGAK@?$AAf?$AAr?$AA?9?$AAf?$AAr@ 0000000180043c30     libcpmt:winapinls.obj
 0002:00004c40       ??_C@_1M@PAFNENNF@?$AAf?$AAr?$AA?9?$AAl?$AAu@ 0000000180043c40     libcpmt:winapinls.obj
 0002:00004c50       ??_C@_1M@EOHDJGDD@?$AAf?$AAr?$AA?9?$AAm?$AAc@ 0000000180043c50     libcpmt:winapinls.obj
 0002:00004c60       ??_C@_1M@FAPLLOPF@?$AAg?$AAl?$AA?9?$AAe?$AAs@ 0000000180043c60     libcpmt:winapinls.obj
 0002:00004c70       ??_C@_1M@FOPBFLOO@?$AAg?$AAu?$AA?9?$AAi?$AAn@ 0000000180043c70     libcpmt:winapinls.obj
 0002:00004c80       ??_C@_1M@KBMCINPM@?$AAh?$AAe?$AA?9?$AAi?$AAl@ 0000000180043c80     libcpmt:winapinls.obj
 0002:00004c90       ??_C@_1M@BBPHKFPJ@?$AAh?$AAi?$AA?9?$AAi?$AAn@ 0000000180043c90     libcpmt:winapinls.obj
 0002:00004ca0       ??_C@_1M@PMBNDPHD@?$AAh?$AAr?$AA?9?$AAb?$AAa@ 0000000180043ca0     libcpmt:winapinls.obj
 0002:00004cb0       ??_C@_1M@BPCKOEGE@?$AAh?$AAr?$AA?9?$AAh?$AAr@ 0000000180043cb0     libcpmt:winapinls.obj
 0002:00004cc0       ??_C@_1M@GACBMHKE@?$AAh?$AAu?$AA?9?$AAh?$AAu@ 0000000180043cc0     libcpmt:winapinls.obj
 0002:00004cd0       ??_C@_1M@MILPAJJC@?$AAh?$AAy?$AA?9?$AAa?$AAm@ 0000000180043cd0     libcpmt:winapinls.obj
 0002:00004ce0       ??_C@_1M@BABBICEC@?$AAi?$AAd?$AA?9?$AAi?$AAd@ 0000000180043ce0     libcpmt:winapinls.obj
 0002:00004cf0       ??_C@_1M@BIKNHHPF@?$AAi?$AAs?$AA?9?$AAi?$AAs@ 0000000180043cf0     libcpmt:winapinls.obj
 0002:00004d00       ??_C@_1M@NMPCJPHE@?$AAi?$AAt?$AA?9?$AAc?$AAh@ 0000000180043d00     libcpmt:winapinls.obj
 0002:00004d10       ??_C@_1M@GHKGFEDF@?$AAi?$AAt?$AA?9?$AAi?$AAt@ 0000000180043d10     libcpmt:winapinls.obj
 0002:00004d20       ??_C@_1M@NIEJCJJA@?$AAj?$AAa?$AA?9?$AAj?$AAp@ 0000000180043d20     libcpmt:winapinls.obj
 0002:00004d30       ??_C@_1M@JILFNBIM@?$AAk?$AAa?$AA?9?$AAg?$AAe@ 0000000180043d30     libcpmt:winapinls.obj
 0002:00004d40       ??_C@_1M@PACPMGPH@?$AAk?$AAk?$AA?9?$AAk?$AAz@ 0000000180043d40     libcpmt:winapinls.obj
 0002:00004d50       ??_C@_1M@IELFGMHA@?$AAk?$AAn?$AA?9?$AAi?$AAn@ 0000000180043d50     libcpmt:winapinls.obj
 0002:00004d60       ??_C@_1M@DMHAEOGC@?$AAk?$AAo?$AA?9?$AAk?$AAr@ 0000000180043d60     libcpmt:winapinls.obj
 0002:00004d70       ??_C@_1O@IBBJHCH@?$AAk?$AAo?$AAk?$AA?9?$AAi?$AAn@ 0000000180043d70     libcpmt:winapinls.obj
 0002:00004d80       ??_C@_1M@HBAHBIGA@?$AAk?$AAy?$AA?9?$AAk?$AAg@ 0000000180043d80     libcpmt:winapinls.obj
 0002:00004d90       ??_C@_1M@KPMILCJG@?$AAl?$AAt?$AA?9?$AAl?$AAt@ 0000000180043d90     libcpmt:winapinls.obj
 0002:00004da0       ??_C@_1M@BDEKKCA@?$AAl?$AAv?$AA?9?$AAl?$AAv@ 0000000180043da0     libcpmt:winapinls.obj
 0002:00004db0       ??_C@_1M@ELCKCCJJ@?$AAm?$AAi?$AA?9?$AAn?$AAz@ 0000000180043db0     libcpmt:winapinls.obj
 0002:00004dc0       ??_C@_1M@CBOOLAPA@?$AAm?$AAk?$AA?9?$AAm?$AAk@ 0000000180043dc0     libcpmt:winapinls.obj
 0002:00004dd0       ??_C@_1M@GPHNBJKN@?$AAm?$AAl?$AA?9?$AAi?$AAn@ 0000000180043dd0     libcpmt:winapinls.obj
 0002:00004de0       ??_C@_1M@PABJILIG@?$AAm?$AAn?$AA?9?$AAm?$AAn@ 0000000180043de0     libcpmt:winapinls.obj
 0002:00004df0       ??_C@_1M@FGBKKIPG@?$AAm?$AAr?$AA?9?$AAi?$AAn@ 0000000180043df0     libcpmt:winapinls.obj
 0002:00004e00       ??_C@_1M@NDBPDDAL@?$AAm?$AAs?$AA?9?$AAb?$AAn@ 0000000180043e00     libcpmt:winapinls.obj
 0002:00004e10       ??_C@_1M@OPIHOOPI@?$AAm?$AAs?$AA?9?$AAm?$AAy@ 0000000180043e10     libcpmt:winapinls.obj
 0002:00004e20       ??_C@_1M@PPDBCNFM@?$AAm?$AAt?$AA?9?$AAm?$AAt@ 0000000180043e20     libcpmt:winapinls.obj
 0002:00004e30       ??_C@_1M@KDJDKMDD@?$AAn?$AAb?$AA?9?$AAn?$AAo@ 0000000180043e30     libcpmt:winapinls.obj
 0002:00004e40       ??_C@_1M@KFCFLMJP@?$AAn?$AAl?$AA?9?$AAb?$AAe@ 0000000180043e40     libcpmt:winapinls.obj
 0002:00004e50       ??_C@_1M@KPOPDDGO@?$AAn?$AAl?$AA?9?$AAn?$AAl@ 0000000180043e50     libcpmt:winapinls.obj
 0002:00004e60       ??_C@_1M@LJKPEMLN@?$AAn?$AAn?$AA?9?$AAn?$AAo@ 0000000180043e60     libcpmt:winapinls.obj
 0002:00004e70       ??_C@_1M@BDGHHBFL@?$AAn?$AAs?$AA?9?$AAz?$AAa@ 0000000180043e70     libcpmt:winapinls.obj
 0002:00004e80       ??_C@_1M@IDEHOAP@?$AAp?$AAa?$AA?9?$AAi?$AAn@ 0000000180043e80     libcpmt:winapinls.obj
 0002:00004e90       ??_C@_1M@HDBKGOGH@?$AAp?$AAl?$AA?9?$AAp?$AAl@ 0000000180043e90     libcpmt:winapinls.obj
 0002:00004ea0       ??_C@_1M@LJLLCMEH@?$AAp?$AAt?$AA?9?$AAb?$AAr@ 0000000180043ea0     libcpmt:winapinls.obj
 0002:00004eb0       ??_C@_1M@NCMONAAL@?$AAp?$AAt?$AA?9?$AAp?$AAt@ 0000000180043eb0     libcpmt:winapinls.obj
 0002:00004ec0       ??_C@_1O@EAKMAJDN@?$AAq?$AAu?$AAz?$AA?9?$AAb?$AAo@ 0000000180043ec0     libcpmt:winapinls.obj
 0002:00004ed0       ??_C@_1O@BHHPIGDN@?$AAq?$AAu?$AAz?$AA?9?$AAe?$AAc@ 0000000180043ed0     libcpmt:winapinls.obj
 0002:00004ee0       ??_C@_1O@GBAPEKMJ@?$AAq?$AAu?$AAz?$AA?9?$AAp?$AAe@ 0000000180043ee0     libcpmt:winapinls.obj
 0002:00004ef0       ??_C@_1M@CLGLEFBO@?$AAr?$AAo?$AA?9?$AAr?$AAo@ 0000000180043ef0     libcpmt:winapinls.obj
 0002:00004f00       ??_C@_1M@CEEDODME@?$AAr?$AAu?$AA?9?$AAr?$AAu@ 0000000180043f00     libcpmt:winapinls.obj
 0002:00004f10       ??_C@_1M@HPKKKMPP@?$AAs?$AAa?$AA?9?$AAi?$AAn@ 0000000180043f10     libcpmt:winapinls.obj
 0002:00004f20       ??_C@_1M@BKMAIGOJ@?$AAs?$AAe?$AA?9?$AAf?$AAi@ 0000000180043f20     libcpmt:winapinls.obj
 0002:00004f30       ??_C@_1M@NDPIFLFI@?$AAs?$AAe?$AA?9?$AAn?$AAo@ 0000000180043f30     libcpmt:winapinls.obj
 0002:00004f40       ??_C@_1M@DANKKHJ@?$AAs?$AAe?$AA?9?$AAs?$AAe@ 0000000180043f40     libcpmt:winapinls.obj
 0002:00004f50       ??_C@_1M@PNBLONPJ@?$AAs?$AAk?$AA?9?$AAs?$AAk@ 0000000180043f50     libcpmt:winapinls.obj
 0002:00004f60       ??_C@_1M@LFMODOAL@?$AAs?$AAl?$AA?9?$AAs?$AAi@ 0000000180043f60     libcpmt:winapinls.obj
 0002:00004f70       ??_C@_1O@DFKOMPG@?$AAs?$AAm?$AAa?$AA?9?$AAn?$AAo@ 0000000180043f70     libcpmt:winapinls.obj
 0002:00004f80       ??_C@_1O@NDKPBNNH@?$AAs?$AAm?$AAa?$AA?9?$AAs?$AAe@ 0000000180043f80     libcpmt:winapinls.obj
 0002:00004f90       ??_C@_1O@PLLKBHAB@?$AAs?$AAm?$AAj?$AA?9?$AAn?$AAo@ 0000000180043f90     libcpmt:winapinls.obj
 0002:00004fa0       ??_C@_1O@CLEPOGCA@?$AAs?$AAm?$AAj?$AA?9?$AAs?$AAe@ 0000000180043fa0     libcpmt:winapinls.obj
 0002:00004fb0       ??_C@_1O@DLGJGKMK@?$AAs?$AAm?$AAn?$AA?9?$AAf?$AAi@ 0000000180043fb0     libcpmt:winapinls.obj
 0002:00004fc0       ??_C@_1O@OJDJGAJC@?$AAs?$AAm?$AAs?$AA?9?$AAf?$AAi@ 0000000180043fc0     libcpmt:winapinls.obj
 0002:00004fd0       ??_C@_1M@BOFOGHPB@?$AAs?$AAq?$AA?9?$AAa?$AAl@ 0000000180043fd0     libcpmt:winapinls.obj
 0002:00004fe0       ??_C@_1BG@LJBBIPGB@?$AAs?$AAr?$AA?9?$AAb?$AAa?$AA?9?$AAc?$AAy?$AAr?$AAl@ 0000000180043fe0     libcpmt:winapinls.obj
 0002:00004ff8       ??_C@_1BG@JLBENFOE@?$AAs?$AAr?$AA?9?$AAb?$AAa?$AA?9?$AAl?$AAa?$AAt?$AAn@ 0000000180043ff8     libcpmt:winapinls.obj
 0002:00005010       ??_C@_1BG@KODPNHE@?$AAs?$AAr?$AA?9?$AAs?$AAp?$AA?9?$AAc?$AAy?$AAr?$AAl@ 0000000180044010     libcpmt:winapinls.obj
 0002:00005028       ??_C@_1BG@CIOGKHPB@?$AAs?$AAr?$AA?9?$AAs?$AAp?$AA?9?$AAl?$AAa?$AAt?$AAn@ 0000000180044028     libcpmt:winapinls.obj
 0002:00005040       ??_C@_1M@NGFJLMAC@?$AAs?$AAv?$AA?9?$AAf?$AAi@ 0000000180044040     libcpmt:winapinls.obj
 0002:00005050       ??_C@_1M@MPJEJAJC@?$AAs?$AAv?$AA?9?$AAs?$AAe@ 0000000180044050     libcpmt:winapinls.obj
 0002:00005060       ??_C@_1M@MPNDHLFK@?$AAs?$AAw?$AA?9?$AAk?$AAe@ 0000000180044060     libcpmt:winapinls.obj
 0002:00005070       ??_C@_1O@KOHBJJI@?$AAs?$AAy?$AAr?$AA?9?$AAs?$AAy@ 0000000180044070     libcpmt:winapinls.obj
 0002:00005080       ??_C@_1M@LDCEFHA@?$AAt?$AAa?$AA?9?$AAi?$AAn@ 0000000180044080     libcpmt:winapinls.obj
 0002:00005090       ??_C@_1M@CNJOFAK@?$AAt?$AAe?$AA?9?$AAi?$AAn@ 0000000180044090     libcpmt:winapinls.obj
 0002:000050a0       ??_C@_1M@GNAECACD@?$AAt?$AAh?$AA?9?$AAt?$AAh@ 00000001800440a0     libcpmt:winapinls.obj
 0002:000050b0       ??_C@_1M@CHBIHOJO@?$AAt?$AAn?$AA?9?$AAz?$AAa@ 00000001800440b0     libcpmt:winapinls.obj
 0002:000050c0       ??_C@_1M@GCCMIGPJ@?$AAt?$AAr?$AA?9?$AAt?$AAr@ 00000001800440c0     libcpmt:winapinls.obj
 0002:000050d0       ??_C@_1M@CELMCNBK@?$AAt?$AAt?$AA?9?$AAr?$AAu@ 00000001800440d0     libcpmt:winapinls.obj
 0002:000050e0       ??_C@_1M@KLMCELGA@?$AAu?$AAk?$AA?9?$AAu?$AAa@ 00000001800440e0     libcpmt:winapinls.obj
 0002:000050f0       ??_C@_1M@EPAJJAJF@?$AAu?$AAr?$AA?9?$AAp?$AAk@ 00000001800440f0     libcpmt:winapinls.obj
 0002:00005100       ??_C@_1BG@GEGPMCDJ@?$AAu?$AAz?$AA?9?$AAu?$AAz?$AA?9?$AAc?$AAy?$AAr?$AAl@ 0000000180044100     libcpmt:winapinls.obj
 0002:00005118       ??_C@_1BG@EGGKJILM@?$AAu?$AAz?$AA?9?$AAu?$AAz?$AA?9?$AAl?$AAa?$AAt?$AAn@ 0000000180044118     libcpmt:winapinls.obj
 0002:00005130       ??_C@_1M@GFOCLFF@?$AAv?$AAi?$AA?9?$AAv?$AAn@ 0000000180044130     libcpmt:winapinls.obj
 0002:00005140       ??_C@_1M@CPAMEDFI@?$AAx?$AAh?$AA?9?$AAz?$AAa@ 0000000180044140     libcpmt:winapinls.obj
 0002:00005150       ??_C@_1O@EBKIFIGN@?$AAz?$AAh?$AA?9?$AAc?$AAh?$AAs@ 0000000180044150     libcpmt:winapinls.obj
 0002:00005160       ??_C@_1O@NMHPGANE@?$AAz?$AAh?$AA?9?$AAc?$AAh?$AAt@ 0000000180044160     libcpmt:winapinls.obj
 0002:00005170       ??_C@_1M@LPINJOMC@?$AAz?$AAh?$AA?9?$AAc?$AAn@ 0000000180044170     libcpmt:winapinls.obj
 0002:00005180       ??_C@_1M@OCJEJODD@?$AAz?$AAh?$AA?9?$AAh?$AAk@ 0000000180044180     libcpmt:winapinls.obj
 0002:00005190       ??_C@_1M@DNDLJINH@?$AAz?$AAh?$AA?9?$AAm?$AAo@ 0000000180044190     libcpmt:winapinls.obj
 0002:000051a0       ??_C@_1M@MBFDNDND@?$AAz?$AAh?$AA?9?$AAs?$AAg@ 00000001800441a0     libcpmt:winapinls.obj
 0002:000051b0       ??_C@_1M@IMEPLEPE@?$AAz?$AAh?$AA?9?$AAt?$AAw@ 00000001800441b0     libcpmt:winapinls.obj
 0002:000051c0       ??_C@_1M@BBGHNHJP@?$AAz?$AAu?$AA?9?$AAz?$AAa@ 00000001800441c0     libcpmt:winapinls.obj
 0002:000051d8       ??_7type_info@@6B@         00000001800441d8     LIBCMT:std_type_info_static.obj
 0002:000051e0       _pRawDllMain               00000001800441e0     LIBCMT:dll_dllmain.obj
 0002:000051e0       _pDefaultRawDllMain        00000001800441e0     LIBCMT:dll_dllmain.obj
 0002:00005200       ??_7bad_array_new_length@std@@6B@ 0000000180044200     LIBCMT:throw_bad_alloc.obj
 0002:00005210       ??_C@_0BF@KINCDENJ@bad?5array?5new?5length@ 0000000180044210     LIBCMT:throw_bad_alloc.obj
 0002:00005308       _pDestructExceptionObject  0000000180044308     libvcruntime:ehhelpers.obj
 0002:00005318       ??_7bad_exception@std@@6B@ 0000000180044318     libvcruntime:frame.obj
 0002:00005328       ??_C@_0O@DPKOEFFH@bad?5exception@ 0000000180044328     libvcruntime:frame.obj
 0002:00005350       ??_C@_1DM@KHCHBNEB@?$AAa?$AAp?$AAi?$AA?9?$AAm?$AAs?$AA?9?$AAw?$AAi?$AAn?$AA?9?$AAc?$AAo?$AAr?$AAe@ 0000000180044350     libvcruntime:winapi_downlevel.obj
 0002:00005390       ??_C@_1DK@LPPGFMPP@?$AAa?$AAp?$AAi?$AA?9?$AAm?$AAs?$AA?9?$AAw?$AAi?$AAn?$AA?9?$AAc?$AAo?$AAr?$AAe@ 0000000180044390     libvcruntime:winapi_downlevel.obj
 0002:000053d0       ??_C@_1BC@GDMECMAK@?$AAk?$AAe?$AAr?$AAn?$AAe?$AAl?$AA3?$AA2@ 00000001800443d0     libvcruntime:winapi_downlevel.obj
 0002:000053e8       ??_C@_1BA@PFFKHIOG@?$AAa?$AAp?$AAi?$AA?9?$AAm?$AAs?$AA?9@ 00000001800443e8     libvcruntime:winapi_downlevel.obj
 0002:000053f8       ??_C@_1BA@IAIFMGEF@?$AAe?$AAx?$AAt?$AA?9?$AAm?$AAs?$AA?9@ 00000001800443f8     libvcruntime:winapi_downlevel.obj
 0002:00005768       ??_C@_08EHJDFFNH@__based?$CI@ 0000000180044768     libvcruntime:undname.obj
 0002:00005778       ??_C@_07KOLFKCDI@__cdecl@  0000000180044778     libvcruntime:undname.obj
 0002:00005780       ??_C@_08GHMPAG@__pascal@   0000000180044780     libvcruntime:undname.obj
 0002:00005790       ??_C@_09IFJBGAPI@__stdcall@ 0000000180044790     libvcruntime:undname.obj
 0002:000057a0       ??_C@_0L@NPHFGOKO@__thiscall@ 00000001800447a0     libvcruntime:undname.obj
 0002:000057b0       ??_C@_0L@JMKHOMEK@__fastcall@ 00000001800447b0     libvcruntime:undname.obj
 0002:000057c0       ??_C@_0N@BCKKPABJ@__vectorcall@ 00000001800447c0     libvcruntime:undname.obj
 0002:000057d0       ??_C@_09HIJEGCPM@__clrcall@ 00000001800447d0     libvcruntime:undname.obj
 0002:000057dc       ??_C@_06GHPCKEAG@__eabi@   00000001800447dc     libvcruntime:undname.obj
 0002:000057e8       ??_C@_09IOPIDJLG@__swift_1@ 00000001800447e8     libvcruntime:undname.obj
 0002:000057f8       ??_C@_09KFNFGKHF@__swift_2@ 00000001800447f8     libvcruntime:undname.obj
 0002:00005808       ??_C@_07JOMMBBKO@__ptr64@  0000000180044808     libvcruntime:undname.obj
 0002:00005810       ??_C@_0L@PILCLIHE@__restrict@ 0000000180044810     libvcruntime:undname.obj
 0002:00005820       ??_C@_0M@GFIIJFMG@__unaligned@ 0000000180044820     libvcruntime:undname.obj
 0002:00005830       ??_C@_09DHDLOLLB@restrict?$CI@ 0000000180044830     libvcruntime:undname.obj
 0002:0000583c       ??_C@_04NIHEBCM@?5new@     000000018004483c     libvcruntime:undname.obj
 0002:00005848       ??_C@_07FPCDHGMM@?5delete@ 0000000180044848     libvcruntime:undname.obj
 0002:00005850       ??_C@_01NEMOKFLO@?$DN@     0000000180044850     libvcruntime:undname.obj
 0002:00005854       ??_C@_02GPIOPFAK@?$DO?$DO@ 0000000180044854     libvcruntime:undname.obj
 0002:00005858       ??_C@_02FODMEDOG@?$DM?$DM@ 0000000180044858     libvcruntime:undname.obj
 0002:0000585c       ??_C@_01DCLJPIOD@?$CB@     000000018004485c     libvcruntime:undname.obj
 0002:00005860       ??_C@_02EGOFBIJA@?$DN?$DN@ 0000000180044860     libvcruntime:undname.obj
 0002:00005864       ??_C@_02FDNJECIE@?$CB?$DN@ 0000000180044864     libvcruntime:undname.obj
 0002:00005868       ??_C@_02GPECMEKF@?$FL?$FN@ 0000000180044868     libvcruntime:undname.obj
 0002:00005870       ??_C@_08LHJFAFGD@operator@ 0000000180044870     libvcruntime:undname.obj
 0002:0000587c       ??_C@_02HBOOOICD@?9?$DO@   000000018004487c     libvcruntime:undname.obj
 0002:00005880       ??_C@_02ECNGHCIF@?$CL?$CL@ 0000000180044880     libvcruntime:undname.obj
 0002:00005884       ??_C@_02BAABKJLB@?9?9@     0000000180044884     libvcruntime:undname.obj
 0002:00005888       ??_C@_01MIFGBAGJ@?$CL@     0000000180044888     libvcruntime:undname.obj
 0002:0000588c       ??_C@_01HNPIGOCE@?$CG@     000000018004488c     libvcruntime:undname.obj
 0002:00005890       ??_C@_03MNHNFDLC@?9?$DO?$CK@ 0000000180044890     libvcruntime:undname.obj
 0002:00005894       ??_C@_01KMDKNFGN@?1@       0000000180044894     libvcruntime:undname.obj
 0002:00005898       ??_C@_01FGNFDNOH@?$CF@     0000000180044898     libvcruntime:undname.obj
 0002:0000589c       ??_C@_01MNNFJEPP@?$DM@     000000018004489c     libvcruntime:undname.obj
 0002:000058a0       ??_C@_02EHCHHCKH@?$DM?$DN@ 00000001800448a0     libvcruntime:undname.obj
 0002:000058a4       ??_C@_01PPODPGHN@?$DO@     00000001800448a4     libvcruntime:undname.obj
 0002:000058a8       ??_C@_02EEKDKGMJ@?$DO?$DN@ 00000001800448a8     libvcruntime:undname.obj
 0002:000058ac       ??_C@_01IHBHIGKO@?0@       00000001800448ac     libvcruntime:undname.obj
 0002:000058b0       ??_C@_02HCKGKOFO@?$CI?$CJ@ 00000001800448b0     libvcruntime:undname.obj
 0002:000058b4       ??_C@_01PJKLJHI@?$HO@      00000001800448b4     libvcruntime:undname.obj
 0002:000058b8       ??_C@_01JKBOJNNK@?$FO@     00000001800448b8     libvcruntime:undname.obj
 0002:000058bc       ??_C@_01DNKMNLPK@?$HM@     00000001800448bc     libvcruntime:undname.obj
 0002:000058c0       ??_C@_02PPKAJPJL@?$CG?$CG@ 00000001800448c0     libvcruntime:undname.obj
 0002:000058c4       ??_C@_02NONPIBCD@?$HM?$HM@ 00000001800448c4     libvcruntime:undname.obj
 0002:000058c8       ??_C@_02FPIMKNGF@?$CK?$DN@ 00000001800448c8     libvcruntime:undname.obj
 0002:000058cc       ??_C@_02FOEOMHFC@?$CL?$DN@ 00000001800448cc     libvcruntime:undname.obj
 0002:000058d0       ??_C@_02FKMDLLOA@?9?$DN@   00000001800448d0     libvcruntime:undname.obj
 0002:000058d4       ??_C@_02FJEHGPIO@?1?$DN@   00000001800448d4     libvcruntime:undname.obj
 0002:000058d8       ??_C@_02FENAOKFI@?$CF?$DN@ 00000001800448d8     libvcruntime:undname.obj
 0002:000058dc       ??_C@_03IKFCCPFF@?$DO?$DO?$DN@ 00000001800448dc     libvcruntime:undname.obj
 0002:000058e0       ??_C@_03CDNPDDLA@?$DM?$DM?$DN@ 00000001800448e0     libvcruntime:undname.obj
 0002:000058e4       ??_C@_02FGJGFEAB@?$CG?$DN@ 00000001800448e4     libvcruntime:undname.obj
 0002:000058e8       ??_C@_02DHLNPPGH@?$HM?$DN@ 00000001800448e8     libvcruntime:undname.obj
 0002:000058ec       ??_C@_02MHEGNOJ@?$FO?$DN@  00000001800448ec     libvcruntime:undname.obj
 0002:000058f0       ??_C@_09IFPLHPGF@?$GAvftable?8@ 00000001800448f0     libvcruntime:undname.obj
 0002:00005900       ??_C@_09BLBHBJP@?$GAvbtable?8@ 0000000180044900     libvcruntime:undname.obj
 0002:00005910       ??_C@_07FEEIOKP@?$GAvcall?8@ 0000000180044910     libvcruntime:undname.obj
 0002:00005918       ??_C@_08LLFFHHDJ@?$GAtypeof?8@ 0000000180044918     libvcruntime:undname.obj
 0002:00005928       ??_C@_0BF@KDPPACIK@?$GAlocal?5static?5guard?8@ 0000000180044928     libvcruntime:undname.obj
 0002:00005940       ??_C@_08OBABFOLI@?$GAstring?8@ 0000000180044940     libvcruntime:undname.obj
 0002:00005950       ??_C@_0BD@JDLKDPAB@?$GAvbase?5destructor?8@ 0000000180044950     libvcruntime:undname.obj
 0002:00005968       ??_C@_0BN@DEGPLNFK@?$GAvector?5deleting?5destructor?8@ 0000000180044968     libvcruntime:undname.obj
 0002:00005988       ??_C@_0BO@OBMKPJIG@?$GAdefault?5constructor?5closure?8@ 0000000180044988     libvcruntime:undname.obj
 0002:000059a8       ??_C@_0BN@IMDCHIKM@?$GAscalar?5deleting?5destructor?8@ 00000001800449a8     libvcruntime:undname.obj
 0002:000059c8       ??_C@_0BO@PFGOCPJJ@?$GAvector?5constructor?5iterator?8@ 00000001800449c8     libvcruntime:undname.obj
 0002:000059e8       ??_C@_0BN@LFPFMEDL@?$GAvector?5destructor?5iterator?8@ 00000001800449e8     libvcruntime:undname.obj
 0002:00005a08       ??_C@_0CE@IKBNEHA@?$GAvector?5vbase?5constructor?5itera@ 0000000180044a08     libvcruntime:undname.obj
 0002:00005a30       ??_C@_0BL@NILFHHPC@?$GAvirtual?5displacement?5map?8@ 0000000180044a30     libvcruntime:undname.obj
 0002:00005a50       ??_C@_0CB@JONCMFFK@?$GAeh?5vector?5constructor?5iterator@ 0000000180044a50     libvcruntime:undname.obj
 0002:00005a78       ??_C@_0CA@GCEOPDGL@?$GAeh?5vector?5destructor?5iterator?8@ 0000000180044a78     libvcruntime:undname.obj
 0002:00005a98       ??_C@_0CH@OOJPLCPH@?$GAeh?5vector?5vbase?5constructor?5it@ 0000000180044a98     libvcruntime:undname.obj
 0002:00005ac0       ??_C@_0BL@LLKPOHJI@?$GAcopy?5constructor?5closure?8@ 0000000180044ac0     libvcruntime:undname.obj
 0002:00005ae0       ??_C@_0BA@KBCDOMBN@?$GAudt?5returning?8@ 0000000180044ae0     libvcruntime:undname.obj
 0002:00005af0       ??_C@_03KLGMFNMG@?$GAEH@   0000000180044af0     libvcruntime:undname.obj
 0002:00005af4       ??_C@_05KHLCHHI@?$GARTTI@  0000000180044af4     libvcruntime:undname.obj
 0002:00005b00       ??_C@_0BA@KKLDJDLB@?$GAlocal?5vftable?8@ 0000000180044b00     libvcruntime:undname.obj
 0002:00005b10       ??_C@_0CE@IIHCMGGL@?$GAlocal?5vftable?5constructor?5clos@ 0000000180044b10     libvcruntime:undname.obj
 0002:00005b34       ??_C@_06FHBGPFGH@?5new?$FL?$FN@ 0000000180044b34     libvcruntime:undname.obj
 0002:00005b40       ??_C@_09LBNFPBCA@?5delete?$FL?$FN@ 0000000180044b40     libvcruntime:undname.obj
 0002:00005b50       ??_C@_0P@HJKNJFNN@?$GAomni?5callsig?8@ 0000000180044b50     libvcruntime:undname.obj
 0002:00005b60       ??_C@_0BL@CNOONJFP@?$GAplacement?5delete?5closure?8@ 0000000180044b60     libvcruntime:undname.obj
 0002:00005b80       ??_C@_0BN@CKNJLHMB@?$GAplacement?5delete?$FL?$FN?5closure?8@ 0000000180044b80     libvcruntime:undname.obj
 0002:00005ba0       ??_C@_0CG@CFDHKGGD@?$GAmanaged?5vector?5constructor?5ite@ 0000000180044ba0     libvcruntime:undname.obj
 0002:00005bc8       ??_C@_0CF@IMGKMJNO@?$GAmanaged?5vector?5destructor?5iter@ 0000000180044bc8     libvcruntime:undname.obj
 0002:00005bf0       ??_C@_0CG@HLDDJMAG@?$GAeh?5vector?5copy?5constructor?5ite@ 0000000180044bf0     libvcruntime:undname.obj
 0002:00005c18       ??_C@_0CM@FCBBDIGB@?$GAeh?5vector?5vbase?5copy?5construct@ 0000000180044c18     libvcruntime:undname.obj
 0002:00005c48       ??_C@_0BL@CLIPGLGB@?$GAdynamic?5initializer?5for?5?8@ 0000000180044c48     libvcruntime:undname.obj
 0002:00005c68       ??_C@_0CB@PDBIFEP@?$GAdynamic?5atexit?5destructor?5for?5@ 0000000180044c68     libvcruntime:undname.obj
 0002:00005c90       ??_C@_0CD@CGAJBKEJ@?$GAvector?5copy?5constructor?5iterat@ 0000000180044c90     libvcruntime:undname.obj
 0002:00005cb8       ??_C@_0CJ@GJELGAMM@?$GAvector?5vbase?5copy?5constructor?5@ 0000000180044cb8     libvcruntime:undname.obj
 0002:00005ce8       ??_C@_0CL@FGIJHLCE@?$GAmanaged?5vector?5copy?5constructo@ 0000000180044ce8     libvcruntime:undname.obj
 0002:00005d18       ??_C@_0BM@PMGGMLDN@?$GAlocal?5static?5thread?5guard?8@ 0000000180044d18     libvcruntime:undname.obj
 0002:00005d38       ??_C@_0N@BDNMDMOL@operator?5?$CC?$CC?5@ 0000000180044d38     libvcruntime:undname.obj
 0002:00005d48       ??_C@_0BC@GGEBGALA@operator?5co_await@ 0000000180044d48     libvcruntime:undname.obj
 0002:00005d60       ??_C@_0BC@DAFEJGAK@?5Type?5Descriptor?8@ 0000000180044d60     libvcruntime:undname.obj
 0002:00005d78       ??_C@_0BM@LDKODKLH@?5Base?5Class?5Descriptor?5at?5?$CI@ 0000000180044d78     libvcruntime:undname.obj
 0002:00005d98       ??_C@_0BD@LGICGFMM@?5Base?5Class?5Array?8@ 0000000180044d98     libvcruntime:undname.obj
 0002:00005db0       ??_C@_0BN@MECKDCOJ@?5Class?5Hierarchy?5Descriptor?8@ 0000000180044db0     libvcruntime:undname.obj
 0002:00005dd0       ??_C@_0BK@CFCOFLF@?5Complete?5Object?5Locator?8@ 0000000180044dd0     libvcruntime:undname.obj
 0002:00005df0       ??_C@_1FE@LHBLIKM@?$AAA?$AAs?$AAs?$AAe?$AAr?$AAt?$AAi?$AAo?$AAn?$AA?5?$AAf?$AAa?$AAi?$AAl?$AAe?$AAd?$AA?3?$AA?5?$AA?$CF?$AAT?$AAs?$AA?0?$AA?5?$AAf?$AAi?$AAl?$AAe?$AA?5?$AA?$CF?$AAT?$AAs?$AA?0@ 0000000180044df0     libucrt:assert.obj
 0002:00005e50       ??_C@_1EK@MBDPDCGA@?$AAM?$AAi?$AAc?$AAr?$AAo?$AAs?$AAo?$AAf?$AAt?$AA?5?$AAV?$AAi?$AAs?$AAu?$AAa?$AAl?$AA?5?$AAC?$AA?$CL?$AA?$CL?$AA?5?$AAR?$AAu?$AAn?$AAt?$AAi?$AAm?$AAe?$AA?5?$AAL?$AAi?$AAb@ 0000000180044e50     libucrt:assert.obj
 0002:00005ea0       ??_C@_1CE@OJBNHDMO@?$AAA?$AAs?$AAs?$AAe?$AAr?$AAt?$AAi?$AAo?$AAn?$AA?5?$AAf?$AAa?$AAi?$AAl?$AAe?$AAd?$AA?$CB?$AA?$AA@ 0000000180044ea0     libucrt:assert.obj
 0002:00005ec8       ??_C@_1BE@PHKBBGE@?$AAP?$AAr?$AAo?$AAg?$AAr?$AAa?$AAm?$AA?3?$AA?5?$AA?$AA@ 0000000180044ec8     libucrt:assert.obj
 0002:00005ee0       ??_C@_1O@HEMHKNDC@?$AAF?$AAi?$AAl?$AAe?$AA?3?$AA?5?$AA?$AA@ 0000000180044ee0     libucrt:assert.obj
 0002:00005ef0       ??_C@_1O@KCAFKHJE@?$AAL?$AAi?$AAn?$AAe?$AA?3?$AA?5?$AA?$AA@ 0000000180044ef0     libucrt:assert.obj
 0002:00005f00       ??_C@_1BK@PEDCIPMA@?$AAE?$AAx?$AAp?$AAr?$AAe?$AAs?$AAs?$AAi?$AAo?$AAn?$AA?3?$AA?5?$AA?$AA@ 0000000180044f00     libucrt:assert.obj
 0002:00005f20       ??_C@_1OA@EGMLFBHJ@?$AAF?$AAo?$AAr?$AA?5?$AAi?$AAn?$AAf?$AAo?$AAr?$AAm?$AAa?$AAt?$AAi?$AAo?$AAn?$AA?5?$AAo?$AAn?$AA?5?$AAh?$AAo?$AAw?$AA?5?$AAy?$AAo?$AAu?$AAr?$AA?5?$AAp?$AAr?$AAo?$AAg@ 0000000180044f20     libucrt:assert.obj
 0002:00006000       ??_C@_1HK@POCJMFGK@?$AA?$CI?$AAP?$AAr?$AAe?$AAs?$AAs?$AA?5?$AAR?$AAe?$AAt?$AAr?$AAy?$AA?5?$AAt?$AAo?$AA?5?$AAd?$AAe?$AAb?$AAu?$AAg?$AA?5?$AAt?$AAh?$AAe?$AA?5?$AAa?$AAp?$AAp?$AAl?$AAi?$AAc@ 0000000180045000     libucrt:assert.obj
 0002:00006080       ??_C@_17LGKOMLJ@?$AA?4?$AA?4?$AA?4?$AA?$AA@ 0000000180045080     libucrt:assert.obj
 0002:00006088       ??_C@_13LBAGMAIH@?$AA?6?$AA?$AA@ 0000000180045088     libucrt:assert.obj
 0002:0000608c       ??_C@_15IABLJNFO@?$AA?6?$AA?6?$AA?$AA@ 000000018004508c     libucrt:assert.obj
 0002:00006098       ??_C@_1CO@EAEJAADC@?$AA?$DM?$AAp?$AAr?$AAo?$AAg?$AAr?$AAa?$AAm?$AA?5?$AAn?$AAa?$AAm?$AAe?$AA?5?$AAu?$AAn?$AAk?$AAn?$AAo?$AAw?$AAn?$AA?$DO?$AA?$AA@ 0000000180045098     libucrt:assert.obj
 0002:000060d0       standard_lookup_table      00000001800450d0     libucrt:output.obj
 0002:00006130       ??_C@_1O@CEDCILHN@?$AA?$CI?$AAn?$AAu?$AAl?$AAl?$AA?$CJ?$AA?$AA@ 0000000180045130     libucrt:output.obj
 0002:00006140       ??_C@_06OJHGLDPL@?$CInull?$CJ?$AA@ 0000000180045140     libucrt:output.obj
 0002:00006148       __real@3ff0000000000000    0000000180045148     libucrt:frexp.obj
 0002:00006150       __newctype                 0000000180045150     libucrt:ctype.obj
 0002:00006450       __newclmap                 0000000180045450     libucrt:ctype.obj
 0002:000065d0       __newcumap                 00000001800455d0     libucrt:ctype.obj
 0002:00006750       _wctype                    0000000180045750     libucrt:ctype.obj
 0002:00006ad0       ?large_power_data@?1??multiply_by_power_of_ten@__crt_strtox@@YA_NAEAUbig_integer@2@I@Z@4QBIB 0000000180045ad0     libucrt:strtod.obj
 0002:000073e0       ?large_power_indices@?1??multiply_by_power_of_ten@__crt_strtox@@YA_NAEAUbig_integer@2@I@Z@4QBUunpack_index@?1??12@YA_N0I@Z@B 00000001800463e0     libucrt:strtod.obj
 0002:00007478       ?small_powers_of_ten@?1??multiply_by_power_of_ten@__crt_strtox@@YA_NAEAUbig_integer@2@I@Z@4QBIB 0000000180046478     libucrt:strtod.obj
 0002:00009150       __acrt_exception_action_table 0000000180048150     libucrt:exception_filter.obj
 0002:00009210       __acrt_signal_action_table_count 0000000180048210     libucrt:exception_filter.obj
 0002:00009218       __acrt_signal_action_first_fpe_index 0000000180048218     libucrt:exception_filter.obj
 0002:00009220       __acrt_signal_action_fpe_count 0000000180048220     libucrt:exception_filter.obj
 0002:00009228       ??_C@_1BI@BGOHAHKC@?$AAm?$AAs?$AAc?$AAo?$AAr?$AAe?$AAe?$AA?4?$AAd?$AAl?$AAl?$AA?$AA@ 0000000180048228     libucrt:exit.obj
 0002:00009240       ??_C@_0P@MIGLKIOC@CorExitProcess?$AA@ 0000000180048240     libucrt:exit.obj
 0002:00009350       ??_C@_03OEIAHPBN@INF?$AA@  0000000180048350     libucrt:cvt.obj
 0002:00009354       ??_C@_03OJHLLCGB@inf?$AA@  0000000180048354     libucrt:cvt.obj
 0002:00009358       ??_C@_03LKNCIKJB@NAN?$AA@  0000000180048358     libucrt:cvt.obj
 0002:0000935c       ??_C@_03LHCJEHON@nan?$AA@  000000018004835c     libucrt:cvt.obj
 0002:00009360       ??_C@_09OFJJIMPC@NAN?$CISNAN?$CJ?$AA@ 0000000180048360     libucrt:cvt.obj
 0002:00009370       ??_C@_09IPFBKMDL@nan?$CIsnan?$CJ?$AA@ 0000000180048370     libucrt:cvt.obj
 0002:00009380       ??_C@_08IKHNHAJ@NAN?$CIIND?$CJ?$AA@ 0000000180048380     libucrt:cvt.obj
 0002:00009390       ??_C@_08OFCDMILK@nan?$CIind?$CJ?$AA@ 0000000180048390     libucrt:cvt.obj
 0002:0000939c       ??_C@_05KLBDPFGC@e?$CL000?$AA@ 000000018004839c     libucrt:cvt.obj
 0002:00009430       __lc_category              0000000180048430     libucrt:wsetlocale.obj
 0002:000094c0       ??_C@_1O@GIFLHMA@?$AAL?$AAC?$AA_?$AAA?$AAL?$AAL?$AA?$AA@ 00000001800484c0     libucrt:wsetlocale.obj
 0002:000094d0       ??_C@_1BG@PPOMIBNJ@?$AAL?$AAC?$AA_?$AAC?$AAO?$AAL?$AAL?$AAA?$AAT?$AAE?$AA?$AA@ 00000001800484d0     libucrt:wsetlocale.obj
 0002:000094e8       ??_C@_1BC@FFJGAPJM@?$AAL?$AAC?$AA_?$AAC?$AAT?$AAY?$AAP?$AAE?$AA?$AA@ 00000001800484e8     libucrt:wsetlocale.obj
 0002:00009500       ??_C@_1BI@PCKFNJFB@?$AAL?$AAC?$AA_?$AAM?$AAO?$AAN?$AAE?$AAT?$AAA?$AAR?$AAY?$AA?$AA@ 0000000180048500     libucrt:wsetlocale.obj
 0002:00009518       ??_C@_1BG@ENIEDKID@?$AAL?$AAC?$AA_?$AAN?$AAU?$AAM?$AAE?$AAR?$AAI?$AAC?$AA?$AA@ 0000000180048518     libucrt:wsetlocale.obj
 0002:00009530       ??_C@_1BA@HAAOMIIG@?$AAL?$AAC?$AA_?$AAT?$AAI?$AAM?$AAE?$AA?$AA@ 0000000180048530     libucrt:wsetlocale.obj
 0002:00009540       ??_C@_15NBPDDFIP@?$AA?$DN?$AA?$DL?$AA?$AA@ 0000000180048540     libucrt:wsetlocale.obj
 0002:00009548       ??_C@_13PJJBFPED@?$AA?$DL?$AA?$AA@ 0000000180048548     libucrt:wsetlocale.obj
 0002:0000954c       ??_C@_13NMPKAAJP@?$AA?$DN?$AA?$AA@ 000000018004854c     libucrt:wsetlocale.obj
 0002:00009550       ??_C@_13FHBKNHDA@?$AAC?$AA?$AA@ 0000000180048550     libucrt:wsetlocale.obj
 0002:00009558       ??_C@_19MPDNHKDG@?$AAu?$AAt?$AAf?$AA8?$AA?$AA@ 0000000180048558     libucrt:wsetlocale.obj
 0002:00009568       ??_C@_1M@FPEIIFAM@?$AAu?$AAt?$AAf?$AA?9?$AA8?$AA?$AA@ 0000000180048568     libucrt:wsetlocale.obj
 0002:00009578       ??_C@_17MBJJLFDM@?$AA_?$AA?4?$AA?0?$AA?$AA@ 0000000180048578     libucrt:wsetlocale.obj
 0002:00009580       ??_C@_13ENNFDPBH@?$AA_?$AA?$AA@ 0000000180048580     libucrt:wsetlocale.obj
 0002:00009584       ??_C@_13JOFGPIOO@?$AA?4?$AA?$AA@ 0000000180048584     libucrt:wsetlocale.obj
 0002:00009590       __lc_time_c                0000000180048590     libucrt:nlsdata.obj
 0002:00009850       ??_C@_03KOEHGMDN@Sun?$AA@  0000000180048850     libucrt:nlsdata.obj
 0002:00009854       ??_C@_03PDAGKDH@Mon?$AA@   0000000180048854     libucrt:nlsdata.obj
 0002:00009858       ??_C@_03NAGEINEP@Tue?$AA@  0000000180048858     libucrt:nlsdata.obj
 0002:0000985c       ??_C@_03MHOMLAJA@Wed?$AA@  000000018004885c     libucrt:nlsdata.obj
 0002:00009860       ??_C@_03IOFIKPDN@Thu?$AA@  0000000180048860     libucrt:nlsdata.obj
 0002:00009864       ??_C@_03IDIOELNC@Fri?$AA@  0000000180048864     libucrt:nlsdata.obj
 0002:00009868       ??_C@_03FEFJNEK@Sat?$AA@   0000000180048868     libucrt:nlsdata.obj
 0002:0000986c       ??_C@_06OOPIFAJ@Sunday?$AA@ 000000018004886c     libucrt:nlsdata.obj
 0002:00009874       ??_C@_06JLEDEDGH@Monday?$AA@ 0000000180048874     libucrt:nlsdata.obj
 0002:00009880       ??_C@_07BAAGCFCM@Tuesday?$AA@ 0000000180048880     libucrt:nlsdata.obj
 0002:00009888       ??_C@_09DLIGFAKA@Wednesday?$AA@ 0000000180048888     libucrt:nlsdata.obj
 0002:00009898       ??_C@_08HACCIKIA@Thursday?$AA@ 0000000180048898     libucrt:nlsdata.obj
 0002:000098a4       ??_C@_06JECMNKMI@Friday?$AA@ 00000001800488a4     libucrt:nlsdata.obj
 0002:000098b0       ??_C@_08INBOOONO@Saturday?$AA@ 00000001800488b0     libucrt:nlsdata.obj
 0002:000098bc       ??_C@_03JIHJHPIE@Jan?$AA@  00000001800488bc     libucrt:nlsdata.obj
 0002:000098c0       ??_C@_03HJBDCHOM@Feb?$AA@  00000001800488c0     libucrt:nlsdata.obj
 0002:000098c4       ??_C@_03ODNJBKGA@Mar?$AA@  00000001800488c4     libucrt:nlsdata.obj
 0002:000098c8       ??_C@_03LEOLGMJP@Apr?$AA@  00000001800488c8     libucrt:nlsdata.obj
 0002:000098cc       ??_C@_03CNMDKL@May?$AA@    00000001800488cc     libucrt:nlsdata.obj
 0002:000098d0       ??_C@_03IDFGHECI@Jun?$AA@  00000001800488d0     libucrt:nlsdata.obj
 0002:000098d4       ??_C@_03LBGABGKK@Jul?$AA@  00000001800488d4     libucrt:nlsdata.obj
 0002:000098d8       ??_C@_03IFJFEIGA@Aug?$AA@  00000001800488d8     libucrt:nlsdata.obj
 0002:000098dc       ??_C@_03GGCAPAJC@Sep?$AA@  00000001800488dc     libucrt:nlsdata.obj
 0002:000098e0       ??_C@_03BMAOKBAD@Oct?$AA@  00000001800488e0     libucrt:nlsdata.obj
 0002:000098e4       ??_C@_03JPJOFNIA@Nov?$AA@  00000001800488e4     libucrt:nlsdata.obj
 0002:000098e8       ??_C@_03MKABNOCG@Dec?$AA@  00000001800488e8     libucrt:nlsdata.obj
 0002:000098f0       ??_C@_07CGJPFGJA@January?$AA@ 00000001800488f0     libucrt:nlsdata.obj
 0002:000098f8       ??_C@_08GNJGEPFN@February?$AA@ 00000001800488f8     libucrt:nlsdata.obj
 0002:00009904       ??_C@_05HPCKOFNC@March?$AA@ 0000000180048904     libucrt:nlsdata.obj
 0002:0000990c       ??_C@_05DMJDNLEJ@April?$AA@ 000000018004890c     libucrt:nlsdata.obj
 0002:00009914       ??_C@_04CNLMGBGM@June?$AA@ 0000000180048914     libucrt:nlsdata.obj
 0002:0000991c       ??_C@_04MIEPOIFP@July?$AA@ 000000018004891c     libucrt:nlsdata.obj
 0002:00009924       ??_C@_06LBBHFDDG@August?$AA@ 0000000180048924     libucrt:nlsdata.obj
 0002:00009930       ??_C@_09BHHEALKD@September?$AA@ 0000000180048930     libucrt:nlsdata.obj
 0002:00009940       ??_C@_07JJNFCEND@October?$AA@ 0000000180048940     libucrt:nlsdata.obj
 0002:00009948       ??_C@_08HCHEGEOA@November?$AA@ 0000000180048948     libucrt:nlsdata.obj
 0002:00009958       ??_C@_08EDHMEBNP@December?$AA@ 0000000180048958     libucrt:nlsdata.obj
 0002:00009964       ??_C@_02DEDBPAFC@AM?$AA@   0000000180048964     libucrt:nlsdata.obj
 0002:00009968       ??_C@_02CJNFDJBF@PM?$AA@   0000000180048968     libucrt:nlsdata.obj
 0002:00009970       ??_C@_08BPBNCDIB@MM?1dd?1yy?$AA@ 0000000180048970     libucrt:nlsdata.obj
 0002:00009980       ??_C@_0BE@CKGJFCPC@dddd?0?5MMMM?5dd?0?5yyyy?$AA@ 0000000180048980     libucrt:nlsdata.obj
 0002:00009998       ??_C@_08JCCMCCIL@HH?3mm?3ss?$AA@ 0000000180048998     libucrt:nlsdata.obj
 0002:000099a8       ??_C@_17MBGCMIPB@?$AAS?$AAu?$AAn?$AA?$AA@ 00000001800489a8     libucrt:nlsdata.obj
 0002:000099b0       ??_C@_17KBOMKBF@?$AAM?$AAo?$AAn?$AA?$AA@ 00000001800489b0     libucrt:nlsdata.obj
 0002:000099b8       ??_C@_17BMKGEGOJ@?$AAT?$AAu?$AAe?$AA?$AA@ 00000001800489b8     libucrt:nlsdata.obj
 0002:000099c0       ??_C@_17CJEDCEPE@?$AAW?$AAe?$AAd?$AA?$AA@ 00000001800489c0     libucrt:nlsdata.obj
 0002:000099c8       ??_C@_17PDPHAADD@?$AAT?$AAh?$AAu?$AA?$AA@ 00000001800489c8     libucrt:nlsdata.obj
 0002:000099d0       ??_C@_17HFOLPPLP@?$AAF?$AAr?$AAi?$AA?$AA@ 00000001800489d0     libucrt:nlsdata.obj
 0002:000099d8       ??_C@_17GGIBDPIH@?$AAS?$AAa?$AAt?$AA?$AA@ 00000001800489d8     libucrt:nlsdata.obj
 0002:000099e0       ??_C@_1O@IHNHDHPB@?$AAS?$AAu?$AAn?$AAd?$AAa?$AAy?$AA?$AA@ 00000001800489e0     libucrt:nlsdata.obj
 0002:000099f0       ??_C@_1O@MMNBFLIA@?$AAM?$AAo?$AAn?$AAd?$AAa?$AAy?$AA?$AA@ 00000001800489f0     libucrt:nlsdata.obj
 0002:00009a00       ??_C@_1BA@ENFBFFEK@?$AAT?$AAu?$AAe?$AAs?$AAd?$AAa?$AAy?$AA?$AA@ 0000000180048a00     libucrt:nlsdata.obj
 0002:00009a10       ??_C@_1BE@EBOGMDOH@?$AAW?$AAe?$AAd?$AAn?$AAe?$AAs?$AAd?$AAa?$AAy?$AA?$AA@ 0000000180048a10     libucrt:nlsdata.obj
 0002:00009a28       ??_C@_1BC@HHMNLIHE@?$AAT?$AAh?$AAu?$AAr?$AAs?$AAd?$AAa?$AAy?$AA?$AA@ 0000000180048a28     libucrt:nlsdata.obj
 0002:00009a40       ??_C@_1O@PDICJHAG@?$AAF?$AAr?$AAi?$AAd?$AAa?$AAy?$AA?$AA@ 0000000180048a40     libucrt:nlsdata.obj
 0002:00009a50       ??_C@_1BC@ENMNNPAJ@?$AAS?$AAa?$AAt?$AAu?$AAr?$AAd?$AAa?$AAy?$AA?$AA@ 0000000180048a50     libucrt:nlsdata.obj
 0002:00009a68       ??_C@_17DKNBKCHM@?$AAJ?$AAa?$AAn?$AA?$AA@ 0000000180048a68     libucrt:nlsdata.obj
 0002:00009a70       ??_C@_17LMDJEKJN@?$AAF?$AAe?$AAb?$AA?$AA@ 0000000180048a70     libucrt:nlsdata.obj
 0002:00009a78       ??_C@_17CKNLEDEC@?$AAM?$AAa?$AAr?$AA?$AA@ 0000000180048a78     libucrt:nlsdata.obj
 0002:00009a80       ??_C@_17LFPOIHDD@?$AAA?$AAp?$AAr?$AA?$AA@ 0000000180048a80     libucrt:nlsdata.obj
 0002:00009a88       ??_C@_17PNNKMEED@?$AAM?$AAa?$AAy?$AA?$AA@ 0000000180048a88     libucrt:nlsdata.obj
 0002:00009a90       ??_C@_17KCJGOCPB@?$AAJ?$AAu?$AAn?$AA?$AA@ 0000000180048a90     libucrt:nlsdata.obj
 0002:00009a98       ??_C@_17IJPCKHK@?$AAJ?$AAu?$AAl?$AA?$AA@ 0000000180048a98     libucrt:nlsdata.obj
 0002:00009aa0       ??_C@_17ICPELBCN@?$AAA?$AAu?$AAg?$AA?$AA@ 0000000180048aa0     libucrt:nlsdata.obj
 0002:00009aa8       ??_C@_17HCHCOKMG@?$AAS?$AAe?$AAp?$AA?$AA@ 0000000180048aa8     libucrt:nlsdata.obj
 0002:00009ab0       ??_C@_17FNLKOI@?$AAO?$AAc?$AAt?$AA?$AA@ 0000000180048ab0     libucrt:nlsdata.obj
 0002:00009ab8       ??_C@_17BBDMLCIG@?$AAN?$AAo?$AAv?$AA?$AA@ 0000000180048ab8     libucrt:nlsdata.obj
 0002:00009ac0       ??_C@_17EGKACKIF@?$AAD?$AAe?$AAc?$AA?$AA@ 0000000180048ac0     libucrt:nlsdata.obj
 0002:00009ac8       ??_C@_1BA@EFMEIEBA@?$AAJ?$AAa?$AAn?$AAu?$AAa?$AAr?$AAy?$AA?$AA@ 0000000180048ac8     libucrt:nlsdata.obj
 0002:00009ad8       ??_C@_1BC@JGDDFFAM@?$AAF?$AAe?$AAb?$AAr?$AAu?$AAa?$AAr?$AAy?$AA?$AA@ 0000000180048ad8     libucrt:nlsdata.obj
 0002:00009af0       ??_C@_1M@IKEENEDF@?$AAM?$AAa?$AAr?$AAc?$AAh?$AA?$AA@ 0000000180048af0     libucrt:nlsdata.obj
 0002:00009b00       ??_C@_1M@GJNLMHFD@?$AAA?$AAp?$AAr?$AAi?$AAl?$AA?$AA@ 0000000180048b00     libucrt:nlsdata.obj
 0002:00009b10       ??_C@_19EPFLPGAP@?$AAJ?$AAu?$AAn?$AAe?$AA?$AA@ 0000000180048b10     libucrt:nlsdata.obj
 0002:00009b20       ??_C@_19BIFMLPCD@?$AAJ?$AAu?$AAl?$AAy?$AA?$AA@ 0000000180048b20     libucrt:nlsdata.obj
 0002:00009b30       ??_C@_1O@PAHLKOAC@?$AAA?$AAu?$AAg?$AAu?$AAs?$AAt?$AA?$AA@ 0000000180048b30     libucrt:nlsdata.obj
 0002:00009b40       ??_C@_1BE@DKAAMBJL@?$AAS?$AAe?$AAp?$AAt?$AAe?$AAm?$AAb?$AAe?$AAr?$AA?$AA@ 0000000180048b40     libucrt:nlsdata.obj
 0002:00009b58       ??_C@_1BA@EPANDLNG@?$AAO?$AAc?$AAt?$AAo?$AAb?$AAe?$AAr?$AA?$AA@ 0000000180048b58     libucrt:nlsdata.obj
 0002:00009b68       ??_C@_1BC@BGLIFPF@?$AAN?$AAo?$AAv?$AAe?$AAm?$AAb?$AAe?$AAr?$AA?$AA@ 0000000180048b68     libucrt:nlsdata.obj
 0002:00009b80       ??_C@_1BC@FEMKIFH@?$AAD?$AAe?$AAc?$AAe?$AAm?$AAb?$AAe?$AAr?$AA?$AA@ 0000000180048b80     libucrt:nlsdata.obj
 0002:00009b94       ??_C@_15ODEHAHHF@?$AAA?$AAM?$AA?$AA@ 0000000180048b94     libucrt:nlsdata.obj
 0002:00009b9c       ??_C@_15CLMNNGEL@?$AAP?$AAM?$AA?$AA@ 0000000180048b9c     libucrt:nlsdata.obj
 0002:00009ba8       ??_C@_1BC@IEBCMHCM@?$AAM?$AAM?$AA?1?$AAd?$AAd?$AA?1?$AAy?$AAy?$AA?$AA@ 0000000180048ba8     libucrt:nlsdata.obj
 0002:00009bc0       ??_C@_1CI@KNAKOEBC@?$AAd?$AAd?$AAd?$AAd?$AA?0?$AA?5?$AAM?$AAM?$AAM?$AAM?$AA?5?$AAd?$AAd?$AA?0?$AA?5?$AAy?$AAy?$AAy?$AAy?$AA?$AA@ 0000000180048bc0     libucrt:nlsdata.obj
 0002:00009be8       ??_C@_1BC@GDGBMEMK@?$AAH?$AAH?$AA?3?$AAm?$AAm?$AA?3?$AAs?$AAs?$AA?$AA@ 0000000180048be8     libucrt:nlsdata.obj
 0002:00009c00       ??_C@_1M@BMHNFIME@?$AAe?$AAn?$AA?9?$AAU?$AAS?$AA?$AA@ 0000000180048c00     libucrt:nlsdata.obj
 0002:00009c0c       ??_C@_03JGHBODFD@pow?$AA@  0000000180048c0c     libucrt:fpexcept.obj
 0002:00009c10       ??_C@_05HGHHAHAP@log10?$AA@ 0000000180048c10     libucrt:fpexcept.obj
 0002:00009cc0       ??_C@_1EA@JGEFHKEI@?$AAa?$AAp?$AAi?$AA?9?$AAm?$AAs?$AA?9?$AAw?$AAi?$AAn?$AA?9?$AAc?$AAo?$AAr?$AAe?$AA?9?$AAd?$AAa?$AAt?$AAe?$AAt?$AAi?$AAm?$AAe?$AA?9?$AAl?$AA1?$AA?9?$AA1?$AA?9?$AA1?$AA?$AA@ 0000000180048cc0     libucrt:winapi_thunks.obj
 0002:00009d00       ??_C@_1DM@KHCHBNEB@?$AAa?$AAp?$AAi?$AA?9?$AAm?$AAs?$AA?9?$AAw?$AAi?$AAn?$AA?9?$AAc?$AAo?$AAr?$AAe?$AA?9?$AAf?$AAi?$AAb?$AAe?$AAr?$AAs?$AA?9?$AAl?$AA1?$AA?9?$AA1?$AA?9?$AA1?$AA?$AA@ 0000000180048d00     libucrt:winapi_thunks.obj
 0002:00009d40       ??_C@_1DI@IJCEHOCB@?$AAa?$AAp?$AAi?$AA?9?$AAm?$AAs?$AA?9?$AAw?$AAi?$AAn?$AA?9?$AAc?$AAo?$AAr?$AAe?$AA?9?$AAf?$AAi?$AAl?$AAe?$AA?9?$AAl?$AA1?$AA?9?$AA2?$AA?9?$AA2?$AA?$AA@ 0000000180048d40     libucrt:winapi_thunks.obj
 0002:00009d80       ??_C@_1EI@MPIAOHOC@?$AAa?$AAp?$AAi?$AA?9?$AAm?$AAs?$AA?9?$AAw?$AAi?$AAn?$AA?9?$AAc?$AAo?$AAr?$AAe?$AA?9?$AAl?$AAo?$AAc?$AAa?$AAl?$AAi?$AAz?$AAa?$AAt?$AAi?$AAo?$AAn?$AA?9?$AAl?$AA1?$AA?9@ 0000000180048d80     libucrt:winapi_thunks.obj
 0002:00009dd0       ??_C@_1FK@FPHCKFIE@?$AAa?$AAp?$AAi?$AA?9?$AAm?$AAs?$AA?9?$AAw?$AAi?$AAn?$AA?9?$AAc?$AAo?$AAr?$AAe?$AA?9?$AAl?$AAo?$AAc?$AAa?$AAl?$AAi?$AAz?$AAa?$AAt?$AAi?$AAo?$AAn?$AA?9?$AAo?$AAb?$AAs@ 0000000180048dd0     libucrt:winapi_thunks.obj
 0002:00009e30       ??_C@_1EM@DILCGIIO@?$AAa?$AAp?$AAi?$AA?9?$AAm?$AAs?$AA?9?$AAw?$AAi?$AAn?$AA?9?$AAc?$AAo?$AAr?$AAe?$AA?9?$AAp?$AAr?$AAo?$AAc?$AAe?$AAs?$AAs?$AAt?$AAh?$AAr?$AAe?$AAa?$AAd?$AAs?$AA?9?$AAl@ 0000000180048e30     libucrt:winapi_thunks.obj
 0002:00009e80       ??_C@_1DM@LNCGDDPN@?$AAa?$AAp?$AAi?$AA?9?$AAm?$AAs?$AA?9?$AAw?$AAi?$AAn?$AA?9?$AAc?$AAo?$AAr?$AAe?$AA?9?$AAs?$AAt?$AAr?$AAi?$AAn?$AAg?$AA?9?$AAl?$AA1?$AA?9?$AA1?$AA?9?$AA0?$AA?$AA@ 0000000180048e80     libucrt:winapi_thunks.obj
 0002:00009ec0       ??_C@_1DK@LPPGFMPP@?$AAa?$AAp?$AAi?$AA?9?$AAm?$AAs?$AA?9?$AAw?$AAi?$AAn?$AA?9?$AAc?$AAo?$AAr?$AAe?$AA?9?$AAs?$AAy?$AAn?$AAc?$AAh?$AA?9?$AAl?$AA1?$AA?9?$AA2?$AA?9?$AA0?$AA?$AA@ 0000000180048ec0     libucrt:winapi_thunks.obj
 0002:00009f00       ??_C@_1DO@FPAPJEMD@?$AAa?$AAp?$AAi?$AA?9?$AAm?$AAs?$AA?9?$AAw?$AAi?$AAn?$AA?9?$AAc?$AAo?$AAr?$AAe?$AA?9?$AAs?$AAy?$AAs?$AAi?$AAn?$AAf?$AAo?$AA?9?$AAl?$AA1?$AA?9?$AA2?$AA?9?$AA1?$AA?$AA@ 0000000180048f00     libucrt:winapi_thunks.obj
 0002:00009f40       ??_C@_1DK@NDHNAHIO@?$AAa?$AAp?$AAi?$AA?9?$AAm?$AAs?$AA?9?$AAw?$AAi?$AAn?$AA?9?$AAc?$AAo?$AAr?$AAe?$AA?9?$AAw?$AAi?$AAn?$AAr?$AAt?$AA?9?$AAl?$AA1?$AA?9?$AA1?$AA?9?$AA0?$AA?$AA@ 0000000180048f40     libucrt:winapi_thunks.obj
 0002:00009f80       ??_C@_1DM@KGHDGBCM@?$AAa?$AAp?$AAi?$AA?9?$AAm?$AAs?$AA?9?$AAw?$AAi?$AAn?$AA?9?$AAc?$AAo?$AAr?$AAe?$AA?9?$AAx?$AAs?$AAt?$AAa?$AAt?$AAe?$AA?9?$AAl?$AA2?$AA?9?$AA1?$AA?9?$AA0?$AA?$AA@ 0000000180048f80     libucrt:winapi_thunks.obj
 0002:00009fc0       ??_C@_1EO@IJIOEFOH@?$AAa?$AAp?$AAi?$AA?9?$AAm?$AAs?$AA?9?$AAw?$AAi?$AAn?$AA?9?$AAr?$AAt?$AAc?$AAo?$AAr?$AAe?$AA?9?$AAn?$AAt?$AAu?$AAs?$AAe?$AAr?$AA?9?$AAw?$AAi?$AAn?$AAd?$AAo?$AAw?$AA?9@ 0000000180048fc0     libucrt:winapi_thunks.obj
 0002:0000a010       ??_C@_1FG@HHGEKANL@?$AAa?$AAp?$AAi?$AA?9?$AAm?$AAs?$AA?9?$AAw?$AAi?$AAn?$AA?9?$AAs?$AAe?$AAc?$AAu?$AAr?$AAi?$AAt?$AAy?$AA?9?$AAs?$AAy?$AAs?$AAt?$AAe?$AAm?$AAf?$AAu?$AAn?$AAc?$AAt?$AAi@ 0000000180049010     libucrt:winapi_thunks.obj
 0002:0000a070       ??_C@_1EG@DBIOJECG@?$AAe?$AAx?$AAt?$AA?9?$AAm?$AAs?$AA?9?$AAw?$AAi?$AAn?$AA?9?$AAn?$AAt?$AAu?$AAs?$AAe?$AAr?$AA?9?$AAd?$AAi?$AAa?$AAl?$AAo?$AAg?$AAb?$AAo?$AAx?$AA?9?$AAl?$AA1?$AA?9?$AA1@ 0000000180049070     libucrt:winapi_thunks.obj
 0002:0000a0c0       ??_C@_1EO@FIHMJCLF@?$AAe?$AAx?$AAt?$AA?9?$AAm?$AAs?$AA?9?$AAw?$AAi?$AAn?$AA?9?$AAn?$AAt?$AAu?$AAs?$AAe?$AAr?$AA?9?$AAw?$AAi?$AAn?$AAd?$AAo?$AAw?$AAs?$AAt?$AAa?$AAt?$AAi?$AAo?$AAn?$AA?9@ 00000001800490c0     libucrt:winapi_thunks.obj
 0002:0000a110       ??_C@_1BC@DNHGCMLG@?$AAa?$AAd?$AAv?$AAa?$AAp?$AAi?$AA3?$AA2?$AA?$AA@ 0000000180049110     libucrt:winapi_thunks.obj
 0002:0000a128       ??_C@_1BC@GDMECMAK@?$AAk?$AAe?$AAr?$AAn?$AAe?$AAl?$AA3?$AA2?$AA?$AA@ 0000000180049128     libucrt:winapi_thunks.obj
 0002:0000a140       ??_C@_1M@OAIMIKLP@?$AAn?$AAt?$AAd?$AAl?$AAl?$AA?$AA@ 0000000180049140     libucrt:winapi_thunks.obj
 0002:0000a150       ??_C@_1EG@DPGNFKGC@?$AAa?$AAp?$AAi?$AA?9?$AAm?$AAs?$AA?9?$AAw?$AAi?$AAn?$AA?9?$AAa?$AAp?$AAp?$AAm?$AAo?$AAd?$AAe?$AAl?$AA?9?$AAr?$AAu?$AAn?$AAt?$AAi?$AAm?$AAe?$AA?9?$AAl?$AA1?$AA?9?$AA1@ 0000000180049150     libucrt:winapi_thunks.obj
 0002:0000a198       ??_C@_1O@BCCLBEOE@?$AAu?$AAs?$AAe?$AAr?$AA3?$AA2?$AA?$AA@ 0000000180049198     libucrt:winapi_thunks.obj
 0002:0000a1a8       ??_C@_1BA@PFFKHIOG@?$AAa?$AAp?$AAi?$AA?9?$AAm?$AAs?$AA?9?$AA?$AA@ 00000001800491a8     libucrt:winapi_thunks.obj
 0002:0000a1b8       ??_C@_1BA@IAIFMGEF@?$AAe?$AAx?$AAt?$AA?9?$AAm?$AAs?$AA?9?$AA?$AA@ 00000001800491b8     libucrt:winapi_thunks.obj
 0002:0000a1d0       ??_C@_0BA@FHFNEAED@AreFileApisANSI?$AA@ 00000001800491d0     libucrt:winapi_thunks.obj
 0002:0000a1e8       ??_C@_0BA@IHGNDAEB@CompareStringEx?$AA@ 00000001800491e8     libucrt:winapi_thunks.obj
 0002:0000a200       ??_C@_0BE@LJANKFHF@EnumSystemLocalesEx?$AA@ 0000000180049200     libucrt:winapi_thunks.obj
 0002:0000a220       ??_C@_08KNHFBNJ@FlsAlloc?$AA@ 0000000180049220     libucrt:winapi_thunks.obj
 0002:0000a238       ??_C@_07PEJMOBNF@FlsFree?$AA@ 0000000180049238     libucrt:winapi_thunks.obj
 0002:0000a248       ??_C@_0M@GDNOONDI@FlsGetValue?$AA@ 0000000180049248     libucrt:winapi_thunks.obj
 0002:0000a260       ??_C@_0M@JCPCPOEF@FlsSetValue?$AA@ 0000000180049260     libucrt:winapi_thunks.obj
 0002:0000a278       ??_C@_0BA@HNOPNCHB@GetActiveWindow?$AA@ 0000000180049278     libucrt:winapi_thunks.obj
 0002:0000a290       ??_C@_0BA@EPCJIIPD@GetDateFormatEx?$AA@ 0000000180049290     libucrt:winapi_thunks.obj
 0002:0000a2a8       ??_C@_0BD@HHGDFDBJ@GetLastActivePopup?$AA@ 00000001800492a8     libucrt:winapi_thunks.obj
 0002:0000a2c8       ??_C@_0BA@ONOKGCMP@GetLocaleInfoEx?$AA@ 00000001800492c8     libucrt:winapi_thunks.obj
 0002:0000a2e0       ??_C@_0BI@DFKBFLJE@GetProcessWindowStation?$AA@ 00000001800492e0     libucrt:winapi_thunks.obj
 0002:0000a300       ??_C@_0BP@FPNJPEJC@GetSystemTimePreciseAsFileTime?$AA@ 0000000180049300     libucrt:winapi_thunks.obj
 0002:0000a328       ??_C@_0BA@CIJJKCJJ@GetTimeFormatEx?$AA@ 0000000180049328     libucrt:winapi_thunks.obj
 0002:0000a340       ??_C@_0BJ@PBCCBIPI@GetUserDefaultLocaleName?$AA@ 0000000180049340     libucrt:winapi_thunks.obj
 0002:0000a368       ??_C@_0BK@DEKFELLI@GetUserObjectInformationW?$AA@ 0000000180049368     libucrt:winapi_thunks.obj
 0002:0000a390       ??_C@_0BM@HCFOFFN@InitializeCriticalSectionEx?$AA@ 0000000180049390     libucrt:winapi_thunks.obj
 0002:0000a3b8       ??_C@_0BC@CELBKLLA@IsValidLocaleName?$AA@ 00000001800493b8     libucrt:winapi_thunks.obj
 0002:0000a3d8       ??_C@_0O@KKBNKAPF@LCMapStringEx?$AA@ 00000001800493d8     libucrt:winapi_thunks.obj
 0002:0000a3f0       ??_C@_0BB@CDHDDLLP@LCIDToLocaleName?$AA@ 00000001800493f0     libucrt:winapi_thunks.obj
 0002:0000a410       ??_C@_0BB@HBDEELFH@LocaleNameToLCID?$AA@ 0000000180049410     libucrt:winapi_thunks.obj
 0002:0000a430       ??_C@_0M@CHKKJDAI@MessageBoxA?$AA@ 0000000180049430     libucrt:winapi_thunks.obj
 0002:0000a448       ??_C@_0M@DLDCCGNP@MessageBoxW?$AA@ 0000000180049448     libucrt:winapi_thunks.obj
 0002:0000a458       ??_C@_0CF@OJOFEIGO@AppPolicyGetProcessTerminationMe@ 0000000180049458     libucrt:winapi_thunks.obj
 0002:0000a488       ??_C@_0CE@OICFMIKE@AppPolicyGetShowDeveloperDiagnos@ 0000000180049488     libucrt:winapi_thunks.obj
 0002:0000a4b0       ??_C@_0BL@ODDJNEDA@AppPolicyGetWindowingModel?$AA@ 00000001800494b0     libucrt:winapi_thunks.obj
 0002:0000a500       __log_256_lead             0000000180049500     libucrt:log_256_lead_tail_table.obj
 0002:0000ad10       __log_256_tail             0000000180049d10     libucrt:log_256_lead_tail_table.obj
 0002:0000b520       __two_to_jby64_head_table  000000018004a520     libucrt:two_to_jby64_head_tail_table.obj
 0002:0000b720       __two_to_jby64_tail_table  000000018004a720     libucrt:two_to_jby64_head_tail_table.obj
 0002:0000b920       ??_C@_04MBFDLNIM@powf?$AA@ 000000018004a920     libucrt:pow_special.obj
 0002:0000b930       __two_to_jby64_table       000000018004a930     libucrt:two_to_jby64_table.obj
 0002:0000bb30       __log_F_inv_qword          000000018004ab30     libucrt:log_f_inv_qword_table.obj
 0002:0000c360       ??_C@_1M@HPNHIDJI@?$AAj?$AAa?$AA?9?$AAJ?$AAP?$AA?$AA@ 000000018004b360     libucrt:mbctype.obj
 0002:0000c370       ??_C@_1M@BIBDDEMK@?$AAz?$AAh?$AA?9?$AAC?$AAN?$AA?$AA@ 000000018004b370     libucrt:mbctype.obj
 0002:0000c380       ??_C@_1M@JLOOOEGK@?$AAk?$AAo?$AA?9?$AAK?$AAR?$AA?$AA@ 000000018004b380     libucrt:mbctype.obj
 0002:0000c390       ??_C@_1M@CLNBBOPM@?$AAz?$AAh?$AA?9?$AAT?$AAW?$AA?$AA@ 000000018004b390     libucrt:mbctype.obj
 0002:0000c39c       ??_C@_00CNPNBAHC@?$AA@     000000018004b39c     libucrt:mbrtowc.obj
 0002:0000c3a0       ??_C@_01GBGANLPD@0?$AA@    000000018004b3a0     libucrt:cfout.obj
 0002:0000c3a4       ??_C@_05DNEBIAHO@1?$CDINF?$AA@ 000000018004b3a4     libucrt:cfout.obj
 0002:0000c3ac       ??_C@_06IMKFLFPG@1?$CDQNAN?$AA@ 000000018004b3ac     libucrt:cfout.obj
 0002:0000c3b4       ??_C@_06PGGFOGJG@1?$CDSNAN?$AA@ 000000018004b3b4     libucrt:cfout.obj
 0002:0000c3bc       ??_C@_05PHHOCPM@1?$CDIND?$AA@ 000000018004b3bc     libucrt:cfout.obj
 0002:0000c3d0       __acrt_rg_language         000000018004b3d0     libucrt:get_qualified_locale.obj
 0002:0000c7e0       __acrt_rg_language_count   000000018004b7e0     libucrt:get_qualified_locale.obj
 0002:0000c7f0       __acrt_rg_country          000000018004b7f0     libucrt:get_qualified_locale.obj
 0002:0000c960       __acrt_rg_country_count    000000018004b960     libucrt:get_qualified_locale.obj
 0002:0000c968       ??_C@_1BC@LLOKLNP@?$AAa?$AAm?$AAe?$AAr?$AAi?$AAc?$AAa?$AAn?$AA?$AA@ 000000018004b968     libucrt:get_qualified_locale.obj
 0002:0000c980       ??_C@_1CC@HEIGCDGG@?$AAa?$AAm?$AAe?$AAr?$AAi?$AAc?$AAa?$AAn?$AA?5?$AAe?$AAn?$AAg?$AAl?$AAi?$AAs?$AAh?$AA?$AA@ 000000018004b980     libucrt:get_qualified_locale.obj
 0002:0000c9a8       ??_C@_1CC@IHCNOMIN@?$AAa?$AAm?$AAe?$AAr?$AAi?$AAc?$AAa?$AAn?$AA?9?$AAe?$AAn?$AAg?$AAl?$AAi?$AAs?$AAh?$AA?$AA@ 000000018004b9a8     libucrt:get_qualified_locale.obj
 0002:0000c9d0       ??_C@_1BG@GKAGPCGG@?$AAa?$AAu?$AAs?$AAt?$AAr?$AAa?$AAl?$AAi?$AAa?$AAn?$AA?$AA@ 000000018004b9d0     libucrt:get_qualified_locale.obj
 0002:0000c9e8       ??_C@_1BA@GMENCENF@?$AAb?$AAe?$AAl?$AAg?$AAi?$AAa?$AAn?$AA?$AA@ 000000018004b9e8     libucrt:get_qualified_locale.obj
 0002:0000c9f8       ??_C@_1BC@PJMIIAAN@?$AAc?$AAa?$AAn?$AAa?$AAd?$AAi?$AAa?$AAn?$AA?$AA@ 000000018004b9f8     libucrt:get_qualified_locale.obj
 0002:0000ca10       ??_C@_17NOIMNFBF@?$AAc?$AAh?$AAh?$AA?$AA@ 000000018004ba10     libucrt:get_qualified_locale.obj
 0002:0000ca18       ??_C@_17GGDALCHA@?$AAc?$AAh?$AAi?$AA?$AA@ 000000018004ba18     libucrt:get_qualified_locale.obj
 0002:0000ca20       ??_C@_1BA@NPNJKIBL@?$AAc?$AAh?$AAi?$AAn?$AAe?$AAs?$AAe?$AA?$AA@ 000000018004ba20     libucrt:get_qualified_locale.obj
 0002:0000ca30       ??_C@_1CC@DINBAMMJ@?$AAc?$AAh?$AAi?$AAn?$AAe?$AAs?$AAe?$AA?9?$AAh?$AAo?$AAn?$AAg?$AAk?$AAo?$AAn?$AAg?$AA?$AA@ 000000018004ba30     libucrt:get_qualified_locale.obj
 0002:0000ca58       ??_C@_1CG@IOBJPACO@?$AAc?$AAh?$AAi?$AAn?$AAe?$AAs?$AAe?$AA?9?$AAs?$AAi?$AAm?$AAp?$AAl?$AAi?$AAf?$AAi?$AAe?$AAd?$AA?$AA@ 000000018004ba58     libucrt:get_qualified_locale.obj
 0002:0000ca80       ??_C@_1CE@GAJNDCKG@?$AAc?$AAh?$AAi?$AAn?$AAe?$AAs?$AAe?$AA?9?$AAs?$AAi?$AAn?$AAg?$AAa?$AAp?$AAo?$AAr?$AAe?$AA?$AA@ 000000018004ba80     libucrt:get_qualified_locale.obj
 0002:0000caa8       ??_C@_1CI@PAJPIOOD@?$AAc?$AAh?$AAi?$AAn?$AAe?$AAs?$AAe?$AA?9?$AAt?$AAr?$AAa?$AAd?$AAi?$AAt?$AAi?$AAo?$AAn?$AAa?$AAl?$AA?$AA@ 000000018004baa8     libucrt:get_qualified_locale.obj
 0002:0000cad0       ??_C@_1BM@NILJBMMD@?$AAd?$AAu?$AAt?$AAc?$AAh?$AA?9?$AAb?$AAe?$AAl?$AAg?$AAi?$AAa?$AAn?$AA?$AA@ 000000018004bad0     libucrt:get_qualified_locale.obj
 0002:0000caf0       ??_C@_1CC@OOJPJNEJ@?$AAe?$AAn?$AAg?$AAl?$AAi?$AAs?$AAh?$AA?9?$AAa?$AAm?$AAe?$AAr?$AAi?$AAc?$AAa?$AAn?$AA?$AA@ 000000018004baf0     libucrt:get_qualified_locale.obj
 0002:0000cb18       ??_C@_1BI@IOLFEEM@?$AAe?$AAn?$AAg?$AAl?$AAi?$AAs?$AAh?$AA?9?$AAa?$AAu?$AAs?$AA?$AA@ 000000018004bb18     libucrt:get_qualified_locale.obj
 0002:0000cb30       ??_C@_1BO@HFFNLENJ@?$AAe?$AAn?$AAg?$AAl?$AAi?$AAs?$AAh?$AA?9?$AAb?$AAe?$AAl?$AAi?$AAz?$AAe?$AA?$AA@ 000000018004bb30     libucrt:get_qualified_locale.obj
 0002:0000cb50       ??_C@_1BI@HAPKJMPO@?$AAe?$AAn?$AAg?$AAl?$AAi?$AAs?$AAh?$AA?9?$AAc?$AAa?$AAn?$AA?$AA@ 000000018004bb50     libucrt:get_qualified_locale.obj
 0002:0000cb68       ??_C@_1CE@HLNDMIOJ@?$AAe?$AAn?$AAg?$AAl?$AAi?$AAs?$AAh?$AA?9?$AAc?$AAa?$AAr?$AAi?$AAb?$AAb?$AAe?$AAa?$AAn?$AA?$AA@ 000000018004bb68     libucrt:get_qualified_locale.obj
 0002:0000cb90       ??_C@_1BI@LDHJHHAC@?$AAe?$AAn?$AAg?$AAl?$AAi?$AAs?$AAh?$AA?9?$AAi?$AAr?$AAe?$AA?$AA@ 000000018004bb90     libucrt:get_qualified_locale.obj
 0002:0000cba8       ??_C@_1CA@NJMMCFOC@?$AAe?$AAn?$AAg?$AAl?$AAi?$AAs?$AAh?$AA?9?$AAj?$AAa?$AAm?$AAa?$AAi?$AAc?$AAa?$AA?$AA@ 000000018004bba8     libucrt:get_qualified_locale.obj
 0002:0000cbc8       ??_C@_1BG@BHJEBBGG@?$AAe?$AAn?$AAg?$AAl?$AAi?$AAs?$AAh?$AA?9?$AAn?$AAz?$AA?$AA@ 000000018004bbc8     libucrt:get_qualified_locale.obj
 0002:0000cbe0       ??_C@_1CK@FGOEJJCO@?$AAe?$AAn?$AAg?$AAl?$AAi?$AAs?$AAh?$AA?9?$AAs?$AAo?$AAu?$AAt?$AAh?$AA?5?$AAa?$AAf?$AAr?$AAi?$AAc?$AAa?$AA?$AA@ 000000018004bbe0     libucrt:get_qualified_locale.obj
 0002:0000cc10       ??_C@_1DE@PDBJPCJ@?$AAe?$AAn?$AAg?$AAl?$AAi?$AAs?$AAh?$AA?9?$AAt?$AAr?$AAi?$AAn?$AAi?$AAd?$AAa?$AAd?$AA?5?$AAy?$AA?5?$AAt?$AAo?$AAb?$AAa?$AAg?$AAo?$AA?$AA@ 000000018004bc10     libucrt:get_qualified_locale.obj
 0002:0000cc48       ??_C@_1BG@JGCANDME@?$AAe?$AAn?$AAg?$AAl?$AAi?$AAs?$AAh?$AA?9?$AAu?$AAk?$AA?$AA@ 000000018004bc48     libucrt:get_qualified_locale.obj
 0002:0000cc60       ??_C@_1BG@DINKMLE@?$AAe?$AAn?$AAg?$AAl?$AAi?$AAs?$AAh?$AA?9?$AAu?$AAs?$AA?$AA@ 000000018004bc60     libucrt:get_qualified_locale.obj
 0002:0000cc78       ??_C@_1BI@NMFDBHJE@?$AAe?$AAn?$AAg?$AAl?$AAi?$AAs?$AAh?$AA?9?$AAu?$AAs?$AAa?$AA?$AA@ 000000018004bc78     libucrt:get_qualified_locale.obj
 0002:0000cc90       ??_C@_1BO@OIHKJKII@?$AAf?$AAr?$AAe?$AAn?$AAc?$AAh?$AA?9?$AAb?$AAe?$AAl?$AAg?$AAi?$AAa?$AAn?$AA?$AA@ 000000018004bc90     libucrt:get_qualified_locale.obj
 0002:0000ccb0       ??_C@_1CA@NKAELJKI@?$AAf?$AAr?$AAe?$AAn?$AAc?$AAh?$AA?9?$AAc?$AAa?$AAn?$AAa?$AAd?$AAi?$AAa?$AAn?$AA?$AA@ 000000018004bcb0     libucrt:get_qualified_locale.obj
 0002:0000ccd0       ??_C@_1CE@MGKCNLGN@?$AAf?$AAr?$AAe?$AAn?$AAc?$AAh?$AA?9?$AAl?$AAu?$AAx?$AAe?$AAm?$AAb?$AAo?$AAu?$AAr?$AAg?$AA?$AA@ 000000018004bcd0     libucrt:get_qualified_locale.obj
 0002:0000ccf8       ??_C@_1BK@CEGEAILM@?$AAf?$AAr?$AAe?$AAn?$AAc?$AAh?$AA?9?$AAs?$AAw?$AAi?$AAs?$AAs?$AA?$AA@ 000000018004bcf8     libucrt:get_qualified_locale.obj
 0002:0000cd18       ??_C@_1CA@PAFKEOCC@?$AAg?$AAe?$AAr?$AAm?$AAa?$AAn?$AA?9?$AAa?$AAu?$AAs?$AAt?$AAr?$AAi?$AAa?$AAn?$AA?$AA@ 000000018004bd18     libucrt:get_qualified_locale.obj
 0002:0000cd38       ??_C@_1CI@HCFHGOFD@?$AAg?$AAe?$AAr?$AAm?$AAa?$AAn?$AA?9?$AAl?$AAi?$AAc?$AAh?$AAt?$AAe?$AAn?$AAs?$AAt?$AAe?$AAi?$AAn?$AA?$AA@ 000000018004bd38     libucrt:get_qualified_locale.obj
 0002:0000cd60       ??_C@_1CE@FEDDNPDG@?$AAg?$AAe?$AAr?$AAm?$AAa?$AAn?$AA?9?$AAl?$AAu?$AAx?$AAe?$AAm?$AAb?$AAo?$AAu?$AAr?$AAg?$AA?$AA@ 000000018004bd60     libucrt:get_qualified_locale.obj
 0002:0000cd88       ??_C@_1BK@LIMINNMN@?$AAg?$AAe?$AAr?$AAm?$AAa?$AAn?$AA?9?$AAs?$AAw?$AAi?$AAs?$AAs?$AA?$AA@ 000000018004bd88     libucrt:get_qualified_locale.obj
 0002:0000cda8       ??_C@_1BM@LGMDBEPD@?$AAi?$AAr?$AAi?$AAs?$AAh?$AA?9?$AAe?$AAn?$AAg?$AAl?$AAi?$AAs?$AAh?$AA?$AA@ 000000018004bda8     libucrt:get_qualified_locale.obj
 0002:0000cdc8       ??_C@_1BM@NNCFBAEE@?$AAi?$AAt?$AAa?$AAl?$AAi?$AAa?$AAn?$AA?9?$AAs?$AAw?$AAi?$AAs?$AAs?$AA?$AA@ 000000018004bdc8     libucrt:get_qualified_locale.obj
 0002:0000cde8       ??_C@_1BE@FEDJNPIB@?$AAn?$AAo?$AAr?$AAw?$AAe?$AAg?$AAi?$AAa?$AAn?$AA?$AA@ 000000018004bde8     libucrt:get_qualified_locale.obj
 0002:0000ce00       ??_C@_1CC@CILKDEIE@?$AAn?$AAo?$AAr?$AAw?$AAe?$AAg?$AAi?$AAa?$AAn?$AA?9?$AAb?$AAo?$AAk?$AAm?$AAa?$AAl?$AA?$AA@ 000000018004be00     libucrt:get_qualified_locale.obj
 0002:0000ce28       ??_C@_1CE@DHMMHEPL@?$AAn?$AAo?$AAr?$AAw?$AAe?$AAg?$AAi?$AAa?$AAn?$AA?9?$AAn?$AAy?$AAn?$AAo?$AAr?$AAs?$AAk?$AA?$AA@ 000000018004be28     libucrt:get_qualified_locale.obj
 0002:0000ce50       ??_C@_1CK@OPNMHECD@?$AAp?$AAo?$AAr?$AAt?$AAu?$AAg?$AAu?$AAe?$AAs?$AAe?$AA?9?$AAb?$AAr?$AAa?$AAz?$AAi?$AAl?$AAi?$AAa?$AAn?$AA?$AA@ 000000018004be50     libucrt:get_qualified_locale.obj
 0002:0000ce80       ??_C@_1CE@KEEHCDB@?$AAs?$AAp?$AAa?$AAn?$AAi?$AAs?$AAh?$AA?9?$AAa?$AAr?$AAg?$AAe?$AAn?$AAt?$AAi?$AAn?$AAa?$AA?$AA@ 000000018004be80     libucrt:get_qualified_locale.obj
 0002:0000cea8       ??_C@_1CA@GIAOLHJD@?$AAs?$AAp?$AAa?$AAn?$AAi?$AAs?$AAh?$AA?9?$AAb?$AAo?$AAl?$AAi?$AAv?$AAi?$AAa?$AA?$AA@ 000000018004bea8     libucrt:get_qualified_locale.obj
 0002:0000cec8       ??_C@_1BM@OJNDFNPD@?$AAs?$AAp?$AAa?$AAn?$AAi?$AAs?$AAh?$AA?9?$AAc?$AAh?$AAi?$AAl?$AAe?$AA?$AA@ 000000018004bec8     libucrt:get_qualified_locale.obj
 0002:0000cee8       ??_C@_1CC@OCOLPALL@?$AAs?$AAp?$AAa?$AAn?$AAi?$AAs?$AAh?$AA?9?$AAc?$AAo?$AAl?$AAo?$AAm?$AAb?$AAi?$AAa?$AA?$AA@ 000000018004bee8     libucrt:get_qualified_locale.obj
 0002:0000cf10       ??_C@_1CG@BPOFMKBB@?$AAs?$AAp?$AAa?$AAn?$AAi?$AAs?$AAh?$AA?9?$AAc?$AAo?$AAs?$AAt?$AAa?$AA?5?$AAr?$AAi?$AAc?$AAa?$AA?$AA@ 000000018004bf10     libucrt:get_qualified_locale.obj
 0002:0000cf38       ??_C@_1DG@IGOBAPBB@?$AAs?$AAp?$AAa?$AAn?$AAi?$AAs?$AAh?$AA?9?$AAd?$AAo?$AAm?$AAi?$AAn?$AAi?$AAc?$AAa?$AAn?$AA?5?$AAr?$AAe?$AAp?$AAu?$AAb?$AAl?$AAi?$AAc?$AA?$AA@ 000000018004bf38     libucrt:get_qualified_locale.obj
 0002:0000cf70       ??_C@_1CA@JHAPGEGI@?$AAs?$AAp?$AAa?$AAn?$AAi?$AAs?$AAh?$AA?9?$AAe?$AAc?$AAu?$AAa?$AAd?$AAo?$AAr?$AA?$AA@ 000000018004bf70     libucrt:get_qualified_locale.obj
 0002:0000cf90       ??_C@_1CI@LAPALJPP@?$AAs?$AAp?$AAa?$AAn?$AAi?$AAs?$AAh?$AA?9?$AAe?$AAl?$AA?5?$AAs?$AAa?$AAl?$AAv?$AAa?$AAd?$AAo?$AAr?$AA?$AA@ 000000018004bf90     libucrt:get_qualified_locale.obj
 0002:0000cfb8       ??_C@_1CE@PDGBOFOM@?$AAs?$AAp?$AAa?$AAn?$AAi?$AAs?$AAh?$AA?9?$AAg?$AAu?$AAa?$AAt?$AAe?$AAm?$AAa?$AAl?$AAa?$AA?$AA@ 000000018004bfb8     libucrt:get_qualified_locale.obj
 0002:0000cfe0       ??_C@_1CC@NBEBAODI@?$AAs?$AAp?$AAa?$AAn?$AAi?$AAs?$AAh?$AA?9?$AAh?$AAo?$AAn?$AAd?$AAu?$AAr?$AAa?$AAs?$AA?$AA@ 000000018004bfe0     libucrt:get_qualified_locale.obj
 0002:0000d008       ??_C@_1CA@LLKGHBMF@?$AAs?$AAp?$AAa?$AAn?$AAi?$AAs?$AAh?$AA?9?$AAm?$AAe?$AAx?$AAi?$AAc?$AAa?$AAn?$AA?$AA@ 000000018004c008     libucrt:get_qualified_locale.obj
 0002:0000d028       ??_C@_1BO@LKNDOIGD@?$AAs?$AAp?$AAa?$AAn?$AAi?$AAs?$AAh?$AA?9?$AAm?$AAo?$AAd?$AAe?$AAr?$AAn?$AA?$AA@ 000000018004c028     libucrt:get_qualified_locale.obj
 0002:0000d048       ??_C@_1CE@NMDMOEEB@?$AAs?$AAp?$AAa?$AAn?$AAi?$AAs?$AAh?$AA?9?$AAn?$AAi?$AAc?$AAa?$AAr?$AAa?$AAg?$AAu?$AAa?$AA?$AA@ 000000018004c048     libucrt:get_qualified_locale.obj
 0002:0000d070       ??_C@_1BO@LLCBEJGB@?$AAs?$AAp?$AAa?$AAn?$AAi?$AAs?$AAh?$AA?9?$AAp?$AAa?$AAn?$AAa?$AAm?$AAa?$AA?$AA@ 000000018004c070     libucrt:get_qualified_locale.obj
 0002:0000d090       ??_C@_1CC@FKPGGIHO@?$AAs?$AAp?$AAa?$AAn?$AAi?$AAs?$AAh?$AA?9?$AAp?$AAa?$AAr?$AAa?$AAg?$AAu?$AAa?$AAy?$AA?$AA@ 000000018004c090     libucrt:get_qualified_locale.obj
 0002:0000d0b8       ??_C@_1BK@CDEIHOOP@?$AAs?$AAp?$AAa?$AAn?$AAi?$AAs?$AAh?$AA?9?$AAp?$AAe?$AAr?$AAu?$AA?$AA@ 000000018004c0b8     libucrt:get_qualified_locale.obj
 0002:0000d0d8       ??_C@_1CI@GAHAKKGP@?$AAs?$AAp?$AAa?$AAn?$AAi?$AAs?$AAh?$AA?9?$AAp?$AAu?$AAe?$AAr?$AAt?$AAo?$AA?5?$AAr?$AAi?$AAc?$AAo?$AA?$AA@ 000000018004c0d8     libucrt:get_qualified_locale.obj
 0002:0000d100       ??_C@_1CA@NKJBCAGP@?$AAs?$AAp?$AAa?$AAn?$AAi?$AAs?$AAh?$AA?9?$AAu?$AAr?$AAu?$AAg?$AAu?$AAa?$AAy?$AA?$AA@ 000000018004c100     libucrt:get_qualified_locale.obj
 0002:0000d120       ??_C@_1CE@ODILCONM@?$AAs?$AAp?$AAa?$AAn?$AAi?$AAs?$AAh?$AA?9?$AAv?$AAe?$AAn?$AAe?$AAz?$AAu?$AAe?$AAl?$AAa?$AA?$AA@ 000000018004c120     libucrt:get_qualified_locale.obj
 0002:0000d148       ??_C@_1CA@OBNMCGFO@?$AAs?$AAw?$AAe?$AAd?$AAi?$AAs?$AAh?$AA?9?$AAf?$AAi?$AAn?$AAl?$AAa?$AAn?$AAd?$AA?$AA@ 000000018004c148     libucrt:get_qualified_locale.obj
 0002:0000d168       ??_C@_1M@PIPDDPPI@?$AAs?$AAw?$AAi?$AAs?$AAs?$AA?$AA@ 000000018004c168     libucrt:get_qualified_locale.obj
 0002:0000d174       ??_C@_15PJPFLCCM@?$AAu?$AAk?$AA?$AA@ 000000018004c174     libucrt:get_qualified_locale.obj
 0002:0000d17c       ??_C@_15GMFIMNFM@?$AAu?$AAs?$AA?$AA@ 000000018004c17c     libucrt:get_qualified_locale.obj
 0002:0000d188       ??_C@_17HAEBFAGL@?$AAu?$AAs?$AAa?$AA?$AA@ 000000018004c188     libucrt:get_qualified_locale.obj
 0002:0000d190       ??_C@_1BA@DPFJEPHB@?$AAa?$AAm?$AAe?$AAr?$AAi?$AAc?$AAa?$AA?$AA@ 000000018004c190     libucrt:get_qualified_locale.obj
 0002:0000d1a0       ??_C@_1BA@ELOGGFK@?$AAb?$AAr?$AAi?$AAt?$AAa?$AAi?$AAn?$AA?$AA@ 000000018004c1a0     libucrt:get_qualified_locale.obj
 0002:0000d1b0       ??_C@_1M@GHBGIGDA@?$AAc?$AAh?$AAi?$AAn?$AAa?$AA?$AA@ 000000018004c1b0     libucrt:get_qualified_locale.obj
 0002:0000d1c0       ??_C@_1M@NCHEJOPO@?$AAc?$AAz?$AAe?$AAc?$AAh?$AA?$AA@ 000000018004c1c0     libucrt:get_qualified_locale.obj
 0002:0000d1d0       ??_C@_1BA@BKPAPBLA@?$AAe?$AAn?$AAg?$AAl?$AAa?$AAn?$AAd?$AA?$AA@ 000000018004c1d0     libucrt:get_qualified_locale.obj
 0002:0000d1e0       ??_C@_1BM@HKBCKIPC@?$AAg?$AAr?$AAe?$AAa?$AAt?$AA?5?$AAb?$AAr?$AAi?$AAt?$AAa?$AAi?$AAn?$AA?$AA@ 000000018004c1e0     libucrt:get_qualified_locale.obj
 0002:0000d200       ??_C@_1BA@PPCHPGJB@?$AAh?$AAo?$AAl?$AAl?$AAa?$AAn?$AAd?$AA?$AA@ 000000018004c200     libucrt:get_qualified_locale.obj
 0002:0000d210       ??_C@_1BE@JBMPEGDG@?$AAh?$AAo?$AAn?$AAg?$AA?9?$AAk?$AAo?$AAn?$AAg?$AA?$AA@ 000000018004c210     libucrt:get_qualified_locale.obj
 0002:0000d228       ??_C@_1BI@KOELBBPJ@?$AAn?$AAe?$AAw?$AA?9?$AAz?$AAe?$AAa?$AAl?$AAa?$AAn?$AAd?$AA?$AA@ 000000018004c228     libucrt:get_qualified_locale.obj
 0002:0000d240       ??_C@_15HIEBHAIO@?$AAn?$AAz?$AA?$AA@ 000000018004c240     libucrt:get_qualified_locale.obj
 0002:0000d248       ??_C@_1BC@CHBCPFPI@?$AAp?$AAr?$AA?5?$AAc?$AAh?$AAi?$AAn?$AAa?$AA?$AA@ 000000018004c248     libucrt:get_qualified_locale.obj
 0002:0000d260       ??_C@_1BC@JAOIIFKD@?$AAp?$AAr?$AA?9?$AAc?$AAh?$AAi?$AAn?$AAa?$AA?$AA@ 000000018004c260     libucrt:get_qualified_locale.obj
 0002:0000d278       ??_C@_1BI@BEHPPHKC@?$AAp?$AAu?$AAe?$AAr?$AAt?$AAo?$AA?9?$AAr?$AAi?$AAc?$AAo?$AA?$AA@ 000000018004c278     libucrt:get_qualified_locale.obj
 0002:0000d290       ??_C@_1O@PAEOFKDI@?$AAs?$AAl?$AAo?$AAv?$AAa?$AAk?$AA?$AA@ 000000018004c290     libucrt:get_qualified_locale.obj
 0002:0000d2a0       ??_C@_1BK@FIHMCKAM@?$AAs?$AAo?$AAu?$AAt?$AAh?$AA?5?$AAa?$AAf?$AAr?$AAi?$AAc?$AAa?$AA?$AA@ 000000018004c2a0     libucrt:get_qualified_locale.obj
 0002:0000d2c0       ??_C@_1BI@NAEOODKB@?$AAs?$AAo?$AAu?$AAt?$AAh?$AA?5?$AAk?$AAo?$AAr?$AAe?$AAa?$AA?$AA@ 000000018004c2c0     libucrt:get_qualified_locale.obj
 0002:0000d2d8       ??_C@_1BK@FBDGGIFF@?$AAs?$AAo?$AAu?$AAt?$AAh?$AA?9?$AAa?$AAf?$AAr?$AAi?$AAc?$AAa?$AA?$AA@ 000000018004c2d8     libucrt:get_qualified_locale.obj
 0002:0000d2f8       ??_C@_1BI@GHLEJDPK@?$AAs?$AAo?$AAu?$AAt?$AAh?$AA?9?$AAk?$AAo?$AAr?$AAe?$AAa?$AA?$AA@ 000000018004c2f8     libucrt:get_qualified_locale.obj
 0002:0000d310       ??_C@_1CE@PLHLOMJF@?$AAt?$AAr?$AAi?$AAn?$AAi?$AAd?$AAa?$AAd?$AA?5?$AA?$CG?$AA?5?$AAt?$AAo?$AAb?$AAa?$AAg?$AAo?$AA?$AA@ 000000018004c310     libucrt:get_qualified_locale.obj
 0002:0000d338       ??_C@_1BO@MODIMHHI@?$AAu?$AAn?$AAi?$AAt?$AAe?$AAd?$AA?9?$AAk?$AAi?$AAn?$AAg?$AAd?$AAo?$AAm?$AA?$AA@ 000000018004c338     libucrt:get_qualified_locale.obj
 0002:0000d358       ??_C@_1BM@FFHJONBJ@?$AAu?$AAn?$AAi?$AAt?$AAe?$AAd?$AA?9?$AAs?$AAt?$AAa?$AAt?$AAe?$AAs?$AA?$AA@ 000000018004c358     libucrt:get_qualified_locale.obj
 0002:0000d378       ??_C@_17DNCLJFIF@?$AAA?$AAC?$AAP?$AA?$AA@ 000000018004c378     libucrt:get_qualified_locale.obj
 0002:0000d380       ??_C@_17CIKBIHLH@?$AAO?$AAC?$AAP?$AA?$AA@ 000000018004c380     libucrt:get_qualified_locale.obj
 0002:0000d388       __rglangidNotDefault       000000018004c388     libucrt:getqloc_downlevel.obj
 0002:0000e1f0       ??_C@_15EMKDOKLE@?$AAa?$AAr?$AA?$AA@ 000000018004d1f0     libucrt:lcidtoname_downlevel.obj
 0002:0000e1f8       ??_C@_15KNPADPLH@?$AAb?$AAg?$AA?$AA@ 000000018004d1f8     libucrt:lcidtoname_downlevel.obj
 0002:0000e200       ??_C@_15EDMHLDMO@?$AAc?$AAa?$AA?$AA@ 000000018004d200     libucrt:lcidtoname_downlevel.obj
 0002:0000e208       ??_C@_1O@BPEAJADD@?$AAz?$AAh?$AA?9?$AAC?$AAH?$AAS?$AA?$AA@ 000000018004d208     libucrt:lcidtoname_downlevel.obj
 0002:0000e218       ??_C@_15LJNHCMNK@?$AAc?$AAs?$AA?$AA@ 000000018004d218     libucrt:lcidtoname_downlevel.obj
 0002:0000e220       ??_C@_15FOMCIDHG@?$AAd?$AAa?$AA?$AA@ 000000018004d220     libucrt:lcidtoname_downlevel.obj
 0002:0000e228       ??_C@_15NBKABECB@?$AAd?$AAe?$AA?$AA@ 000000018004d228     libucrt:lcidtoname_downlevel.obj
 0002:0000e230       ??_C@_15GHPEIIAO@?$AAe?$AAl?$AA?$AA@ 000000018004d230     libucrt:lcidtoname_downlevel.obj
 0002:0000e238       ??_C@_15MNPNEAIF@?$AAe?$AAn?$AA?$AA@ 000000018004d238     libucrt:lcidtoname_downlevel.obj
 0002:0000e240       ??_C@_15GPIOMPMH@?$AAe?$AAs?$AA?$AA@ 000000018004d240     libucrt:lcidtoname_downlevel.obj
 0002:0000e248       ??_C@_15NGLOAKJC@?$AAf?$AAi?$AA?$AA@ 000000018004d248     libucrt:lcidtoname_downlevel.obj
 0002:0000e250       ??_C@_15FBKGNKAM@?$AAf?$AAr?$AA?$AA@ 000000018004d250     libucrt:lcidtoname_downlevel.obj
 0002:0000e258       ??_C@_15KGGCNEFK@?$AAh?$AAe?$AA?$AA@ 000000018004d258     libucrt:lcidtoname_downlevel.obj
 0002:0000e260       ??_C@_15PGHLIDMF@?$AAh?$AAu?$AA?$AA@ 000000018004d260     libucrt:lcidtoname_downlevel.obj
 0002:0000e268       ??_C@_15BIEMAPLM@?$AAi?$AAs?$AA?$AA@ 000000018004d268     libucrt:lcidtoname_downlevel.obj
 0002:0000e270       ??_C@_15IFJLDHAF@?$AAi?$AAt?$AA?$AA@ 000000018004d270     libucrt:lcidtoname_downlevel.obj
 0002:0000e278       ??_C@_15GEMIOCAG@?$AAj?$AAa?$AA?$AA@ 000000018004d278     libucrt:lcidtoname_downlevel.obj
 0002:0000e280       ??_C@_15EPELEGJA@?$AAk?$AAo?$AA?$AA@ 000000018004d280     libucrt:lcidtoname_downlevel.obj
 0002:0000e288       ??_C@_15NDDHIMN@?$AAn?$AAl?$AA?$AA@ 000000018004d288     libucrt:lcidtoname_downlevel.obj
 0002:0000e290       ??_C@_15BPIGNHCD@?$AAn?$AAo?$AA?$AA@ 000000018004d290     libucrt:lcidtoname_downlevel.obj
 0002:0000e298       ??_C@_15DEOPBLCG@?$AAp?$AAl?$AA?$AA@ 000000018004d298     libucrt:lcidtoname_downlevel.obj
 0002:0000e2a0       ??_C@_15KBECGEFG@?$AAp?$AAt?$AA?$AA@ 000000018004d2a0     libucrt:lcidtoname_downlevel.obj
 0002:0000e2a8       ??_C@_15GLJCBFMD@?$AAr?$AAo?$AA?$AA@ 000000018004d2a8     libucrt:lcidtoname_downlevel.obj
 0002:0000e2b0       ??_C@_15FEDGKCDI@?$AAr?$AAu?$AA?$AA@ 000000018004d2b0     libucrt:lcidtoname_downlevel.obj
 0002:0000e2b8       ??_C@_15GLKMLLHM@?$AAh?$AAr?$AA?$AA@ 000000018004d2b8     libucrt:lcidtoname_downlevel.obj
 0002:0000e2c0       ??_C@_15CPKMFBDB@?$AAs?$AAk?$AA?$AA@ 000000018004d2c0     libucrt:lcidtoname_downlevel.obj
 0002:0000e2c8       ??_C@_15BAAIOGMK@?$AAs?$AAq?$AA?$AA@ 000000018004d2c8     libucrt:lcidtoname_downlevel.obj
 0002:0000e2d0       ??_C@_15INNPNOHD@?$AAs?$AAv?$AA?$AA@ 000000018004d2d0     libucrt:lcidtoname_downlevel.obj
 0002:0000e2d8       ??_C@_15CABMMOGH@?$AAt?$AAh?$AA?$AA@ 000000018004d2d8     libucrt:lcidtoname_downlevel.obj
 0002:0000e2e0       ??_C@_15BPLIHJJM@?$AAt?$AAr?$AA?$AA@ 000000018004d2e0     libucrt:lcidtoname_downlevel.obj
 0002:0000e2e8       ??_C@_15NEOEKKDJ@?$AAu?$AAr?$AA?$AA@ 000000018004d2e8     libucrt:lcidtoname_downlevel.obj
 0002:0000e2f0       ??_C@_15NFICGAJK@?$AAi?$AAd?$AA?$AA@ 000000018004d2f0     libucrt:lcidtoname_downlevel.obj
 0002:0000e2f8       ??_C@_15HPJPHDM@?$AAb?$AAe?$AA?$AA@ 000000018004d2f8     libucrt:lcidtoname_downlevel.obj
 0002:0000e300       ??_C@_15LCHLGJII@?$AAs?$AAl?$AA?$AA@ 000000018004d300     libucrt:lcidtoname_downlevel.obj
 0002:0000e308       ??_C@_15PCFJPHHO@?$AAe?$AAt?$AA?$AA@ 000000018004d308     libucrt:lcidtoname_downlevel.obj
 0002:0000e310       ??_C@_15HPFPGODN@?$AAl?$AAv?$AA?$AA@ 000000018004d310     libucrt:lcidtoname_downlevel.obj
 0002:0000e318       ??_C@_15NFFGKGLG@?$AAl?$AAt?$AA?$AA@ 000000018004d318     libucrt:lcidtoname_downlevel.obj
 0002:0000e320       ??_C@_15BDAKCCHN@?$AAf?$AAa?$AA?$AA@ 000000018004d320     libucrt:lcidtoname_downlevel.obj
 0002:0000e328       ??_C@_15NFGIAIAJ@?$AAv?$AAi?$AA?$AA@ 000000018004d328     libucrt:lcidtoname_downlevel.obj
 0002:0000e330       ??_C@_15LMKNDMHN@?$AAh?$AAy?$AA?$AA@ 000000018004d330     libucrt:lcidtoname_downlevel.obj
 0002:0000e338       ??_C@_15IJBHMCFL@?$AAa?$AAz?$AA?$AA@ 000000018004d338     libucrt:lcidtoname_downlevel.obj
 0002:0000e340       ??_C@_15EKOFJABL@?$AAe?$AAu?$AA?$AA@ 000000018004d340     libucrt:lcidtoname_downlevel.obj
 0002:0000e348       ??_C@_15BGHADCNK@?$AAm?$AAk?$AA?$AA@ 000000018004d348     libucrt:lcidtoname_downlevel.obj
 0002:0000e350       ??_C@_15JDNICKHM@?$AAa?$AAf?$AA?$AA@ 000000018004d350     libucrt:lcidtoname_downlevel.obj
 0002:0000e358       ??_C@_15KPJEDBKD@?$AAk?$AAa?$AA?$AA@ 000000018004d358     libucrt:lcidtoname_downlevel.obj
 0002:0000e360       ??_C@_15PDNFFFEO@?$AAf?$AAo?$AA?$AA@ 000000018004d360     libucrt:lcidtoname_downlevel.obj
 0002:0000e368       ??_C@_15OMLEGLOC@?$AAh?$AAi?$AA?$AA@ 000000018004d368     libucrt:lcidtoname_downlevel.obj
 0002:0000e370       ??_C@_15IDNNENKK@?$AAm?$AAs?$AA?$AA@ 000000018004d370     libucrt:lcidtoname_downlevel.obj
 0002:0000e378       ??_C@_15MACJNBMH@?$AAk?$AAk?$AA?$AA@ 000000018004d378     libucrt:lcidtoname_downlevel.obj
 0002:0000e380       ??_C@_15DKDJEOND@?$AAk?$AAy?$AA?$AA@ 000000018004d380     libucrt:lcidtoname_downlevel.obj
 0002:0000e388       ??_C@_15DFGDLJBG@?$AAs?$AAw?$AA?$AA@ 000000018004d388     libucrt:lcidtoname_downlevel.obj
 0002:0000e390       ??_C@_15BBFAICNG@?$AAu?$AAz?$AA?$AA@ 000000018004d390     libucrt:lcidtoname_downlevel.obj
 0002:0000e398       ??_C@_15DKNDCGEA@?$AAt?$AAt?$AA?$AA@ 000000018004d398     libucrt:lcidtoname_downlevel.obj
 0002:0000e3a0       ??_C@_15MGIFMDPL@?$AAp?$AAa?$AA?$AA@ 000000018004d3a0     libucrt:lcidtoname_downlevel.obj
 0002:0000e3a8       ??_C@_15HCNDBBA@?$AAg?$AAu?$AA?$AA@ 000000018004d3a8     libucrt:lcidtoname_downlevel.obj
 0002:0000e3b0       ??_C@_15FNBEIBON@?$AAt?$AAa?$AA?$AA@ 000000018004d3b0     libucrt:lcidtoname_downlevel.obj
 0002:0000e3b8       ??_C@_15NCHGBGLK@?$AAt?$AAe?$AA?$AA@ 000000018004d3b8     libucrt:lcidtoname_downlevel.obj
 0002:0000e3c0       ??_C@_15PHPHCBPF@?$AAk?$AAn?$AA?$AA@ 000000018004d3c0     libucrt:lcidtoname_downlevel.obj
 0002:0000e3c8       ??_C@_15DLGBCKMP@?$AAm?$AAr?$AA?$AA@ 000000018004d3c8     libucrt:lcidtoname_downlevel.obj
 0002:0000e3d0       ??_C@_15EABBLBFF@?$AAs?$AAa?$AA?$AA@ 000000018004d3d0     libucrt:lcidtoname_downlevel.obj
 0002:0000e3d8       ??_C@_15CBKOMCOI@?$AAm?$AAn?$AA?$AA@ 000000018004d3d8     libucrt:lcidtoname_downlevel.obj
 0002:0000e3e0       ??_C@_15CKDMCJAF@?$AAg?$AAl?$AA?$AA@ 000000018004d3e0     libucrt:lcidtoname_downlevel.obj
 0002:0000e3e8       ??_C@_17CNJFBPG@?$AAk?$AAo?$AAk?$AA?$AA@ 000000018004d3e8     libucrt:lcidtoname_downlevel.obj
 0002:0000e3f0       ??_C@_17FFBJICPL@?$AAs?$AAy?$AAr?$AA?$AA@ 000000018004d3f0     libucrt:lcidtoname_downlevel.obj
 0002:0000e3f8       ??_C@_17KPNDCPAF@?$AAd?$AAi?$AAv?$AA?$AA@ 000000018004d3f8     libucrt:lcidtoname_downlevel.obj
 0002:0000e400       ??_C@_11LOCGONAA@?$AA?$AA@ 000000018004d400     libucrt:lcidtoname_downlevel.obj
 0002:0000e408       ??_C@_1M@OKAHONE@?$AAa?$AAr?$AA?9?$AAS?$AAA?$AA?$AA@ 000000018004d408     libucrt:lcidtoname_downlevel.obj
 0002:0000e418       ??_C@_1M@FFFIGIGK@?$AAb?$AAg?$AA?9?$AAB?$AAG?$AA?$AA@ 000000018004d418     libucrt:lcidtoname_downlevel.obj
 0002:0000e428       ??_C@_1M@BJNKEDC@?$AAc?$AAa?$AA?9?$AAE?$AAS?$AA?$AA@ 000000018004d428     libucrt:lcidtoname_downlevel.obj
 0002:0000e438       ??_C@_1M@IJJHFJHA@?$AAc?$AAs?$AA?9?$AAC?$AAZ?$AA?$AA@ 000000018004d438     libucrt:lcidtoname_downlevel.obj
 0002:0000e448       ??_C@_1M@CLPEOBGI@?$AAd?$AAa?$AA?9?$AAD?$AAK?$AA?$AA@ 000000018004d448     libucrt:lcidtoname_downlevel.obj
 0002:0000e458       ??_C@_1M@MCMADGCB@?$AAd?$AAe?$AA?9?$AAD?$AAE?$AA?$AA@ 000000018004d458     libucrt:lcidtoname_downlevel.obj
 0002:0000e468       ??_C@_1M@OOCKEMAM@?$AAe?$AAl?$AA?9?$AAG?$AAR?$AA?$AA@ 000000018004d468     libucrt:lcidtoname_downlevel.obj
 0002:0000e478       ??_C@_1M@DDNJFGID@?$AAf?$AAi?$AA?9?$AAF?$AAI?$AA?$AA@ 000000018004d478     libucrt:lcidtoname_downlevel.obj
 0002:0000e488       ??_C@_1M@GLIPPMAC@?$AAf?$AAr?$AA?9?$AAF?$AAR?$AA?$AA@ 000000018004d488     libucrt:lcidtoname_downlevel.obj
 0002:0000e498       ??_C@_1M@GFMCHPE@?$AAh?$AAe?$AA?9?$AAI?$AAL?$AA?$AA@ 000000018004d498     libucrt:lcidtoname_downlevel.obj
 0002:0000e4a8       ??_C@_1M@MHLPGNKM@?$AAh?$AAu?$AA?9?$AAH?$AAU?$AA?$AA@ 000000018004d4a8     libucrt:lcidtoname_downlevel.obj
 0002:0000e4b8       ??_C@_1M@LPDDNNPN@?$AAi?$AAs?$AA?9?$AAI?$AAS?$AA?$AA@ 000000018004d4b8     libucrt:lcidtoname_downlevel.obj
 0002:0000e4c8       ??_C@_1M@MADIPODN@?$AAi?$AAt?$AA?9?$AAI?$AAT?$AA?$AA@ 000000018004d4c8     libucrt:lcidtoname_downlevel.obj
 0002:0000e4d8       ??_C@_1M@IHBJJGG@?$AAn?$AAl?$AA?9?$AAN?$AAL?$AA?$AA@ 000000018004d4d8     libucrt:lcidtoname_downlevel.obj
 0002:0000e4e8       ??_C@_1M@EANAGDL@?$AAn?$AAb?$AA?9?$AAN?$AAO?$AA?$AA@ 000000018004d4e8     libucrt:lcidtoname_downlevel.obj
 0002:0000e4f8       ??_C@_1M@NEIEMEGP@?$AAp?$AAl?$AA?9?$AAP?$AAL?$AA?$AA@ 000000018004d4f8     libucrt:lcidtoname_downlevel.obj
 0002:0000e508       ??_C@_1M@BOCFIGEP@?$AAp?$AAt?$AA?9?$AAB?$AAR?$AA?$AA@ 000000018004d508     libucrt:lcidtoname_downlevel.obj
 0002:0000e518       ??_C@_1M@IMPFOPBG@?$AAr?$AAo?$AA?9?$AAR?$AAO?$AA?$AA@ 000000018004d518     libucrt:lcidtoname_downlevel.obj
 0002:0000e528       ??_C@_1M@IDNNEJMM@?$AAr?$AAu?$AA?9?$AAR?$AAU?$AA?$AA@ 000000018004d528     libucrt:lcidtoname_downlevel.obj
 0002:0000e538       ??_C@_1M@LILEEOGM@?$AAh?$AAr?$AA?9?$AAH?$AAR?$AA?$AA@ 000000018004d538     libucrt:lcidtoname_downlevel.obj
 0002:0000e548       ??_C@_1M@FKIFEHPB@?$AAs?$AAk?$AA?9?$AAS?$AAK?$AA?$AA@ 000000018004d548     libucrt:lcidtoname_downlevel.obj
 0002:0000e558       ??_C@_1M@LJMAMNPJ@?$AAs?$AAq?$AA?9?$AAA?$AAL?$AA?$AA@ 000000018004d558     libucrt:lcidtoname_downlevel.obj
 0002:0000e568       ??_C@_1M@GIAKDKJK@?$AAs?$AAv?$AA?9?$AAS?$AAE?$AA?$AA@ 000000018004d568     libucrt:lcidtoname_downlevel.obj
 0002:0000e578       ??_C@_1M@MKJKIKCL@?$AAt?$AAh?$AA?9?$AAT?$AAH?$AA?$AA@ 000000018004d578     libucrt:lcidtoname_downlevel.obj
 0002:0000e588       ??_C@_1M@MFLCCMPB@?$AAt?$AAr?$AA?9?$AAT?$AAR?$AA?$AA@ 000000018004d588     libucrt:lcidtoname_downlevel.obj
 0002:0000e598       ??_C@_1M@OIJHDKJN@?$AAu?$AAr?$AA?9?$AAP?$AAK?$AA?$AA@ 000000018004d598     libucrt:lcidtoname_downlevel.obj
 0002:0000e5a8       ??_C@_1M@LHIPCIEK@?$AAi?$AAd?$AA?9?$AAI?$AAD?$AA?$AA@ 000000018004d5a8     libucrt:lcidtoname_downlevel.obj
 0002:0000e5b8       ??_C@_1M@MFMOBGI@?$AAu?$AAk?$AA?9?$AAU?$AAA?$AA?$AA@ 000000018004d5b8     libucrt:lcidtoname_downlevel.obj
 0002:0000e5c8       ??_C@_1M@OBGLJIPL@?$AAb?$AAe?$AA?9?$AAB?$AAY?$AA?$AA@ 000000018004d5c8     libucrt:lcidtoname_downlevel.obj
 0002:0000e5d8       ??_C@_1M@BCFAJEAD@?$AAs?$AAl?$AA?9?$AAS?$AAI?$AA?$AA@ 000000018004d5d8     libucrt:lcidtoname_downlevel.obj
 0002:0000e5e8       ??_C@_1M@FKFFEDDN@?$AAe?$AAt?$AA?9?$AAE?$AAE?$AA?$AA@ 000000018004d5e8     libucrt:lcidtoname_downlevel.obj
 0002:0000e5f8       ??_C@_1M@KGKKAACI@?$AAl?$AAv?$AA?9?$AAL?$AAV?$AA?$AA@ 000000018004d5f8     libucrt:lcidtoname_downlevel.obj
 0002:0000e608       ??_C@_1M@IFGBIJO@?$AAl?$AAt?$AA?9?$AAL?$AAT?$AA?$AA@ 000000018004d608     libucrt:lcidtoname_downlevel.obj
 0002:0000e618       ??_C@_1M@FGEAHEDM@?$AAf?$AAa?$AA?9?$AAI?$AAR?$AA?$AA@ 000000018004d618     libucrt:lcidtoname_downlevel.obj
 0002:0000e628       ??_C@_1M@KBMAIBFN@?$AAv?$AAi?$AA?9?$AAV?$AAN?$AA?$AA@ 000000018004d628     libucrt:lcidtoname_downlevel.obj
 0002:0000e638       ??_C@_1M@GPCBKDJK@?$AAh?$AAy?$AA?9?$AAA?$AAM?$AA?$AA@ 000000018004d638     libucrt:lcidtoname_downlevel.obj
 0002:0000e648       ??_C@_1BG@BECMDDJB@?$AAa?$AAz?$AA?9?$AAA?$AAZ?$AA?9?$AAL?$AAa?$AAt?$AAn?$AA?$AA@ 000000018004d648     libucrt:lcidtoname_downlevel.obj
 0002:0000e660       ??_C@_1M@MAOFCAEA@?$AAe?$AAu?$AA?9?$AAE?$AAS?$AA?$AA@ 000000018004d660     libucrt:lcidtoname_downlevel.obj
 0002:0000e670       ??_C@_1M@IGHABKPI@?$AAm?$AAk?$AA?9?$AAM?$AAK?$AA?$AA@ 000000018004d670     libucrt:lcidtoname_downlevel.obj
 0002:0000e680       ??_C@_1M@IAIGNEJG@?$AAt?$AAn?$AA?9?$AAZ?$AAA?$AA?$AA@ 000000018004d680     libucrt:lcidtoname_downlevel.obj
 0002:0000e690       ??_C@_1M@IIJCOJFA@?$AAx?$AAh?$AA?9?$AAZ?$AAA?$AA?$AA@ 000000018004d690     libucrt:lcidtoname_downlevel.obj
 0002:0000e6a0       ??_C@_1M@LGPJHNJH@?$AAz?$AAu?$AA?9?$AAZ?$AAA?$AA?$AA@ 000000018004d6a0     libucrt:lcidtoname_downlevel.obj
 0002:0000e6b0       ??_C@_1M@HOKAOIO@?$AAa?$AAf?$AA?9?$AAZ?$AAA?$AA?$AA@ 000000018004d6b0     libucrt:lcidtoname_downlevel.obj
 0002:0000e6c0       ??_C@_1M@DPCLHLIE@?$AAk?$AAa?$AA?9?$AAG?$AAE?$AA?$AA@ 000000018004d6c0     libucrt:lcidtoname_downlevel.obj
 0002:0000e6d0       ??_C@_1M@BLKMHJBI@?$AAf?$AAo?$AA?9?$AAF?$AAO?$AA?$AA@ 000000018004d6d0     libucrt:lcidtoname_downlevel.obj
 0002:0000e6e0       ??_C@_1M@LGGJAPPB@?$AAh?$AAi?$AA?9?$AAI?$AAN?$AA?$AA@ 000000018004d6e0     libucrt:lcidtoname_downlevel.obj
 0002:0000e6f0       ??_C@_1M@FIKPIHFE@?$AAm?$AAt?$AA?9?$AAM?$AAT?$AA?$AA@ 000000018004d6f0     libucrt:lcidtoname_downlevel.obj
 0002:0000e700       ??_C@_1M@HEGGPBFA@?$AAs?$AAe?$AA?9?$AAN?$AAO?$AA?$AA@ 000000018004d700     libucrt:lcidtoname_downlevel.obj
 0002:0000e710       ??_C@_1M@EIBJEEPA@?$AAm?$AAs?$AA?9?$AAM?$AAY?$AA?$AA@ 000000018004d710     libucrt:lcidtoname_downlevel.obj
 0002:0000e720       ??_C@_1M@FHLBGMPP@?$AAk?$AAk?$AA?9?$AAK?$AAZ?$AA?$AA@ 000000018004d720     libucrt:lcidtoname_downlevel.obj
 0002:0000e730       ??_C@_1M@NGJJLCGI@?$AAk?$AAy?$AA?9?$AAK?$AAG?$AA?$AA@ 000000018004d730     libucrt:lcidtoname_downlevel.obj
 0002:0000e740       ??_C@_1M@GIENNBFC@?$AAs?$AAw?$AA?9?$AAK?$AAE?$AA?$AA@ 000000018004d740     libucrt:lcidtoname_downlevel.obj
 0002:0000e750       ??_C@_1BG@NDGMJIMJ@?$AAu?$AAz?$AA?9?$AAU?$AAZ?$AA?9?$AAL?$AAa?$AAt?$AAn?$AA?$AA@ 000000018004d750     libucrt:lcidtoname_downlevel.obj
 0002:0000e768       ??_C@_1M@IDCCIHBC@?$AAt?$AAt?$AA?9?$AAR?$AAU?$AA?$AA@ 000000018004d768     libucrt:lcidtoname_downlevel.obj
 0002:0000e778       ??_C@_1M@LOICPMOJ@?$AAb?$AAn?$AA?9?$AAI?$AAN?$AA?$AA@ 000000018004d778     libucrt:lcidtoname_downlevel.obj
 0002:0000e788       ??_C@_1M@KPKKNEAH@?$AAp?$AAa?$AA?9?$AAI?$AAN?$AA?$AA@ 000000018004d788     libucrt:lcidtoname_downlevel.obj
 0002:0000e798       ??_C@_1M@PJGPPBOG@?$AAg?$AAu?$AA?9?$AAI?$AAN?$AA?$AA@ 000000018004d798     libucrt:lcidtoname_downlevel.obj
 0002:0000e7a8       ??_C@_1M@KMKMOPHI@?$AAt?$AAa?$AA?9?$AAI?$AAN?$AA?$AA@ 000000018004d7a8     libucrt:lcidtoname_downlevel.obj
 0002:0000e7b8       ??_C@_1M@KFEHEPAC@?$AAt?$AAe?$AA?9?$AAI?$AAN?$AA?$AA@ 000000018004d7b8     libucrt:lcidtoname_downlevel.obj
 0002:0000e7c8       ??_C@_1M@CDCLMGHI@?$AAk?$AAn?$AA?9?$AAI?$AAN?$AA?$AA@ 000000018004d7c8     libucrt:lcidtoname_downlevel.obj
 0002:0000e7d8       ??_C@_1M@MIODLDKF@?$AAm?$AAl?$AA?9?$AAI?$AAN?$AA?$AA@ 000000018004d7d8     libucrt:lcidtoname_downlevel.obj
 0002:0000e7e8       ??_C@_1M@PBIEACPO@?$AAm?$AAr?$AA?9?$AAI?$AAN?$AA?$AA@ 000000018004d7e8     libucrt:lcidtoname_downlevel.obj
 0002:0000e7f8       ??_C@_1M@NIDEAGPH@?$AAs?$AAa?$AA?9?$AAI?$AAN?$AA?$AA@ 000000018004d7f8     libucrt:lcidtoname_downlevel.obj
 0002:0000e808       ??_C@_1M@FHIHCBIO@?$AAm?$AAn?$AA?9?$AAM?$AAN?$AA?$AA@ 000000018004d808     libucrt:lcidtoname_downlevel.obj
 0002:0000e818       ??_C@_1M@JAIJPENP@?$AAc?$AAy?$AA?9?$AAG?$AAB?$AA?$AA@ 000000018004d818     libucrt:lcidtoname_downlevel.obj
 0002:0000e828       ??_C@_1M@PHGFBEPN@?$AAg?$AAl?$AA?9?$AAE?$AAS?$AA?$AA@ 000000018004d828     libucrt:lcidtoname_downlevel.obj
 0002:0000e838       ??_C@_1O@KPIPDNCP@?$AAk?$AAo?$AAk?$AA?9?$AAI?$AAN?$AA?$AA@ 000000018004d838     libucrt:lcidtoname_downlevel.obj
 0002:0000e848       ??_C@_1O@KNHJLDJA@?$AAs?$AAy?$AAr?$AA?9?$AAS?$AAY?$AA?$AA@ 000000018004d848     libucrt:lcidtoname_downlevel.obj
 0002:0000e858       ??_C@_1O@MKEKBLAH@?$AAd?$AAi?$AAv?$AA?9?$AAM?$AAV?$AA?$AA@ 000000018004d858     libucrt:lcidtoname_downlevel.obj
 0002:0000e868       ??_C@_1O@OHDCKDDF@?$AAq?$AAu?$AAz?$AA?9?$AAB?$AAO?$AA?$AA@ 000000018004d868     libucrt:lcidtoname_downlevel.obj
 0002:0000e878       ??_C@_1M@LEPJNLFD@?$AAn?$AAs?$AA?9?$AAZ?$AAA?$AA?$AA@ 000000018004d878     libucrt:lcidtoname_downlevel.obj
 0002:0000e888       ??_C@_1M@OMLEIIJB@?$AAm?$AAi?$AA?9?$AAN?$AAZ?$AA?$AA@ 000000018004d888     libucrt:lcidtoname_downlevel.obj
 0002:0000e898       ??_C@_1M@PMPEAILG@?$AAa?$AAr?$AA?9?$AAI?$AAQ?$AA?$AA@ 000000018004d898     libucrt:lcidtoname_downlevel.obj
 0002:0000e8a8       ??_C@_1M@CNKPNOEE@?$AAd?$AAe?$AA?9?$AAC?$AAH?$AA?$AA@ 000000018004d8a8     libucrt:lcidtoname_downlevel.obj
 0002:0000e8b8       ??_C@_1M@LKMGMLKO@?$AAe?$AAn?$AA?9?$AAG?$AAB?$AA?$AA@ 000000018004d8b8     libucrt:lcidtoname_downlevel.obj
 0002:0000e8c8       ??_C@_1M@PGKJFFGL@?$AAe?$AAs?$AA?9?$AAM?$AAX?$AA?$AA@ 000000018004d8c8     libucrt:lcidtoname_downlevel.obj
 0002:0000e8d8       ??_C@_1M@DNNANBDC@?$AAf?$AAr?$AA?9?$AAB?$AAE?$AA?$AA@ 000000018004d8d8     libucrt:lcidtoname_downlevel.obj
 0002:0000e8e8       ??_C@_1M@HLGMDFHM@?$AAi?$AAt?$AA?9?$AAC?$AAH?$AA?$AA@ 000000018004d8e8     libucrt:lcidtoname_downlevel.obj
 0002:0000e8f8       ??_C@_1M@CLLBGJH@?$AAn?$AAl?$AA?9?$AAB?$AAE?$AA?$AA@ 000000018004d8f8     libucrt:lcidtoname_downlevel.obj
 0002:0000e908       ??_C@_1M@BODBOGLF@?$AAn?$AAn?$AA?9?$AAN?$AAO?$AA?$AA@ 000000018004d908     libucrt:lcidtoname_downlevel.obj
 0002:0000e918       ??_C@_1M@HFFAHKAD@?$AAp?$AAt?$AA?9?$AAP?$AAT?$AA?$AA@ 000000018004d918     libucrt:lcidtoname_downlevel.obj
 0002:0000e928       ??_C@_1BG@LNOAKHIE@?$AAs?$AAr?$AA?9?$AAS?$AAP?$AA?9?$AAL?$AAa?$AAt?$AAn?$AA?$AA@ 000000018004d928     libucrt:lcidtoname_downlevel.obj
 0002:0000e940       ??_C@_1M@HBMHBGAK@?$AAs?$AAv?$AA?9?$AAF?$AAI?$AA?$AA@ 000000018004d940     libucrt:lcidtoname_downlevel.obj
 0002:0000e950       ??_C@_1BG@DGCJGJBE@?$AAa?$AAz?$AA?9?$AAA?$AAZ?$AA?9?$AAC?$AAy?$AAr?$AAl?$AA?$AA@ 000000018004d950     libucrt:lcidtoname_downlevel.obj
 0002:0000e968       ??_C@_1M@KEJDAAHB@?$AAs?$AAe?$AA?9?$AAS?$AAE?$AA?$AA@ 000000018004d968     libucrt:lcidtoname_downlevel.obj
 0002:0000e978       ??_C@_1M@HEIBJJAD@?$AAm?$AAs?$AA?9?$AAB?$AAN?$AA?$AA@ 000000018004d978     libucrt:lcidtoname_downlevel.obj
 0002:0000e988       ??_C@_1BG@PBGJMCEM@?$AAu?$AAz?$AA?9?$AAU?$AAZ?$AA?9?$AAC?$AAy?$AAr?$AAl?$AA?$AA@ 000000018004d988     libucrt:lcidtoname_downlevel.obj
 0002:0000e9a0       ??_C@_1O@LAOBCMDF@?$AAq?$AAu?$AAz?$AA?9?$AAE?$AAC?$AA?$AA@ 000000018004d9a0     libucrt:lcidtoname_downlevel.obj
 0002:0000e9b0       ??_C@_1M@POEEMAIO@?$AAa?$AAr?$AA?9?$AAE?$AAG?$AA?$AA@ 000000018004d9b0     libucrt:lcidtoname_downlevel.obj
 0002:0000e9c0       ??_C@_1M@EFAKDEDL@?$AAz?$AAh?$AA?9?$AAH?$AAK?$AA?$AA@ 000000018004d9c0     libucrt:lcidtoname_downlevel.obj
 0002:0000e9d0       ??_C@_1M@HKKIJHGI@?$AAd?$AAe?$AA?9?$AAA?$AAT?$AA?$AA@ 000000018004d9d0     libucrt:lcidtoname_downlevel.obj
 0002:0000e9e0       ??_C@_1M@KBFBEHJF@?$AAe?$AAn?$AA?9?$AAA?$AAU?$AA?$AA@ 000000018004d9e0     libucrt:lcidtoname_downlevel.obj
 0002:0000e9f0       ??_C@_1M@MNPLFAAH@?$AAe?$AAs?$AA?9?$AAE?$AAS?$AA?$AA@ 000000018004d9f0     libucrt:lcidtoname_downlevel.obj
 0002:0000ea00       ??_C@_1M@HJOOJFMA@?$AAf?$AAr?$AA?9?$AAC?$AAA?$AA?$AA@ 000000018004da00     libucrt:lcidtoname_downlevel.obj
 0002:0000ea10       ??_C@_1BG@JPOFPNAB@?$AAs?$AAr?$AA?9?$AAS?$AAP?$AA?9?$AAC?$AAy?$AAr?$AAl?$AA?$AA@ 000000018004da10     libucrt:lcidtoname_downlevel.obj
 0002:0000ea28       ??_C@_1M@LNFOCMOB@?$AAs?$AAe?$AA?9?$AAF?$AAI?$AA?$AA@ 000000018004da28     libucrt:lcidtoname_downlevel.obj
 0002:0000ea38       ??_C@_1O@MGJBOAMB@?$AAq?$AAu?$AAz?$AA?9?$AAP?$AAE?$AA?$AA@ 000000018004da38     libucrt:lcidtoname_downlevel.obj
 0002:0000ea48       ??_C@_1M@GJINLBOK@?$AAa?$AAr?$AA?9?$AAL?$AAY?$AA?$AA@ 000000018004da48     libucrt:lcidtoname_downlevel.obj
 0002:0000ea58       ??_C@_1M@GGMNHJNL@?$AAz?$AAh?$AA?9?$AAS?$AAG?$AA?$AA@ 000000018004da58     libucrt:lcidtoname_downlevel.obj
 0002:0000ea68       ??_C@_1M@HOIKODND@?$AAd?$AAe?$AA?9?$AAL?$AAU?$AA?$AA@ 000000018004da68     libucrt:lcidtoname_downlevel.obj
 0002:0000ea78       ??_C@_1M@DDOCCGFG@?$AAe?$AAn?$AA?9?$AAC?$AAA?$AA?$AA@ 000000018004da78     libucrt:lcidtoname_downlevel.obj
 0002:0000ea88       ??_C@_1M@BNOEMJLF@?$AAe?$AAs?$AA?9?$AAG?$AAT?$AA?$AA@ 000000018004da88     libucrt:lcidtoname_downlevel.obj
 0002:0000ea98       ??_C@_1M@EOGNKEK@?$AAf?$AAr?$AA?9?$AAC?$AAH?$AA?$AA@ 000000018004da98     libucrt:lcidtoname_downlevel.obj
 0002:0000eaa8       ??_C@_1M@FLIDJFHL@?$AAh?$AAr?$AA?9?$AAB?$AAA?$AA?$AA@ 000000018004daa8     libucrt:lcidtoname_downlevel.obj
 0002:0000eab8       ??_C@_1O@FMCELNAJ@?$AAs?$AAm?$AAj?$AA?9?$AAN?$AAO?$AA?$AA@ 000000018004dab8     libucrt:lcidtoname_downlevel.obj
 0002:0000eac8       ??_C@_1M@JHGLJMGJ@?$AAa?$AAr?$AA?9?$AAD?$AAZ?$AA?$AA@ 000000018004dac8     libucrt:lcidtoname_downlevel.obj
 0002:0000ead8       ??_C@_1M@JKKFDCNP@?$AAz?$AAh?$AA?9?$AAM?$AAO?$AA?$AA@ 000000018004dad8     libucrt:lcidtoname_downlevel.obj
 0002:0000eae8       ??_C@_1M@GEEFALPE@?$AAd?$AAe?$AA?9?$AAL?$AAI?$AA?$AA@ 000000018004dae8     libucrt:lcidtoname_downlevel.obj
 0002:0000eaf8       ??_C@_1M@IGEOFBG@?$AAe?$AAn?$AA?9?$AAN?$AAZ?$AA?$AA@ 000000018004daf8     libucrt:lcidtoname_downlevel.obj
 0002:0000eb08       ??_C@_1M@KDBONEHP@?$AAe?$AAs?$AA?9?$AAC?$AAR?$AA?$AA@ 000000018004db08     libucrt:lcidtoname_downlevel.obj
 0002:0000eb18       ??_C@_1M@FHMDOHNN@?$AAf?$AAr?$AA?9?$AAL?$AAU?$AA?$AA@ 000000018004db18     libucrt:lcidtoname_downlevel.obj
 0002:0000eb28       ??_C@_1BG@NFKKMAFG@?$AAb?$AAs?$AA?9?$AAB?$AAA?$AA?9?$AAL?$AAa?$AAt?$AAn?$AA?$AA@ 000000018004db28     libucrt:lcidtoname_downlevel.obj
 0002:0000eb40       ??_C@_1O@IMNBEMCI@?$AAs?$AAm?$AAj?$AA?9?$AAS?$AAE?$AA?$AA@ 000000018004db40     libucrt:lcidtoname_downlevel.obj
 0002:0000eb50       ??_C@_1M@DHHMBNDP@?$AAa?$AAr?$AA?9?$AAM?$AAA?$AA?$AA@ 000000018004db50     libucrt:lcidtoname_downlevel.obj
 0002:0000eb60       ??_C@_1M@BNBLJCGH@?$AAe?$AAn?$AA?9?$AAI?$AAE?$AA?$AA@ 000000018004db60     libucrt:lcidtoname_downlevel.obj
 0002:0000eb70       ??_C@_1M@GEPAFMDL@?$AAe?$AAs?$AA?9?$AAP?$AAA?$AA?$AA@ 000000018004db70     libucrt:lcidtoname_downlevel.obj
 0002:0000eb80       ??_C@_1M@OJONDMDL@?$AAf?$AAr?$AA?9?$AAM?$AAC?$AA?$AA@ 000000018004db80     libucrt:lcidtoname_downlevel.obj
 0002:0000eb90       ??_C@_1BG@OBCNFJB@?$AAs?$AAr?$AA?9?$AAB?$AAA?$AA?9?$AAL?$AAa?$AAt?$AAn?$AA?$AA@ 000000018004db90     libucrt:lcidtoname_downlevel.obj
 0002:0000eba8       ??_C@_1O@KEMEEGPO@?$AAs?$AAm?$AAa?$AA?9?$AAN?$AAO?$AA?$AA@ 000000018004dba8     libucrt:lcidtoname_downlevel.obj
 0002:0000ebb8       ??_C@_1M@ELMGFODK@?$AAa?$AAr?$AA?9?$AAT?$AAN?$AA?$AA@ 000000018004dbb8     libucrt:lcidtoname_downlevel.obj
 0002:0000ebc8       ??_C@_1M@BHDLHFAF@?$AAe?$AAn?$AA?9?$AAZ?$AAA?$AA?$AA@ 000000018004dbc8     libucrt:lcidtoname_downlevel.obj
 0002:0000ebd8       ??_C@_1M@BMGIGLIF@?$AAe?$AAs?$AA?9?$AAD?$AAO?$AA?$AA@ 000000018004dbd8     libucrt:lcidtoname_downlevel.obj
 0002:0000ebe8       ??_C@_1BG@CMBHIPBE@?$AAs?$AAr?$AA?9?$AAB?$AAA?$AA?9?$AAC?$AAy?$AAr?$AAl?$AA?$AA@ 000000018004dbe8     libucrt:lcidtoname_downlevel.obj
 0002:0000ec00       ??_C@_1O@HEDBLHNP@?$AAs?$AAm?$AAa?$AA?9?$AAS?$AAE?$AA?$AA@ 000000018004dc00     libucrt:lcidtoname_downlevel.obj
 0002:0000ec10       ??_C@_1M@DAGCADIM@?$AAa?$AAr?$AA?9?$AAO?$AAM?$AA?$AA@ 000000018004dc10     libucrt:lcidtoname_downlevel.obj
 0002:0000ec20       ??_C@_1M@FODLMICG@?$AAe?$AAn?$AA?9?$AAJ?$AAM?$AA?$AA@ 000000018004dc20     libucrt:lcidtoname_downlevel.obj
 0002:0000ec30       ??_C@_1M@DNMLCIHB@?$AAe?$AAs?$AA?9?$AAV?$AAE?$AA?$AA@ 000000018004dc30     libucrt:lcidtoname_downlevel.obj
 0002:0000ec40       ??_C@_1O@EOKHMKJK@?$AAs?$AAm?$AAs?$AA?9?$AAF?$AAI?$AA?$AA@ 000000018004dc40     libucrt:lcidtoname_downlevel.obj
 0002:0000ec50       ??_C@_1M@CAFJMKOF@?$AAa?$AAr?$AA?9?$AAY?$AAE?$AA?$AA@ 000000018004dc50     libucrt:lcidtoname_downlevel.obj
 0002:0000ec60       ??_C@_1M@CBFHIJLI@?$AAe?$AAn?$AA?9?$AAC?$AAB?$AA?$AA@ 000000018004dc60     libucrt:lcidtoname_downlevel.obj
 0002:0000ec70       ??_C@_1M@BGNFLDN@?$AAe?$AAs?$AA?9?$AAC?$AAO?$AA?$AA@ 000000018004dc70     libucrt:lcidtoname_downlevel.obj
 0002:0000ec80       ??_C@_1O@JMPHMAMC@?$AAs?$AAm?$AAn?$AA?9?$AAF?$AAI?$AA?$AA@ 000000018004dc80     libucrt:lcidtoname_downlevel.obj
 0002:0000ec90       ??_C@_1M@JLANABKE@?$AAa?$AAr?$AA?9?$AAS?$AAY?$AA?$AA@ 000000018004dc90     libucrt:lcidtoname_downlevel.obj
 0002:0000eca0       ??_C@_1M@HPKGCFGN@?$AAe?$AAn?$AA?9?$AAB?$AAZ?$AA?$AA@ 000000018004dca0     libucrt:lcidtoname_downlevel.obj
 0002:0000ecb0       ??_C@_1M@OLJCMLGM@?$AAe?$AAs?$AA?9?$AAP?$AAE?$AA?$AA@ 000000018004dcb0     libucrt:lcidtoname_downlevel.obj
 0002:0000ecc0       ??_C@_1M@MKKGFKLE@?$AAa?$AAr?$AA?9?$AAJ?$AAO?$AA?$AA@ 000000018004dcc0     libucrt:lcidtoname_downlevel.obj
 0002:0000ecd0       ??_C@_1M@EKPGLDNI@?$AAe?$AAn?$AA?9?$AAT?$AAT?$AA?$AA@ 000000018004dcd0     libucrt:lcidtoname_downlevel.obj
 0002:0000ece0       ??_C@_1M@OONGHFHE@?$AAe?$AAs?$AA?9?$AAA?$AAR?$AA?$AA@ 000000018004dce0     libucrt:lcidtoname_downlevel.obj
 0002:0000ecf0       ??_C@_1M@OOJFGBHE@?$AAa?$AAr?$AA?9?$AAL?$AAB?$AA?$AA@ 000000018004dcf0     libucrt:lcidtoname_downlevel.obj
 0002:0000ed00       ??_C@_1M@GCEJHNEG@?$AAe?$AAn?$AA?9?$AAZ?$AAW?$AA?$AA@ 000000018004dd00     libucrt:lcidtoname_downlevel.obj
 0002:0000ed10       ??_C@_1M@JNOCAHJI@?$AAe?$AAs?$AA?9?$AAE?$AAC?$AA?$AA@ 000000018004dd10     libucrt:lcidtoname_downlevel.obj
 0002:0000ed20       ??_C@_1M@JEFHPGGB@?$AAa?$AAr?$AA?9?$AAK?$AAW?$AA?$AA@ 000000018004dd20     libucrt:lcidtoname_downlevel.obj
 0002:0000ed30       ??_C@_1M@MLKIBJOJ@?$AAe?$AAn?$AA?9?$AAP?$AAH?$AA?$AA@ 000000018004dd30     libucrt:lcidtoname_downlevel.obj
 0002:0000ed40       ??_C@_1M@BDNIPEND@?$AAe?$AAs?$AA?9?$AAC?$AAL?$AA?$AA@ 000000018004dd40     libucrt:lcidtoname_downlevel.obj
 0002:0000ed50       ??_C@_1M@MPNMEKBD@?$AAa?$AAr?$AA?9?$AAA?$AAE?$AA?$AA@ 000000018004dd50     libucrt:lcidtoname_downlevel.obj
 0002:0000ed60       ??_C@_1M@KBJALCPI@?$AAe?$AAs?$AA?9?$AAU?$AAY?$AA?$AA@ 000000018004dd60     libucrt:lcidtoname_downlevel.obj
 0002:0000ed70       ??_C@_1M@LLCCOAGA@?$AAa?$AAr?$AA?9?$AAB?$AAH?$AA?$AA@ 000000018004dd70     libucrt:lcidtoname_downlevel.obj
 0002:0000ed80       ??_C@_1M@PBFNCDEL@?$AAe?$AAs?$AA?9?$AAP?$AAY?$AA?$AA@ 000000018004dd80     libucrt:lcidtoname_downlevel.obj
 0002:0000ed90       ??_C@_1M@EDGINPNP@?$AAa?$AAr?$AA?9?$AAQ?$AAA?$AA?$AA@ 000000018004dd90     libucrt:lcidtoname_downlevel.obj
 0002:0000eda0       ??_C@_1M@MKDBIIJI@?$AAe?$AAs?$AA?9?$AAB?$AAO?$AA?$AA@ 000000018004dda0     libucrt:lcidtoname_downlevel.obj
 0002:0000edb0       ??_C@_1M@CPKKEBLD@?$AAe?$AAs?$AA?9?$AAS?$AAV?$AA?$AA@ 000000018004ddb0     libucrt:lcidtoname_downlevel.obj
 0002:0000edc0       ??_C@_1M@NDBGMMJL@?$AAe?$AAs?$AA?9?$AAH?$AAN?$AA?$AA@ 000000018004ddc0     libucrt:lcidtoname_downlevel.obj
 0002:0000edd0       ??_C@_1M@JIJIBHDP@?$AAe?$AAs?$AA?9?$AAN?$AAI?$AA?$AA@ 000000018004ddd0     libucrt:lcidtoname_downlevel.obj
 0002:0000ede0       ??_C@_1M@CGFMKEEK@?$AAe?$AAs?$AA?9?$AAP?$AAR?$AA?$AA@ 000000018004dde0     libucrt:lcidtoname_downlevel.obj
 0002:0000edf0       ??_C@_1O@ICJHKIIK@?$AAz?$AAh?$AA?9?$AAC?$AAH?$AAT?$AA?$AA@ 000000018004ddf0     libucrt:lcidtoname_downlevel.obj
 0002:0000ee00       ??_C@_15CLNEJCE@?$AAs?$AAr?$AA?$AA@ 000000018004de00     libucrt:lcidtoname_downlevel.obj
 0002:0000fc50       ??_C@_1M@KAHEKEIG@?$AAa?$AAf?$AA?9?$AAz?$AAa?$AA?$AA@ 000000018004ec50     libucrt:lcidtoname_downlevel.obj
 0002:0000fc60       ??_C@_1M@GIECOABL@?$AAa?$AAr?$AA?9?$AAa?$AAe?$AA?$AA@ 000000018004ec60     libucrt:lcidtoname_downlevel.obj
 0002:0000fc70       ??_C@_1M@BMLMEKGI@?$AAa?$AAr?$AA?9?$AAb?$AAh?$AA?$AA@ 000000018004ec70     libucrt:lcidtoname_downlevel.obj
 0002:0000fc80       ??_C@_1M@DAPFDGGB@?$AAa?$AAr?$AA?9?$AAd?$AAz?$AA?$AA@ 000000018004ec80     libucrt:lcidtoname_downlevel.obj
 0002:0000fc90       ??_C@_1M@FJNKGKIG@?$AAa?$AAr?$AA?9?$AAe?$AAg?$AA?$AA@ 000000018004ec90     libucrt:lcidtoname_downlevel.obj
 0002:0000fca0       ??_C@_1M@FLGKKCLO@?$AAa?$AAr?$AA?9?$AAi?$AAq?$AA?$AA@ 000000018004eca0     libucrt:lcidtoname_downlevel.obj
 0002:0000fcb0       ??_C@_1M@GNDIPALM@?$AAa?$AAr?$AA?9?$AAj?$AAo?$AA?$AA@ 000000018004ecb0     libucrt:lcidtoname_downlevel.obj
 0002:0000fcc0       ??_C@_1M@DDMJFMGJ@?$AAa?$AAr?$AA?9?$AAk?$AAw?$AA?$AA@ 000000018004ecc0     libucrt:lcidtoname_downlevel.obj
 0002:0000fcd0       ??_C@_1M@EJALMLHM@?$AAa?$AAr?$AA?9?$AAl?$AAb?$AA?$AA@ 000000018004ecd0     libucrt:lcidtoname_downlevel.obj
 0002:0000fce0       ??_C@_1M@MOBDBLOC@?$AAa?$AAr?$AA?9?$AAl?$AAy?$AA?$AA@ 000000018004ece0     libucrt:lcidtoname_downlevel.obj
 0002:0000fcf0       ??_C@_1M@JAOCLHDH@?$AAa?$AAr?$AA?9?$AAm?$AAa?$AA?$AA@ 000000018004ecf0     libucrt:lcidtoname_downlevel.obj
 0002:0000fd00       ??_C@_1M@JHPMKJIE@?$AAa?$AAr?$AA?9?$AAo?$AAm?$AA?$AA@ 000000018004ed00     libucrt:lcidtoname_downlevel.obj
 0002:0000fd10       ??_C@_1M@OEPGHFNH@?$AAa?$AAr?$AA?9?$AAq?$AAa?$AA?$AA@ 000000018004ed10     libucrt:lcidtoname_downlevel.obj
 0002:0000fd20       ??_C@_1M@KJDONENM@?$AAa?$AAr?$AA?9?$AAs?$AAa?$AA?$AA@ 000000018004ed20     libucrt:lcidtoname_downlevel.obj
 0002:0000fd30       ??_C@_1M@DMJDKLKM@?$AAa?$AAr?$AA?9?$AAs?$AAy?$AA?$AA@ 000000018004ed30     libucrt:lcidtoname_downlevel.obj
 0002:0000fd40       ??_C@_1M@OMFIPEDC@?$AAa?$AAr?$AA?9?$AAt?$AAn?$AA?$AA@ 000000018004ed40     libucrt:lcidtoname_downlevel.obj
 0002:0000fd50       ??_C@_1M@IHMHGAON@?$AAa?$AAr?$AA?9?$AAy?$AAe?$AA?$AA@ 000000018004ed50     libucrt:lcidtoname_downlevel.obj
 0002:0000fd60       ??_C@_1BG@KDCPGJGB@?$AAa?$AAz?$AA?9?$AAa?$AAz?$AA?9?$AAc?$AAy?$AAr?$AAl?$AA?$AA@ 000000018004ed60     libucrt:lcidtoname_downlevel.obj
 0002:0000fd78       ??_C@_1BG@IBCKDDOE@?$AAa?$AAz?$AA?9?$AAa?$AAz?$AA?9?$AAl?$AAa?$AAt?$AAn?$AA?$AA@ 000000018004ed78     libucrt:lcidtoname_downlevel.obj
 0002:0000fd90       ??_C@_1M@EGPFDCPD@?$AAb?$AAe?$AA?9?$AAb?$AAy?$AA?$AA@ 000000018004ed90     libucrt:lcidtoname_downlevel.obj
 0002:0000fda0       ??_C@_1M@PCMGMCGC@?$AAb?$AAg?$AA?9?$AAb?$AAg?$AA?$AA@ 000000018004eda0     libucrt:lcidtoname_downlevel.obj
 0002:0000fdb0       ??_C@_1M@BJBMFGOB@?$AAb?$AAn?$AA?9?$AAi?$AAn?$AA?$AA@ 000000018004edb0     libucrt:lcidtoname_downlevel.obj
 0002:0000fdc0       ??_C@_1BG@EAKMMACD@?$AAb?$AAs?$AA?9?$AAb?$AAa?$AA?9?$AAl?$AAa?$AAt?$AAn?$AA?$AA@ 000000018004edc0     libucrt:lcidtoname_downlevel.obj
 0002:0000fdd8       ??_C@_1M@KGADAODK@?$AAc?$AAa?$AA?9?$AAe?$AAs?$AA?$AA@ 000000018004edd8     libucrt:lcidtoname_downlevel.obj
 0002:0000fde8       ??_C@_1M@COAJPDHI@?$AAc?$AAs?$AA?9?$AAc?$AAz?$AA?$AA@ 000000018004ede8     libucrt:lcidtoname_downlevel.obj
 0002:0000fdf8       ??_C@_1M@DHBHFONH@?$AAc?$AAy?$AA?9?$AAg?$AAb?$AA?$AA@ 000000018004edf8     libucrt:lcidtoname_downlevel.obj
 0002:0000fe08       ??_C@_1M@IMGKELGA@?$AAd?$AAa?$AA?9?$AAd?$AAk?$AA?$AA@ 000000018004ee08     libucrt:lcidtoname_downlevel.obj
 0002:0000fe18       ??_C@_1M@NNDGDNGA@?$AAd?$AAe?$AA?9?$AAa?$AAt?$AA?$AA@ 000000018004ee18     libucrt:lcidtoname_downlevel.obj
 0002:0000fe28       ??_C@_1M@IKDBHEEM@?$AAd?$AAe?$AA?9?$AAc?$AAh?$AA?$AA@ 000000018004ee28     libucrt:lcidtoname_downlevel.obj
 0002:0000fe38       ??_C@_1M@GFFOJMCJ@?$AAd?$AAe?$AA?9?$AAd?$AAe?$AA?$AA@ 000000018004ee38     libucrt:lcidtoname_downlevel.obj
 0002:0000fe48       ??_C@_1M@MDNLKBPM@?$AAd?$AAe?$AA?9?$AAl?$AAi?$AA?$AA@ 000000018004ee48     libucrt:lcidtoname_downlevel.obj
 0002:0000fe58       ??_C@_1M@NJBEEJNL@?$AAd?$AAe?$AA?9?$AAl?$AAu?$AA?$AA@ 000000018004ee58     libucrt:lcidtoname_downlevel.obj
 0002:0000fe68       ??_C@_1O@GNNELBAP@?$AAd?$AAi?$AAv?$AA?9?$AAm?$AAv?$AA?$AA@ 000000018004ee68     libucrt:lcidtoname_downlevel.obj
 0002:0000fe78       ??_C@_1M@EJLEOGAE@?$AAe?$AAl?$AA?9?$AAg?$AAr?$AA?$AA@ 000000018004ee78     libucrt:lcidtoname_downlevel.obj
 0002:0000fe88       ??_C@_1M@GMPONJN@?$AAe?$AAn?$AA?9?$AAa?$AAu?$AA?$AA@ 000000018004ee88     libucrt:lcidtoname_downlevel.obj
 0002:0000fe98       ??_C@_1M@NIDIIPGF@?$AAe?$AAn?$AA?9?$AAb?$AAz?$AA?$AA@ 000000018004ee98     libucrt:lcidtoname_downlevel.obj
 0002:0000fea8       ??_C@_1M@JEHMIMFO@?$AAe?$AAn?$AA?9?$AAc?$AAa?$AA?$AA@ 000000018004eea8     libucrt:lcidtoname_downlevel.obj
 0002:0000feb8       ??_C@_1M@IGMJCDLA@?$AAe?$AAn?$AA?9?$AAc?$AAb?$AA?$AA@ 000000018004eeb8     libucrt:lcidtoname_downlevel.obj
 0002:0000fec8       ??_C@_1M@BNFIGBKG@?$AAe?$AAn?$AA?9?$AAg?$AAb?$AA?$AA@ 000000018004eec8     libucrt:lcidtoname_downlevel.obj
 0002:0000fed8       ??_C@_1M@LKIFDIGP@?$AAe?$AAn?$AA?9?$AAi?$AAe?$AA?$AA@ 000000018004eed8     libucrt:lcidtoname_downlevel.obj
 0002:0000fee8       ??_C@_1M@PJKFGCCO@?$AAe?$AAn?$AA?9?$AAj?$AAm?$AA?$AA@ 000000018004eee8     libucrt:lcidtoname_downlevel.obj
 0002:0000fef8       ??_C@_1M@KPPKEPBO@?$AAe?$AAn?$AA?9?$AAn?$AAz?$AA?$AA@ 000000018004eef8     libucrt:lcidtoname_downlevel.obj
 0002:0000ff08       ??_C@_1M@GMDGLDOB@?$AAe?$AAn?$AA?9?$AAp?$AAh?$AA?$AA@ 000000018004ef08     libucrt:lcidtoname_downlevel.obj
 0002:0000ff18       ??_C@_1M@ONGIBJNA@?$AAe?$AAn?$AA?9?$AAt?$AAt?$AA?$AA@ 000000018004ef18     libucrt:lcidtoname_downlevel.obj
 0002:0000ff28       ??_C@_1M@LLODPCMM@?$AAe?$AAn?$AA?9?$AAu?$AAs?$AA?$AA@ 000000018004ef28     libucrt:lcidtoname_downlevel.obj
 0002:0000ff38       ??_C@_1M@LAKFNPAN@?$AAe?$AAn?$AA?9?$AAz?$AAa?$AA?$AA@ 000000018004ef38     libucrt:lcidtoname_downlevel.obj
 0002:0000ff48       ??_C@_1M@MFNHNHEO@?$AAe?$AAn?$AA?9?$AAz?$AAw?$AA?$AA@ 000000018004ef48     libucrt:lcidtoname_downlevel.obj
 0002:0000ff58       ??_C@_1M@EJEINPHM@?$AAe?$AAs?$AA?9?$AAa?$AAr?$AA?$AA@ 000000018004ef58     libucrt:lcidtoname_downlevel.obj
 0002:0000ff68       ??_C@_1M@GNKPCCJA@?$AAe?$AAs?$AA?9?$AAb?$AAo?$AA?$AA@ 000000018004ef68     libucrt:lcidtoname_downlevel.obj
 0002:0000ff78       ??_C@_1M@LEEGFONL@?$AAe?$AAs?$AA?9?$AAc?$AAl?$AA?$AA@ 000000018004ef78     libucrt:lcidtoname_downlevel.obj
 0002:0000ff88       ??_C@_1M@KGPDPBDF@?$AAe?$AAs?$AA?9?$AAc?$AAo?$AA?$AA@ 000000018004ef88     libucrt:lcidtoname_downlevel.obj
 0002:0000ff98       ??_C@_1M@EIAHOHH@?$AAe?$AAs?$AA?9?$AAc?$AAr?$AA?$AA@ 000000018004ef98     libucrt:lcidtoname_downlevel.obj
 0002:0000ffa8       ??_C@_1M@LLPGMBIN@?$AAe?$AAs?$AA?9?$AAd?$AAo?$AA?$AA@ 000000018004efa8     libucrt:lcidtoname_downlevel.obj
 0002:0000ffb8       ??_C@_1M@DKHMKNJA@?$AAe?$AAs?$AA?9?$AAe?$AAc?$AA?$AA@ 000000018004efb8     libucrt:lcidtoname_downlevel.obj
 0002:0000ffc8       ??_C@_1M@GKGFPKAP@?$AAe?$AAs?$AA?9?$AAe?$AAs?$AA?$AA@ 000000018004efc8     libucrt:lcidtoname_downlevel.obj
 0002:0000ffd8       ??_C@_1M@LKHKGDLN@?$AAe?$AAs?$AA?9?$AAg?$AAt?$AA?$AA@ 000000018004efd8     libucrt:lcidtoname_downlevel.obj
 0002:0000ffe8       ??_C@_1M@HEIIGGJD@?$AAe?$AAs?$AA?9?$AAh?$AAn?$AA?$AA@ 000000018004efe8     libucrt:lcidtoname_downlevel.obj
 0002:0000fff8       ??_C@_1M@FBDHPPGD@?$AAe?$AAs?$AA?9?$AAm?$AAx?$AA?$AA@ 000000018004eff8     libucrt:lcidtoname_downlevel.obj
 0002:00010008       ??_C@_1M@DPAGLNDH@?$AAe?$AAs?$AA?9?$AAn?$AAi?$AA?$AA@ 000000018004f008     libucrt:lcidtoname_downlevel.obj
 0002:00010018       ??_C@_1M@MDGOPGDD@?$AAe?$AAs?$AA?9?$AAp?$AAa?$AA?$AA@ 000000018004f018     libucrt:lcidtoname_downlevel.obj
 0002:00010028       ??_C@_1M@EMAMGBGE@?$AAe?$AAs?$AA?9?$AAp?$AAe?$AA?$AA@ 000000018004f028     libucrt:lcidtoname_downlevel.obj
 0002:00010038       ??_C@_1M@IBMCAOEC@?$AAe?$AAs?$AA?9?$AAp?$AAr?$AA?$AA@ 000000018004f038     libucrt:lcidtoname_downlevel.obj
 0002:00010048       ??_C@_1M@FGMDIJED@?$AAe?$AAs?$AA?9?$AAp?$AAy?$AA?$AA@ 000000018004f048     libucrt:lcidtoname_downlevel.obj
 0002:00010058       ??_C@_1M@IIDEOLLL@?$AAe?$AAs?$AA?9?$AAs?$AAv?$AA?$AA@ 000000018004f058     libucrt:lcidtoname_downlevel.obj
 0002:00010068       ??_C@_1M@GAOBIPA@?$AAe?$AAs?$AA?9?$AAu?$AAy?$AA?$AA@ 000000018004f068     libucrt:lcidtoname_downlevel.obj
 0002:00010078       ??_C@_1M@JKFFICHJ@?$AAe?$AAs?$AA?9?$AAv?$AAe?$AA?$AA@ 000000018004f078     libucrt:lcidtoname_downlevel.obj
 0002:00010088       ??_C@_1M@PNMLOJDF@?$AAe?$AAt?$AA?9?$AAe?$AAe?$AA?$AA@ 000000018004f088     libucrt:lcidtoname_downlevel.obj
 0002:00010098       ??_C@_1M@GHHLIKEI@?$AAe?$AAu?$AA?9?$AAe?$AAs?$AA?$AA@ 000000018004f098     libucrt:lcidtoname_downlevel.obj
 0002:000100a8       ??_C@_1M@PBNONODE@?$AAf?$AAa?$AA?9?$AAi?$AAr?$AA?$AA@ 000000018004f0a8     libucrt:lcidtoname_downlevel.obj
 0002:000100b8       ??_C@_1M@JEEHPMIL@?$AAf?$AAi?$AA?9?$AAf?$AAi?$AA?$AA@ 000000018004f0b8     libucrt:lcidtoname_downlevel.obj
 0002:000100c8       ??_C@_1M@LMDCNDBA@?$AAf?$AAo?$AA?9?$AAf?$AAo?$AA?$AA@ 000000018004f0c8     libucrt:lcidtoname_downlevel.obj
 0002:000100d8       ??_C@_1M@JKEOHLDK@?$AAf?$AAr?$AA?9?$AAb?$AAe?$AA?$AA@ 000000018004f0d8     libucrt:lcidtoname_downlevel.obj
 0002:000100e8       ??_C@_1M@NOHADPMI@?$AAf?$AAr?$AA?9?$AAc?$AAa?$AA?$AA@ 000000018004f0e8     libucrt:lcidtoname_downlevel.obj
 0002:000100f8       ??_C@_1M@KDHIHAEC@?$AAf?$AAr?$AA?9?$AAc?$AAh?$AA?$AA@ 000000018004f0f8     libucrt:lcidtoname_downlevel.obj
 0002:00010108       ??_C@_1M@MMBBFGAK@?$AAf?$AAr?$AA?9?$AAf?$AAr?$AA?$AA@ 000000018004f108     libucrt:lcidtoname_downlevel.obj
 0002:00010118       ??_C@_1M@PAFNENNF@?$AAf?$AAr?$AA?9?$AAl?$AAu?$AA?$AA@ 000000018004f118     libucrt:lcidtoname_downlevel.obj
 0002:00010128       ??_C@_1M@EOHDJGDD@?$AAf?$AAr?$AA?9?$AAm?$AAc?$AA?$AA@ 000000018004f128     libucrt:lcidtoname_downlevel.obj
 0002:00010138       ??_C@_1M@FAPLLOPF@?$AAg?$AAl?$AA?9?$AAe?$AAs?$AA?$AA@ 000000018004f138     libucrt:lcidtoname_downlevel.obj
 0002:00010148       ??_C@_1M@FOPBFLOO@?$AAg?$AAu?$AA?9?$AAi?$AAn?$AA?$AA@ 000000018004f148     libucrt:lcidtoname_downlevel.obj
 0002:00010158       ??_C@_1M@KBMCINPM@?$AAh?$AAe?$AA?9?$AAi?$AAl?$AA?$AA@ 000000018004f158     libucrt:lcidtoname_downlevel.obj
 0002:00010168       ??_C@_1M@BBPHKFPJ@?$AAh?$AAi?$AA?9?$AAi?$AAn?$AA?$AA@ 000000018004f168     libucrt:lcidtoname_downlevel.obj
 0002:00010178       ??_C@_1M@PMBNDPHD@?$AAh?$AAr?$AA?9?$AAb?$AAa?$AA?$AA@ 000000018004f178     libucrt:lcidtoname_downlevel.obj
 0002:00010188       ??_C@_1M@BPCKOEGE@?$AAh?$AAr?$AA?9?$AAh?$AAr?$AA?$AA@ 000000018004f188     libucrt:lcidtoname_downlevel.obj
 0002:00010198       ??_C@_1M@GACBMHKE@?$AAh?$AAu?$AA?9?$AAh?$AAu?$AA?$AA@ 000000018004f198     libucrt:lcidtoname_downlevel.obj
 0002:000101a8       ??_C@_1M@MILPAJJC@?$AAh?$AAy?$AA?9?$AAa?$AAm?$AA?$AA@ 000000018004f1a8     libucrt:lcidtoname_downlevel.obj
 0002:000101b8       ??_C@_1M@BABBICEC@?$AAi?$AAd?$AA?9?$AAi?$AAd?$AA?$AA@ 000000018004f1b8     libucrt:lcidtoname_downlevel.obj
 0002:000101c8       ??_C@_1M@BIKNHHPF@?$AAi?$AAs?$AA?9?$AAi?$AAs?$AA?$AA@ 000000018004f1c8     libucrt:lcidtoname_downlevel.obj
 0002:000101d8       ??_C@_1M@NMPCJPHE@?$AAi?$AAt?$AA?9?$AAc?$AAh?$AA?$AA@ 000000018004f1d8     libucrt:lcidtoname_downlevel.obj
 0002:000101e8       ??_C@_1M@GHKGFEDF@?$AAi?$AAt?$AA?9?$AAi?$AAt?$AA?$AA@ 000000018004f1e8     libucrt:lcidtoname_downlevel.obj
 0002:000101f8       ??_C@_1M@NIEJCJJA@?$AAj?$AAa?$AA?9?$AAj?$AAp?$AA?$AA@ 000000018004f1f8     libucrt:lcidtoname_downlevel.obj
 0002:00010208       ??_C@_1M@JILFNBIM@?$AAk?$AAa?$AA?9?$AAg?$AAe?$AA?$AA@ 000000018004f208     libucrt:lcidtoname_downlevel.obj
 0002:00010218       ??_C@_1M@PACPMGPH@?$AAk?$AAk?$AA?9?$AAk?$AAz?$AA?$AA@ 000000018004f218     libucrt:lcidtoname_downlevel.obj
 0002:00010228       ??_C@_1M@IELFGMHA@?$AAk?$AAn?$AA?9?$AAi?$AAn?$AA?$AA@ 000000018004f228     libucrt:lcidtoname_downlevel.obj
 0002:00010238       ??_C@_1O@IBBJHCH@?$AAk?$AAo?$AAk?$AA?9?$AAi?$AAn?$AA?$AA@ 000000018004f238     libucrt:lcidtoname_downlevel.obj
 0002:00010248       ??_C@_1M@DMHAEOGC@?$AAk?$AAo?$AA?9?$AAk?$AAr?$AA?$AA@ 000000018004f248     libucrt:lcidtoname_downlevel.obj
 0002:00010258       ??_C@_1M@HBAHBIGA@?$AAk?$AAy?$AA?9?$AAk?$AAg?$AA?$AA@ 000000018004f258     libucrt:lcidtoname_downlevel.obj
 0002:00010268       ??_C@_1M@KPMILCJG@?$AAl?$AAt?$AA?9?$AAl?$AAt?$AA?$AA@ 000000018004f268     libucrt:lcidtoname_downlevel.obj
 0002:00010278       ??_C@_1M@BDEKKCA@?$AAl?$AAv?$AA?9?$AAl?$AAv?$AA?$AA@ 000000018004f278     libucrt:lcidtoname_downlevel.obj
 0002:00010288       ??_C@_1M@ELCKCCJJ@?$AAm?$AAi?$AA?9?$AAn?$AAz?$AA?$AA@ 000000018004f288     libucrt:lcidtoname_downlevel.obj
 0002:00010298       ??_C@_1M@CBOOLAPA@?$AAm?$AAk?$AA?9?$AAm?$AAk?$AA?$AA@ 000000018004f298     libucrt:lcidtoname_downlevel.obj
 0002:000102a8       ??_C@_1M@GPHNBJKN@?$AAm?$AAl?$AA?9?$AAi?$AAn?$AA?$AA@ 000000018004f2a8     libucrt:lcidtoname_downlevel.obj
 0002:000102b8       ??_C@_1M@PABJILIG@?$AAm?$AAn?$AA?9?$AAm?$AAn?$AA?$AA@ 000000018004f2b8     libucrt:lcidtoname_downlevel.obj
 0002:000102c8       ??_C@_1M@FGBKKIPG@?$AAm?$AAr?$AA?9?$AAi?$AAn?$AA?$AA@ 000000018004f2c8     libucrt:lcidtoname_downlevel.obj
 0002:000102d8       ??_C@_1M@NDBPDDAL@?$AAm?$AAs?$AA?9?$AAb?$AAn?$AA?$AA@ 000000018004f2d8     libucrt:lcidtoname_downlevel.obj
 0002:000102e8       ??_C@_1M@OPIHOOPI@?$AAm?$AAs?$AA?9?$AAm?$AAy?$AA?$AA@ 000000018004f2e8     libucrt:lcidtoname_downlevel.obj
 0002:000102f8       ??_C@_1M@PPDBCNFM@?$AAm?$AAt?$AA?9?$AAm?$AAt?$AA?$AA@ 000000018004f2f8     libucrt:lcidtoname_downlevel.obj
 0002:00010308       ??_C@_1M@KDJDKMDD@?$AAn?$AAb?$AA?9?$AAn?$AAo?$AA?$AA@ 000000018004f308     libucrt:lcidtoname_downlevel.obj
 0002:00010318       ??_C@_1M@KFCFLMJP@?$AAn?$AAl?$AA?9?$AAb?$AAe?$AA?$AA@ 000000018004f318     libucrt:lcidtoname_downlevel.obj
 0002:00010328       ??_C@_1M@KPOPDDGO@?$AAn?$AAl?$AA?9?$AAn?$AAl?$AA?$AA@ 000000018004f328     libucrt:lcidtoname_downlevel.obj
 0002:00010338       ??_C@_1M@LJKPEMLN@?$AAn?$AAn?$AA?9?$AAn?$AAo?$AA?$AA@ 000000018004f338     libucrt:lcidtoname_downlevel.obj
 0002:00010348       ??_C@_1M@BDGHHBFL@?$AAn?$AAs?$AA?9?$AAz?$AAa?$AA?$AA@ 000000018004f348     libucrt:lcidtoname_downlevel.obj
 0002:00010358       ??_C@_1M@IDEHOAP@?$AAp?$AAa?$AA?9?$AAi?$AAn?$AA?$AA@ 000000018004f358     libucrt:lcidtoname_downlevel.obj
 0002:00010368       ??_C@_1M@HDBKGOGH@?$AAp?$AAl?$AA?9?$AAp?$AAl?$AA?$AA@ 000000018004f368     libucrt:lcidtoname_downlevel.obj
 0002:00010378       ??_C@_1M@LJLLCMEH@?$AAp?$AAt?$AA?9?$AAb?$AAr?$AA?$AA@ 000000018004f378     libucrt:lcidtoname_downlevel.obj
 0002:00010388       ??_C@_1M@NCMONAAL@?$AAp?$AAt?$AA?9?$AAp?$AAt?$AA?$AA@ 000000018004f388     libucrt:lcidtoname_downlevel.obj
 0002:00010398       ??_C@_1O@EAKMAJDN@?$AAq?$AAu?$AAz?$AA?9?$AAb?$AAo?$AA?$AA@ 000000018004f398     libucrt:lcidtoname_downlevel.obj
 0002:000103a8       ??_C@_1O@BHHPIGDN@?$AAq?$AAu?$AAz?$AA?9?$AAe?$AAc?$AA?$AA@ 000000018004f3a8     libucrt:lcidtoname_downlevel.obj
 0002:000103b8       ??_C@_1O@GBAPEKMJ@?$AAq?$AAu?$AAz?$AA?9?$AAp?$AAe?$AA?$AA@ 000000018004f3b8     libucrt:lcidtoname_downlevel.obj
 0002:000103c8       ??_C@_1M@CLGLEFBO@?$AAr?$AAo?$AA?9?$AAr?$AAo?$AA?$AA@ 000000018004f3c8     libucrt:lcidtoname_downlevel.obj
 0002:000103d8       ??_C@_1M@CEEDODME@?$AAr?$AAu?$AA?9?$AAr?$AAu?$AA?$AA@ 000000018004f3d8     libucrt:lcidtoname_downlevel.obj
 0002:000103e8       ??_C@_1M@HPKKKMPP@?$AAs?$AAa?$AA?9?$AAi?$AAn?$AA?$AA@ 000000018004f3e8     libucrt:lcidtoname_downlevel.obj
 0002:000103f8       ??_C@_1M@BKMAIGOJ@?$AAs?$AAe?$AA?9?$AAf?$AAi?$AA?$AA@ 000000018004f3f8     libucrt:lcidtoname_downlevel.obj
 0002:00010408       ??_C@_1M@NDPIFLFI@?$AAs?$AAe?$AA?9?$AAn?$AAo?$AA?$AA@ 000000018004f408     libucrt:lcidtoname_downlevel.obj
 0002:00010418       ??_C@_1M@DANKKHJ@?$AAs?$AAe?$AA?9?$AAs?$AAe?$AA?$AA@ 000000018004f418     libucrt:lcidtoname_downlevel.obj
 0002:00010428       ??_C@_1M@PNBLONPJ@?$AAs?$AAk?$AA?9?$AAs?$AAk?$AA?$AA@ 000000018004f428     libucrt:lcidtoname_downlevel.obj
 0002:00010438       ??_C@_1M@LFMODOAL@?$AAs?$AAl?$AA?9?$AAs?$AAi?$AA?$AA@ 000000018004f438     libucrt:lcidtoname_downlevel.obj
 0002:00010448       ??_C@_1O@DFKOMPG@?$AAs?$AAm?$AAa?$AA?9?$AAn?$AAo?$AA?$AA@ 000000018004f448     libucrt:lcidtoname_downlevel.obj
 0002:00010458       ??_C@_1O@NDKPBNNH@?$AAs?$AAm?$AAa?$AA?9?$AAs?$AAe?$AA?$AA@ 000000018004f458     libucrt:lcidtoname_downlevel.obj
 0002:00010468       ??_C@_1O@PLLKBHAB@?$AAs?$AAm?$AAj?$AA?9?$AAn?$AAo?$AA?$AA@ 000000018004f468     libucrt:lcidtoname_downlevel.obj
 0002:00010478       ??_C@_1O@CLEPOGCA@?$AAs?$AAm?$AAj?$AA?9?$AAs?$AAe?$AA?$AA@ 000000018004f478     libucrt:lcidtoname_downlevel.obj
 0002:00010488       ??_C@_1O@DLGJGKMK@?$AAs?$AAm?$AAn?$AA?9?$AAf?$AAi?$AA?$AA@ 000000018004f488     libucrt:lcidtoname_downlevel.obj
 0002:00010498       ??_C@_1O@OJDJGAJC@?$AAs?$AAm?$AAs?$AA?9?$AAf?$AAi?$AA?$AA@ 000000018004f498     libucrt:lcidtoname_downlevel.obj
 0002:000104a8       ??_C@_1M@BOFOGHPB@?$AAs?$AAq?$AA?9?$AAa?$AAl?$AA?$AA@ 000000018004f4a8     libucrt:lcidtoname_downlevel.obj
 0002:000104b8       ??_C@_1BG@LJBBIPGB@?$AAs?$AAr?$AA?9?$AAb?$AAa?$AA?9?$AAc?$AAy?$AAr?$AAl?$AA?$AA@ 000000018004f4b8     libucrt:lcidtoname_downlevel.obj
 0002:000104d0       ??_C@_1BG@JLBENFOE@?$AAs?$AAr?$AA?9?$AAb?$AAa?$AA?9?$AAl?$AAa?$AAt?$AAn?$AA?$AA@ 000000018004f4d0     libucrt:lcidtoname_downlevel.obj
 0002:000104e8       ??_C@_1BG@KODPNHE@?$AAs?$AAr?$AA?9?$AAs?$AAp?$AA?9?$AAc?$AAy?$AAr?$AAl?$AA?$AA@ 000000018004f4e8     libucrt:lcidtoname_downlevel.obj
 0002:00010500       ??_C@_1BG@CIOGKHPB@?$AAs?$AAr?$AA?9?$AAs?$AAp?$AA?9?$AAl?$AAa?$AAt?$AAn?$AA?$AA@ 000000018004f500     libucrt:lcidtoname_downlevel.obj
 0002:00010518       ??_C@_1M@NGFJLMAC@?$AAs?$AAv?$AA?9?$AAf?$AAi?$AA?$AA@ 000000018004f518     libucrt:lcidtoname_downlevel.obj
 0002:00010528       ??_C@_1M@MPJEJAJC@?$AAs?$AAv?$AA?9?$AAs?$AAe?$AA?$AA@ 000000018004f528     libucrt:lcidtoname_downlevel.obj
 0002:00010538       ??_C@_1M@MPNDHLFK@?$AAs?$AAw?$AA?9?$AAk?$AAe?$AA?$AA@ 000000018004f538     libucrt:lcidtoname_downlevel.obj
 0002:00010548       ??_C@_1O@KOHBJJI@?$AAs?$AAy?$AAr?$AA?9?$AAs?$AAy?$AA?$AA@ 000000018004f548     libucrt:lcidtoname_downlevel.obj
 0002:00010558       ??_C@_1M@LDCEFHA@?$AAt?$AAa?$AA?9?$AAi?$AAn?$AA?$AA@ 000000018004f558     libucrt:lcidtoname_downlevel.obj
 0002:00010568       ??_C@_1M@CNJOFAK@?$AAt?$AAe?$AA?9?$AAi?$AAn?$AA?$AA@ 000000018004f568     libucrt:lcidtoname_downlevel.obj
 0002:00010578       ??_C@_1M@GNAECACD@?$AAt?$AAh?$AA?9?$AAt?$AAh?$AA?$AA@ 000000018004f578     libucrt:lcidtoname_downlevel.obj
 0002:00010588       ??_C@_1M@CHBIHOJO@?$AAt?$AAn?$AA?9?$AAz?$AAa?$AA?$AA@ 000000018004f588     libucrt:lcidtoname_downlevel.obj
 0002:00010598       ??_C@_1M@GCCMIGPJ@?$AAt?$AAr?$AA?9?$AAt?$AAr?$AA?$AA@ 000000018004f598     libucrt:lcidtoname_downlevel.obj
 0002:000105a8       ??_C@_1M@CELMCNBK@?$AAt?$AAt?$AA?9?$AAr?$AAu?$AA?$AA@ 000000018004f5a8     libucrt:lcidtoname_downlevel.obj
 0002:000105b8       ??_C@_1M@KLMCELGA@?$AAu?$AAk?$AA?9?$AAu?$AAa?$AA?$AA@ 000000018004f5b8     libucrt:lcidtoname_downlevel.obj
 0002:000105c8       ??_C@_1M@EPAJJAJF@?$AAu?$AAr?$AA?9?$AAp?$AAk?$AA?$AA@ 000000018004f5c8     libucrt:lcidtoname_downlevel.obj
 0002:000105d8       ??_C@_1BG@GEGPMCDJ@?$AAu?$AAz?$AA?9?$AAu?$AAz?$AA?9?$AAc?$AAy?$AAr?$AAl?$AA?$AA@ 000000018004f5d8     libucrt:lcidtoname_downlevel.obj
 0002:000105f0       ??_C@_1BG@EGGKJILM@?$AAu?$AAz?$AA?9?$AAu?$AAz?$AA?9?$AAl?$AAa?$AAt?$AAn?$AA?$AA@ 000000018004f5f0     libucrt:lcidtoname_downlevel.obj
 0002:00010608       ??_C@_1M@GFOCLFF@?$AAv?$AAi?$AA?9?$AAv?$AAn?$AA?$AA@ 000000018004f608     libucrt:lcidtoname_downlevel.obj
 0002:00010618       ??_C@_1M@CPAMEDFI@?$AAx?$AAh?$AA?9?$AAz?$AAa?$AA?$AA@ 000000018004f618     libucrt:lcidtoname_downlevel.obj
 0002:00010628       ??_C@_1O@EBKIFIGN@?$AAz?$AAh?$AA?9?$AAc?$AAh?$AAs?$AA?$AA@ 000000018004f628     libucrt:lcidtoname_downlevel.obj
 0002:00010638       ??_C@_1O@NMHPGANE@?$AAz?$AAh?$AA?9?$AAc?$AAh?$AAt?$AA?$AA@ 000000018004f638     libucrt:lcidtoname_downlevel.obj
 0002:00010648       ??_C@_1M@LPINJOMC@?$AAz?$AAh?$AA?9?$AAc?$AAn?$AA?$AA@ 000000018004f648     libucrt:lcidtoname_downlevel.obj
 0002:00010658       ??_C@_1M@OCJEJODD@?$AAz?$AAh?$AA?9?$AAh?$AAk?$AA?$AA@ 000000018004f658     libucrt:lcidtoname_downlevel.obj
 0002:00010668       ??_C@_1M@DNDLJINH@?$AAz?$AAh?$AA?9?$AAm?$AAo?$AA?$AA@ 000000018004f668     libucrt:lcidtoname_downlevel.obj
 0002:00010678       ??_C@_1M@MBFDNDND@?$AAz?$AAh?$AA?9?$AAs?$AAg?$AA?$AA@ 000000018004f678     libucrt:lcidtoname_downlevel.obj
 0002:00010688       ??_C@_1M@IMEPLEPE@?$AAz?$AAh?$AA?9?$AAt?$AAw?$AA?$AA@ 000000018004f688     libucrt:lcidtoname_downlevel.obj
 0002:00010698       ??_C@_1M@BBGHNHJP@?$AAz?$AAu?$AA?9?$AAz?$AAa?$AA?$AA@ 000000018004f698     libucrt:lcidtoname_downlevel.obj
 0002:00010900       ??_C@_1BA@BALFACEM@?$AAC?$AAO?$AAN?$AAO?$AAU?$AAT?$AA$?$AA?$AA@ 000000018004f900     libucrt:initcon.obj
 0002:00010910       __log10_256_lead           000000018004f910     libucrt:log10_256_lead_tail_table.obj
 0002:00011120       __log10_256_tail           0000000180050120     libucrt:log10_256_lead_tail_table.obj
 0002:00011928       ??_C@_1BK@DBDEIDLH@?$AAK?$AAE?$AAR?$AAN?$AAE?$AAL?$AA3?$AA2?$AA?4?$AAD?$AAL?$AAL@ 0000000180050928     DelayImp:delayhlp.obj
 0002:00011948       __pfnDliFailureHook2       0000000180050948     DelayImp:delayhk1.obj
 0002:00011950       _load_config_used          0000000180050950     LIBCMT:loadcfg.obj
 0002:00011a50       ??_C@_0BA@JFNIOLAK@string?5too?5long@ 0000000180050a50     binding.obj
 0002:00011a60       ??_C@_1IO@BINPCPOK@?$AAc?$AA?3?$AA?2?$AAb?$AAo?$AAo?$AAk?$AAs?$AA?2?$AAv?$AAs?$AAc?$AAo?$AAd?$AAe@ 0000000180050a60     binding.obj
 0002:00011af0       ??_C@_1FK@CBGIJHDF@?$AAv?$AAa?$AAl?$AAu?$AAe?$AA?4?$AAs?$AAi?$AAz?$AAe?$AA?$CI?$AA?$CJ?$AA?5?$AA?$DM?$AA?$DN@ 0000000180050af0     binding.obj
 0002:00011b50       ??_C@_0BB@IKBIFPPL@builtin?4features@ 0000000180050b50     binding.obj
 0002:00011b68       ??_C@_0BN@GLDCAAC@RdKafka?3?3Topic?3?3PARTITION_UA@ 0000000180050b68     binding.obj
 0002:00011b88       ??_C@_0CB@KCPBJAGM@RdKafka?3?3Topic?3?3OFFSET_BEGINNIN@ 0000000180050b88     binding.obj
 0002:00011bb0       ??_C@_0BL@EEPLOBEF@RdKafka?3?3Topic?3?3OFFSET_END@ 0000000180050bb0     binding.obj
 0002:00011bd0       ??_C@_0BO@EJIIBNEN@RdKafka?3?3Topic?3?3OFFSET_STORED@ 0000000180050bd0     binding.obj
 0002:00011bf0       ??_C@_0BP@MEKNLDIK@RdKafka?3?3Topic?3?3OFFSET_INVALID@ 0000000180050bf0     binding.obj
 0002:00011c10       ??_C@_05KHAFJJEA@topic@    0000000180050c10     binding.obj
 0002:00011c18       ??_C@_07NDFBNMON@err2str@  0000000180050c18     binding.obj
 0002:00011c20       ??_C@_08KJPMJBHA@features@ 0000000180050c20     binding.obj
 0002:00011c30       ??_C@_0BC@DIPIDPDK@librdkafkaVersion@ 0000000180050c30     binding.obj
 0002:00011c50       ??_C@_0ED@LACCKGNH@c?3?2books?2vscode?2nodejsapi?2node_@ 0000000180050c50     binding.obj
 0002:00011c94       ??_C@_05KOHFCJMA@kafka@    0000000180050c94     binding.obj
 0002:00011c9a       ??_C@_00CNPNBAHC@@         0000000180050c9a     callbacks.obj
 0002:00011ca0       ??_C@_1GC@DJODNCEM@?$AAc?$AA?3?$AA?2?$AAb?$AAo?$AAo?$AAk?$AAs?$AA?2?$AAv?$AAs?$AAc?$AAo?$AAd?$AAe@ 0000000180050ca0     callbacks.obj
 0002:00011d10       ??_C@_1FM@LOELJOFK@?$AAs?$AAi?$AAz?$AAe?$AA?5?$AA?$DM?$AA?$DN?$AA?5?$AAi?$AAm?$AAp?$AA?3?$AA?3?$AAk?$AAM@ 0000000180050d10     callbacks.obj
 0002:00011d70       ??_C@_0BI@KPLHLBNP@nan?3Callback?3operator?$CI?$CJ@ 0000000180050d70     callbacks.obj
 0002:00011d88       ??_C@_0BC@EBHDFLHM@nan?3Callback?3Call@ 0000000180050d88     callbacks.obj
 0002:00011da0       ??_C@_09IKAEIPAD@partition@ 0000000180050da0     callbacks.obj
 0002:00011dac       ??_C@_06KLHHMIGM@offset@   0000000180050dac     callbacks.obj
 0002:00011db4       ??_C@_05KKCIMGE@error@     0000000180050db4     callbacks.obj
 0002:00011dbc       ??_C@_05BLKJBNOD@stats@    0000000180050dbc     callbacks.obj
 0002:00011dc8       ??_C@_07ONPBMBOP@message@  0000000180050dc8     callbacks.obj
 0002:00011dd0       ??_C@_03MGHMBJCF@log@      0000000180050dd0     callbacks.obj
 0002:00011dd8       ??_C@_08PHGLMIHD@severity@ 0000000180050dd8     callbacks.obj
 0002:00011de4       ??_C@_03MHDDBBEP@fac@      0000000180050de4     callbacks.obj
 0002:00011de8       ??_C@_08IEKKGCGJ@throttle@ 0000000180050de8     callbacks.obj
 0002:00011df8       ??_C@_0N@GAHIKCIO@throttleTime@ 0000000180050df8     callbacks.obj
 0002:00011e08       ??_C@_0L@MDJPLIIA@brokerName@ 0000000180050e08     callbacks.obj
 0002:00011e18       ??_C@_08HEOFJPMN@brokerId@ 0000000180050e18     callbacks.obj
 0002:00011e24       ??_C@_05GFHEIIDD@event@    0000000180050e24     callbacks.obj
 0002:00011e2c       ??_C@_03ICHNJLJF@key@      0000000180050e2c     callbacks.obj
 0002:00011e30       ??_C@_06CJCOLNBB@opaque@   0000000180050e30     callbacks.obj
 0002:00011e38       ??_C@_09OMDJNLDP@timestamp@ 0000000180050e38     callbacks.obj
 0002:00011e44       ??_C@_05MFEJDJP@value@     0000000180050e44     callbacks.obj
 0002:00011e4c       ??_C@_04IAGNFIBA@size@     0000000180050e4c     callbacks.obj
 0002:00011e58       ??_C@_0BD@OLBABOEK@vector?$DMT?$DO?5too?5long@ 0000000180050e58     callbacks.obj
 0002:00011e70       ??_C@_0BC@KBDMBKEH@deque?$DMT?$DO?5too?5long@ 0000000180050e70     callbacks.obj
 0002:00011e90       ??_7Event@Callbacks@NodeKafka@@6B@ 0000000180050e90     callbacks.obj
 0002:00011ea8       ??_7Dispatcher@Callbacks@NodeKafka@@6B@ 0000000180050ea8     callbacks.obj
 0002:00011eb8       ??_7EventDispatcher@Callbacks@NodeKafka@@6B@ 0000000180050eb8     callbacks.obj
 0002:00011ec8       ??_7DeliveryReportDispatcher@Callbacks@NodeKafka@@6B@ 0000000180050ec8     callbacks.obj
 0002:00011ed8       ??_7Delivery@Callbacks@NodeKafka@@6B@ 0000000180050ed8     callbacks.obj
 0002:00011ef0       ??_7RebalanceDispatcher@Callbacks@NodeKafka@@6B@ 0000000180050ef0     callbacks.obj
 0002:00011f00       ??_7Rebalance@Callbacks@NodeKafka@@6B@ 0000000180050f00     callbacks.obj
 0002:00011f18       ??_7Partitioner@Callbacks@NodeKafka@@6B@ 0000000180050f18     callbacks.obj
 0002:00011f30       ??_7OffsetCommit@Callbacks@NodeKafka@@6B@ 0000000180050f30     callbacks.obj
 0002:00011f48       ??_7OffsetCommitDispatcher@Callbacks@NodeKafka@@6B@ 0000000180050f48     callbacks.obj
 0002:00011f50       ??_C@_0BC@BDKFLDHL@unknown?5exception@ 0000000180050f50     common.obj
 0002:00011f68       ??_C@_0BA@ELKIONDK@bad?5locale?5name@ 0000000180050f68     common.obj
 0002:00011f78       ??_C@_02LMMGGCAJ@?3?5@     0000000180050f78     common.obj
 0002:00011f80       ??_C@_08LLGCOLLL@iostream@ 0000000180050f80     common.obj
 0002:00011f90       ??_C@_0BG@PADBLCHM@iostream?5stream?5error@ 0000000180050f90     common.obj
 0002:00011fa8       ??_C@_0BF@PHHKMMFD@ios_base?3?3badbit?5set@ 0000000180050fa8     common.obj
 0002:00011fc0       ??_C@_0BG@FMKFHCIL@ios_base?3?3failbit?5set@ 0000000180050fc0     common.obj
 0002:00011fd8       ??_C@_0BF@OOHOMBOF@ios_base?3?3eofbit?5set@ 0000000180050fd8     common.obj
 0002:00011ff0       ??_C@_1BO@OPFMAOCA@?$AAl?$AAe?$AAn?$AA?5?$AA?$DM?$AA?$DN?$AA?5?$AAI?$AAN?$AAT?$AA_?$AAM?$AAA?$AAX@ 0000000180050ff0     common.obj
 0002:00012010       ??_C@_1BE@CKDJNAPC@?$AAs?$AAt?$AAr?$AA_?$AA?5?$AA?$CB?$AA?$DN?$AA?5?$AA0@ 0000000180051010     common.obj
 0002:00012024       ??_C@_02KLLMIGEE@?$CF?5@   0000000180051024     common.obj
 0002:00012028       ??_C@_02EGCJHIOB@id@       0000000180051028     common.obj
 0002:0001202c       ??_C@_04OODOLJMA@host@     000000018005102c     common.obj
 0002:00012034       ??_C@_04LPGMAPLE@port@     0000000180051034     common.obj
 0002:0001203c       ??_C@_04MEMAJGDJ@name@     000000018005103c     common.obj
 0002:00012044       ??_C@_06DFLPLEOP@leader@   0000000180051044     common.obj
 0002:00012050       ??_C@_08DMEAHHCE@replicas@ 0000000180051050     common.obj
 0002:0001205c       ??_C@_04IHBCIEKH@isrs@     000000018005105c     common.obj
 0002:00012068       ??_C@_0L@JNJBHPAA@partitions@ 0000000180051068     common.obj
 0002:00012078       ??_C@_0P@IOJOIIPF@orig_broker_id@ 0000000180051078     common.obj
 0002:00012088       ??_C@_0BB@FHNDHLMH@orig_broker_name@ 0000000180051088     common.obj
 0002:0001209c       ??_C@_06HCGJGODM@topics@   000000018005109c     common.obj
 0002:000120a8       ??_C@_07DLDLCMLL@brokers@  00000001800510a8     common.obj
 0002:000120b0       ??_C@_07LANIGEJC@headers@  00000001800510b0     common.obj
 0002:000120b8       ??_C@_0P@OHHEDCOI@num_partitions@ 00000001800510b8     common.obj
 0002:000120c8       ??_C@_0BD@LMODKNPB@replication_factor@ 00000001800510c8     common.obj
 0002:000120dc       ??_C@_06HEJKKHEK@config@   00000001800510dc     common.obj
 0002:000120e8       ??_C@_0CP@EKKLCCGP@Config?5values?5must?5all?5be?5provi@ 00000001800510e8     common.obj
 0002:00012120       ??_7exception@stdext@@6B@  0000000180051120     common.obj
 0002:00012140       ??_7runtime_error@std@@6B@ 0000000180051140     common.obj
 0002:00012160       ??_7_System_error@std@@6B@ 0000000180051160     common.obj
 0002:00012180       ??_7system_error@std@@6B@  0000000180051180     common.obj
 0002:000121a0       ??_7failure@ios_base@std@@6B@ 00000001800511a0     common.obj
 0002:000121b8       ??_C@_05LAPONLG@false@     00000001800511b8     config.obj
 0002:000121c0       ??_C@_04LOAJBDKD@true@     00000001800511c0     config.obj
 0002:000121c8       ??_C@_0N@IAFGCIFB@rebalance_cb@ 00000001800511c8     config.obj
 0002:000121d8       ??_C@_0BB@HFKDGBCN@offset_commit_cb@ 00000001800511d8     config.obj
 0002:000121f0       ??_C@_1DA@FBGAEOIO@?$AA?$CB?$AAp?$AAe?$AAr?$AAs?$AAi?$AAs?$AAt?$AAe?$AAn?$AAt?$AA?$CI?$AA?$CJ?$AA?4?$AAI@ 00000001800511f0     connection.obj
 0002:00012220       ??_C@_1CO@JCKLEFMA@?$AA?$CB?$AAp?$AAe?$AAr?$AAs?$AAi?$AAs?$AAt?$AAe?$AAn?$AAt?$AA?$CI?$AA?$CJ?$AA?4?$AAI@ 0000000180051220     connection.obj
 0002:00012250       ??_C@_1BE@GMLLOIPJ@?$AAr?$AAe?$AAf?$AAs?$AA_?$AA?5?$AA?$DO?$AA?5?$AA0@ 0000000180051250     connection.obj
 0002:00012268       ??_C@_1CC@GBFLAAPF@?$AAw?$AAr?$AAa?$AAp?$AA?9?$AA?$DO?$AAr?$AAe?$AAf?$AAs?$AA_?$AA?5?$AA?$DN?$AA?$DN?$AA?5@ 0000000180051268     connection.obj
 0002:00012290       ??_C@_1HK@KNMFIPI@?$AAc?$AA?3?$AA?2?$AAb?$AAo?$AAo?$AAk?$AAs?$AA?2?$AAv?$AAs?$AAc?$AAo?$AAd?$AAe@ 0000000180051290     connection.obj
 0002:00012310       ??_C@_1EC@MGGLMBLC@?$AAo?$AAb?$AAj?$AAe?$AAc?$AAt?$AA?9?$AA?$DO?$AAI?$AAn?$AAt?$AAe?$AAr?$AAn?$AAa@ 0000000180051310     connection.obj
 0002:00012358       ??_C@_08MCLJPGC@event_cb@  0000000180051358     connection.obj
 0002:00012368       ??_C@_0CE@ILNHGCNL@Second?5parameter?5must?5be?5a?5call@ 0000000180051368     connection.obj
 0002:00012390       ??_C@_09MAAEEIKC@allTopics@ 0000000180051390     connection.obj
 0002:000123a0       ??_C@_07DDHNKDGP@timeout@  00000001800513a0     connection.obj
 0002:000123a8       ??_C@_0CN@JDCLNOPP@Need?5to?5specify?5an?5array?5of?5top@ 00000001800513a8     connection.obj
 0002:000123d8       ??_C@_0CF@LKHKNIEJ@1st?5parameter?5must?5be?5a?5topic?5s@ 00000001800513d8     connection.obj
 0002:00012400       ??_C@_0CJ@JHJNGLMD@2nd?5parameter?5must?5be?5a?5partiti@ 0000000180051400     connection.obj
 0002:00012430       ??_C@_0CP@KAACANLK@3rd?5parameter?5must?5be?5a?5number?5@ 0000000180051430     connection.obj
 0002:00012460       ??_C@_0CB@BENOIIIC@4th?5parameter?5must?5be?5a?5callbac@ 0000000180051460     connection.obj
 0002:00012488       ??_C@_0BL@DKJOLHL@Need?5to?5specify?5a?5callback@ 0000000180051488     connection.obj
 0002:000124a8       ??_C@_1CE@LNAGEONJ@?$AA?$CB?$AAo?$AAb?$AAj?$AAe?$AAc?$AAt?$AA?4?$AAI?$AAs?$AAE?$AAm?$AAp?$AAt?$AAy@ 00000001800514a8     connection.obj
 0002:000124d8       ??_7Connection@NodeKafka@@6B@ 00000001800514d8     connection.obj
 0002:00012508       ??_7ObjectWrap@Nan@@6B@    0000000180051508     connection.obj
 0002:00012520       ??_C@_04NDFOBODE@code@     0000000180051520     errors.obj
 0002:00012528       ??_C@_1CO@EGNPJLKI@?$AAp?$AAe?$AAr?$AAs?$AAi?$AAs?$AAt?$AAe?$AAn?$AAt?$AA?$CI?$AA?$CJ?$AA?4?$AAI?$AAs@ 0000000180051528     kafka-consumer.obj
 0002:00012558       ??_C@_0BD@JKCEHHPF@default_topic_conf@ 0000000180051558     kafka-consumer.obj
 0002:00012570       ??_C@_0BO@GLGBAFFC@KafkaConsumer?5is?5disconnected@ 0000000180051570     kafka-consumer.obj
 0002:00012590       ??_C@_0BP@CPMBDOCM@KafkaConsumer?5is?5not?5connected@ 0000000180051590     kafka-consumer.obj
 0002:000125b0       ??_C@_0BK@FCBFBJAG@Consumer?5is?5not?5connected@ 00000001800515b0     kafka-consumer.obj
 0002:000125d0       ??_C@_0O@GKJPGJPJ@KafkaConsumer@ 00000001800515d0     kafka-consumer.obj
 0002:000125e0       ??_C@_07GEHKHGGA@onEvent@  00000001800515e0     kafka-consumer.obj
 0002:000125e8       ??_C@_07KAIBNCHO@connect@  00000001800515e8     kafka-consumer.obj
 0002:000125f0       ??_C@_0L@KKPFIJOL@disconnect@ 00000001800515f0     kafka-consumer.obj
 0002:00012600       ??_C@_0M@KKKOBKEG@getMetadata@ 0000000180051600     kafka-consumer.obj
 0002:00012610       ??_C@_0BG@LMMIHAAG@queryWatermarkOffsets@ 0000000180051610     kafka-consumer.obj
 0002:00012628       ??_C@_0BA@LLFEFEE@offsetsForTimes@ 0000000180051628     kafka-consumer.obj
 0002:00012638       ??_C@_0BE@CCMNDBCI@getWatermarkOffsets@ 0000000180051638     kafka-consumer.obj
 0002:00012650       ??_C@_0N@DCIEFFHI@subscription@ 0000000180051650     kafka-consumer.obj
 0002:00012660       ??_C@_09OMPELEIG@subscribe@ 0000000180051660     kafka-consumer.obj
 0002:00012670       ??_C@_0M@MKOAFBEF@unsubscribe@ 0000000180051670     kafka-consumer.obj
 0002:00012680       ??_C@_0M@NKNAKFIL@consumeLoop@ 0000000180051680     kafka-consumer.obj
 0002:00012690       ??_C@_07DBKPNIMI@consume@  0000000180051690     kafka-consumer.obj
 0002:00012698       ??_C@_04EDECCOGL@seek@     0000000180051698     kafka-consumer.obj
 0002:000126a0       ??_C@_05PDJBBECF@pause@    00000001800516a0     kafka-consumer.obj
 0002:000126a8       ??_C@_06PLELHCEK@resume@   00000001800516a8     kafka-consumer.obj
 0002:000126b0       ??_C@_09IMIJHGPO@committed@ 00000001800516b0     kafka-consumer.obj
 0002:000126c0       ??_C@_08OAGMDKAF@position@ 00000001800516c0     kafka-consumer.obj
 0002:000126cc       ??_C@_06IMFOKBKF@assign@   00000001800516cc     kafka-consumer.obj
 0002:000126d8       ??_C@_08IIGOFOGG@unassign@ 00000001800516d8     kafka-consumer.obj
 0002:000126e8       ??_C@_0M@NFKPDEEL@assignments@ 00000001800516e8     kafka-consumer.obj
 0002:000126f4       ??_C@_06IFNEBLAJ@commit@   00000001800516f4     kafka-consumer.obj
 0002:00012700       ??_C@_0L@HAOAPAOM@commitSync@ 0000000180051700     kafka-consumer.obj
 0002:00012710       ??_C@_0N@PCOEHEPG@offsetsStore@ 0000000180051710     kafka-consumer.obj
 0002:00012720       ??_C@_0CJ@IPKDMCOA@non?9constructor?5invocation?5not?5@ 0000000180051720     kafka-consumer.obj
 0002:00012750       ??_C@_0CP@JEILJKBG@You?5must?5supply?5global?5and?5topi@ 0000000180051750     kafka-consumer.obj
 0002:00012780       ??_C@_0CM@IPGPHFB@Global?5configuration?5data?5must?5@ 0000000180051780     kafka-consumer.obj
 0002:000127b0       ??_C@_0CG@OEANMBLF@Topic?5configuration?5must?5be?5spe@ 00000001800517b0     kafka-consumer.obj
 0002:000127d8       ??_C@_0CH@LIPEGELN@Need?5to?5specify?5an?5array?5of?5par@ 00000001800517d8     kafka-consumer.obj
 0002:00012800       ??_C@_0CC@GCHCAJED@Must?5pass?5topic?9partition?5objec@ 0000000180051800     kafka-consumer.obj
 0002:00012828       ??_C@_0CB@CIIIMCEP@Invalid?5topic?5partition?5provide@ 0000000180051828     kafka-consumer.obj
 0002:00012850       ??_C@_0CO@HCGCMKFN@First?5parameter?5must?5be?5an?5obje@ 0000000180051850     kafka-consumer.obj
 0002:00012880       ??_C@_0CB@MLLBHOO@First?5parameter?5must?5be?5an?5arra@ 0000000180051880     kafka-consumer.obj
 0002:000128a8       ??_C@_0DG@OKCAAIPE@Must?5provide?5a?5topic?5partition?0@ 00000001800518a8     kafka-consumer.obj
 0002:000128e0       ??_C@_0CC@GOICINAG@Topic?5partition?5must?5be?5an?5obje@ 00000001800518e0     kafka-consumer.obj
 0002:00012908       ??_C@_0BK@NPADAGOD@Timeout?5must?5be?5a?5number?4@ 0000000180051908     kafka-consumer.obj
 0002:00012928       ??_C@_0BM@FIGLNHDP@Callback?5must?5be?5a?5function@ 0000000180051928     kafka-consumer.obj
 0002:00012948       ??_C@_0CI@ELKHKCD@Must?5provide?5a?5list?5of?5topic?5pa@ 0000000180051948     kafka-consumer.obj
 0002:00012970       ??_C@_0CM@NKPAIEPA@Topic?5partition?5must?5be?5an?5arra@ 0000000180051970     kafka-consumer.obj
 0002:000129a0       ??_C@_0BN@KGKKLFLP@Invalid?5number?5of?5parameters@ 00000001800519a0     kafka-consumer.obj
 0002:000129c0       ??_C@_0BK@KKHCFPDE@Need?5to?5specify?5a?5timeout@ 00000001800519c0     kafka-consumer.obj
 0002:000129e0       ??_C@_0CC@FMJIHABO@Parameter?5must?5be?5a?5number?5over@ 00000001800519e0     kafka-consumer.obj
 0002:00012a08       ??_C@_09PELIHEPK@lowOffset@ 0000000180051a08     kafka-consumer.obj
 0002:00012a18       ??_C@_0L@GOMIJAMG@highOffset@ 0000000180051a18     kafka-consumer.obj
 0002:00012a30       ??_7KafkaConsumer@NodeKafka@@6B@ 0000000180051a30     kafka-consumer.obj
 0002:00012a58       ??_C@_05NAHOMDBH@dr_cb@    0000000180051a58     producer.obj
 0002:00012a60       ??_C@_08CAPOGIGH@Producer@ 0000000180051a60     producer.obj
 0002:00012a6c       ??_C@_04CLMPBJJH@poll@     0000000180051a6c     producer.obj
 0002:00012a78       ??_C@_0BB@NFCOIMJO@onDeliveryReport@ 0000000180051a78     producer.obj
 0002:00012a90       ??_C@_0P@NEBKAMDK@setPartitioner@ 0000000180051a90     producer.obj
 0002:00012aa0       ??_C@_07NGJAKGDD@produce@  0000000180051aa0     producer.obj
 0002:00012aa8       ??_C@_05GLCAEPFP@flush@    0000000180051aa8     producer.obj
 0002:00012ab0       ??_C@_0DA@OHIABEIO@Need?5to?5specify?5a?5topic?0?5partit@ 0000000180051ab0     producer.obj
 0002:00012ae0       ??_C@_0CB@HDAEPOAD@Message?5must?5be?5a?5buffer?5or?5nul@ 0000000180051ae0     producer.obj
 0002:00012b08       ??_C@_0BL@OHPBGLFN@Timestamp?5must?5be?5a?5number@ 0000000180051b08     producer.obj
 0002:00012b28       ??_C@_0BJ@NOMCGCKJ@Producer?5is?5disconnected@ 0000000180051b28     producer.obj
 0002:00012b48       ??_C@_0CJ@DKJCLHAC@Need?5to?5specify?5a?5timeout?5and?5a@ 0000000180051b48     producer.obj
 0002:00012b80       ??_7Producer@NodeKafka@@6B@ 0000000180051b80     producer.obj
 0002:00012ba8       ??_C@_05KAKJJMHG@Topic@    0000000180051ba8     topic.obj
 0002:00012bb0       ??_C@_0BH@PHFBEEI@topic?5name?5is?5required@ 0000000180051bb0     topic.obj
 0002:00012bc8       ??_C@_0BM@GPBEPHJB@Topic?5name?5must?5be?5a?5string@ 0000000180051bc8     topic.obj
 0002:00012be8       ??_C@_0CF@EKEFDMDL@Configuration?5data?5must?5be?5spec@ 0000000180051be8     topic.obj
 0002:00012c18       ??_7Topic@NodeKafka@@6B@   0000000180051c18     topic.obj
 0002:00012c30       ??_C@_0BA@KEENCHNI@nan?3AsyncWorker@ 0000000180051c30     workers.obj
 0002:00012c40       ??_C@_1IG@KMAGMEHK@?$AAc?$AA?3?$AA?2?$AAb?$AAo?$AAo?$AAk?$AAs?$AA?2?$AAv?$AAs?$AAc?$AAo?$AAd?$AAe@ 0000000180051c40     workers.obj
 0002:00012cc8       ??_C@_13COJANIEC@?$AA0@    0000000180051cc8     workers.obj
 0002:00012cd8       ??_7AdminClientCreatePartitions@Workers@NodeKafka@@6B@ 0000000180051cd8     workers.obj
 0002:00012d10       ??_7AsyncWorker@Nan@@6B@   0000000180051d10     workers.obj
 0002:00012d48       ??_7KafkaConsumerSeek@Workers@NodeKafka@@6B@ 0000000180051d48     workers.obj
 0002:00012d80       ??_7ProducerConnect@Workers@NodeKafka@@6B@ 0000000180051d80     workers.obj
 0002:00012db8       ??_7KafkaConsumerDisconnect@Workers@NodeKafka@@6B@ 0000000180051db8     workers.obj
 0002:00012df0       ??_7ProducerFlush@Workers@NodeKafka@@6B@ 0000000180051df0     workers.obj
 0002:00012e28       ??_7ErrorAwareWorker@Workers@NodeKafka@@6B@ 0000000180051e28     workers.obj
 0002:00012e60       ??_7AdminClientCreateTopic@Workers@NodeKafka@@6B@ 0000000180051e60     workers.obj
 0002:00012e98       ??_7KafkaConsumerConsumeLoop@Workers@NodeKafka@@6B@ 0000000180051e98     workers.obj
 0002:00012ee0       ??_7KafkaConsumerConsume@Workers@NodeKafka@@6B@ 0000000180051ee0     workers.obj
 0002:00012f18       ??_7AdminClientDeleteTopic@Workers@NodeKafka@@6B@ 0000000180051f18     workers.obj
 0002:00012f50       ??_7KafkaConsumerCommitted@Workers@NodeKafka@@6B@ 0000000180051f50     workers.obj
 0002:00012f88       ??_7KafkaConsumerConsumeNum@Workers@NodeKafka@@6B@ 0000000180051f88     workers.obj
 0002:00012fc0       ??_7ProducerDisconnect@Workers@NodeKafka@@6B@ 0000000180051fc0     workers.obj
 0002:00012ff8       ??_7ConnectionQueryWatermarkOffsets@Workers@NodeKafka@@6B@ 0000000180051ff8     workers.obj
 0002:00013030       ??_7ConnectionMetadata@Workers@NodeKafka@@6B@ 0000000180052030     workers.obj
 0002:00013068       ??_7MessageWorker@Workers@NodeKafka@@6B@ 0000000180052068     workers.obj
 0002:000130b0       ??_7KafkaConsumerConnect@Workers@NodeKafka@@6B@ 00000001800520b0     workers.obj
 0002:000130e8       ??_7OffsetsForTimes@Handle@Workers@NodeKafka@@6B@ 00000001800520e8     workers.obj
 0002:00013120       ??_7AdminClient@NodeKafka@@6B@ 0000000180052120     admin.obj
 0002:00013148       ??_C@_0M@EFEMMFBD@AdminClient@ 0000000180052148     admin.obj
 0002:00013158       ??_C@_0M@BOHOAIIL@createTopic@ 0000000180052158     admin.obj
 0002:00013168       ??_C@_0M@EMNCEKIK@deleteTopic@ 0000000180052168     admin.obj
 0002:00013178       ??_C@_0BB@GLALLCEL@createPartitions@ 0000000180052178     admin.obj
 0002:00013190       ??_C@_0CH@MEIDEHEF@You?5must?5supply?5a?5global?5config@ 0000000180052190     admin.obj
 0002:000131b8       ??_C@_0BH@MEBJMCLK@Must?5provide?5?8timeout?8@ 00000001800521b8     admin.obj
 0002:000131d0       ??_C@_0CI@JHACKEKD@Must?5provide?5?8timeout?8?0?5and?5?8to@ 00000001800521d0     admin.obj
 0002:000131f8       ??_C@_0BN@COCOIKPF@Need?5to?5specify?5a?5callback?52@ 00000001800521f8     admin.obj
 0002:00013218       ??_C@_0DL@DEEKKJMH@Must?5provide?5?8totalPartitions?8?0@ 0000000180052218     admin.obj
 0002:00013258       ??_C@_08HCOMDCCD@iojs?4exe@ 0000000180052258     win_delay_load_hook.obj
 0002:00013268       ??_C@_08JDDNMFDB@node?4exe@ 0000000180052268     win_delay_load_hook.obj
 0002:00013278       __pfnDliNotifyHook2        0000000180052278     win_delay_load_hook.obj
 0002:00013280       __real@43f0000000000000    0000000180052280     callbacks.obj
 0002:00013288       __real@bff0000000000000    0000000180052288     callbacks.obj
 0002:00013290       __xmm@000000000000000f0000000000000000 0000000180052290     kafka-consumer.obj
 0002:000132a8       ??_7bad_typeid@std@@6B@    00000001800522a8     libvcruntime:rtti.obj
 0002:000132c0       ??_7__non_rtti_object@std@@6B@ 00000001800522c0     libvcruntime:rtti.obj
 0002:000132d0       ??_C@_0CB@CGKGGDFI@Access?5violation?5?9?5no?5RTTI?5data@ 00000001800522d0     libvcruntime:rtti.obj
 0002:000132f8       ??_C@_0BC@JNJNLHBP@Bad?5dynamic_cast?$CB@ 00000001800522f8     libvcruntime:rtti.obj
 0002:00013380       ??_R4exception@std@@6B@    0000000180052380     libcpmt:xthrow.obj
 0002:000133a8       ??_R3exception@std@@8      00000001800523a8     libcpmt:xthrow.obj
 0002:000133c0       ??_R2exception@std@@8      00000001800523c0     libcpmt:xthrow.obj
 0002:000133d0       ??_R1A@?0A@EA@exception@std@@8 00000001800523d0     libcpmt:xthrow.obj
 0002:000133f8       ??_R4bad_alloc@std@@6B@    00000001800523f8     libcpmt:xthrow.obj
 0002:00013420       ??_R3bad_alloc@std@@8      0000000180052420     libcpmt:xthrow.obj
 0002:00013438       ??_R2bad_alloc@std@@8      0000000180052438     libcpmt:xthrow.obj
 0002:00013450       ??_R1A@?0A@EA@bad_alloc@std@@8 0000000180052450     libcpmt:xthrow.obj
 0002:00013478       ??_R4logic_error@std@@6B@  0000000180052478     libcpmt:xthrow.obj
 0002:000134a0       ??_R3logic_error@std@@8    00000001800524a0     libcpmt:xthrow.obj
 0002:000134b8       ??_R2logic_error@std@@8    00000001800524b8     libcpmt:xthrow.obj
 0002:000134d0       ??_R1A@?0A@EA@logic_error@std@@8 00000001800524d0     libcpmt:xthrow.obj
 0002:000134f8       ??_R4length_error@std@@6B@ 00000001800524f8     libcpmt:xthrow.obj
 0002:00013520       ??_R3length_error@std@@8   0000000180052520     libcpmt:xthrow.obj
 0002:00013538       ??_R2length_error@std@@8   0000000180052538     libcpmt:xthrow.obj
 0002:00013558       ??_R1A@?0A@EA@length_error@std@@8 0000000180052558     libcpmt:xthrow.obj
 0002:00013580       ??_R4_Locimp@locale@std@@6B@ 0000000180052580     libcpmt:locale0.obj
 0002:000135a8       ??_R3_Locimp@locale@std@@8 00000001800525a8     libcpmt:locale0.obj
 0002:000135c0       ??_R2_Locimp@locale@std@@8 00000001800525c0     libcpmt:locale0.obj
 0002:000135e8       ??_R1A@?0A@EA@_Locimp@locale@std@@8 00000001800525e8     libcpmt:locale0.obj
 0002:00013610       ??_R4ios_base@std@@6B@     0000000180052610     libcpmt:cerr.obj
 0002:00013638       ??_R3ios_base@std@@8       0000000180052638     libcpmt:cerr.obj
 0002:00013650       ??_R2ios_base@std@@8       0000000180052650     libcpmt:cerr.obj
 0002:00013668       ??_R1A@?0A@EA@ios_base@std@@8 0000000180052668     libcpmt:cerr.obj
 0002:00013690       ??_R17?0A@EA@?$_Iosb@H@std@@8 0000000180052690     libcpmt:cerr.obj
 0002:000136b8       ??_R3?$_Iosb@H@std@@8      00000001800526b8     libcpmt:cerr.obj
 0002:000136d0       ??_R2?$_Iosb@H@std@@8      00000001800526d0     libcpmt:cerr.obj
 0002:000136e0       ??_R1A@?0A@EA@?$_Iosb@H@std@@8 00000001800526e0     libcpmt:cerr.obj
 0002:00013708       ??_R4?$basic_ios@DU?$char_traits@D@std@@@std@@6B@ 0000000180052708     libcpmt:cerr.obj
 0002:00013730       ??_R3?$basic_ios@DU?$char_traits@D@std@@@std@@8 0000000180052730     libcpmt:cerr.obj
 0002:00013748       ??_R2?$basic_ios@DU?$char_traits@D@std@@@std@@8 0000000180052748     libcpmt:cerr.obj
 0002:00013768       ??_R1A@?0A@EA@?$basic_ios@DU?$char_traits@D@std@@@std@@8 0000000180052768     libcpmt:cerr.obj
 0002:00013790       ??_R4?$basic_streambuf@DU?$char_traits@D@std@@@std@@6B@ 0000000180052790     libcpmt:cerr.obj
 0002:000137b8       ??_R3?$basic_streambuf@DU?$char_traits@D@std@@@std@@8 00000001800527b8     libcpmt:cerr.obj
 0002:000137d0       ??_R2?$basic_streambuf@DU?$char_traits@D@std@@@std@@8 00000001800527d0     libcpmt:cerr.obj
 0002:000137e0       ??_R1A@?0A@EA@?$basic_streambuf@DU?$char_traits@D@std@@@std@@8 00000001800527e0     libcpmt:cerr.obj
 0002:00013808       ??_R4?$basic_ostream@DU?$char_traits@D@std@@@std@@6B@ 0000000180052808     libcpmt:cerr.obj
 0002:00013830       ??_R3?$basic_ostream@DU?$char_traits@D@std@@@std@@8 0000000180052830     libcpmt:cerr.obj
 0002:00013848       ??_R2?$basic_ostream@DU?$char_traits@D@std@@@std@@8 0000000180052848     libcpmt:cerr.obj
 0002:00013870       ??_R1A@?0A@EA@?$basic_ostream@DU?$char_traits@D@std@@@std@@8 0000000180052870     libcpmt:cerr.obj
 0002:00013898       ??_R1A@A@3FA@?$basic_ios@DU?$char_traits@D@std@@@std@@8 0000000180052898     libcpmt:cerr.obj
 0002:000138c0       ??_R1A@A@3EA@ios_base@std@@8 00000001800528c0     libcpmt:cerr.obj
 0002:000138e8       ??_R17A@3EA@?$_Iosb@H@std@@8 00000001800528e8     libcpmt:cerr.obj
 0002:00013910       ??_R4?$basic_filebuf@DU?$char_traits@D@std@@@std@@6B@ 0000000180052910     libcpmt:cerr.obj
 0002:00013938       ??_R3?$basic_filebuf@DU?$char_traits@D@std@@@std@@8 0000000180052938     libcpmt:cerr.obj
 0002:00013950       ??_R2?$basic_filebuf@DU?$char_traits@D@std@@@std@@8 0000000180052950     libcpmt:cerr.obj
 0002:00013968       ??_R1A@?0A@EA@?$basic_filebuf@DU?$char_traits@D@std@@@std@@8 0000000180052968     libcpmt:cerr.obj
 0002:00013990       ??_R4bad_cast@std@@6B@     0000000180052990     libcpmt:cerr.obj
 0002:000139b8       ??_R3bad_cast@std@@8       00000001800529b8     libcpmt:cerr.obj
 0002:000139d0       ??_R2bad_cast@std@@8       00000001800529d0     libcpmt:cerr.obj
 0002:000139e8       ??_R1A@?0A@EA@bad_cast@std@@8 00000001800529e8     libcpmt:cerr.obj
 0002:00013a10       ??_R3codecvt_base@std@@8   0000000180052a10     libcpmt:cerr.obj
 0002:00013a28       ??_R2codecvt_base@std@@8   0000000180052a28     libcpmt:cerr.obj
 0002:00013a50       ??_R1A@?0A@EA@codecvt_base@std@@8 0000000180052a50     libcpmt:cerr.obj
 0002:00013a78       ??_R4?$codecvt@DDU_Mbstatet@@@std@@6B@ 0000000180052a78     libcpmt:cerr.obj
 0002:00013aa0       ??_R3?$codecvt@DDU_Mbstatet@@@std@@8 0000000180052aa0     libcpmt:cerr.obj
 0002:00013ab8       ??_R2?$codecvt@DDU_Mbstatet@@@std@@8 0000000180052ab8     libcpmt:cerr.obj
 0002:00013ae8       ??_R1A@?0A@EA@?$codecvt@DDU_Mbstatet@@@std@@8 0000000180052ae8     libcpmt:cerr.obj
 0002:00013b10       ??_R4type_info@@6B@        0000000180052b10     LIBCMT:std_type_info_static.obj
 0002:00013b38       ??_R3type_info@@8          0000000180052b38     LIBCMT:std_type_info_static.obj
 0002:00013b50       ??_R2type_info@@8          0000000180052b50     LIBCMT:std_type_info_static.obj
 0002:00013b60       ??_R1A@?0A@EA@type_info@@8 0000000180052b60     LIBCMT:std_type_info_static.obj
 0002:00013b88       ??_R4bad_array_new_length@std@@6B@ 0000000180052b88     LIBCMT:throw_bad_alloc.obj
 0002:00013bb0       ??_R3bad_array_new_length@std@@8 0000000180052bb0     LIBCMT:throw_bad_alloc.obj
 0002:00013bc8       ??_R2bad_array_new_length@std@@8 0000000180052bc8     LIBCMT:throw_bad_alloc.obj
 0002:00013be8       ??_R1A@?0A@EA@bad_array_new_length@std@@8 0000000180052be8     LIBCMT:throw_bad_alloc.obj
 0002:00013c10       ??_R4bad_exception@std@@6B@ 0000000180052c10     libvcruntime:frame.obj
 0002:00013c38       ??_R3bad_exception@std@@8  0000000180052c38     libvcruntime:frame.obj
 0002:00013c50       ??_R2bad_exception@std@@8  0000000180052c50     libvcruntime:frame.obj
 0002:00013c68       ??_R1A@?0A@EA@bad_exception@std@@8 0000000180052c68     libvcruntime:frame.obj
 0002:00013c90       ??_R1A@?0A@EA@EventCb@RdKafka@@8 0000000180052c90     callbacks.obj
 0002:00013cb8       ??_R1A@?0A@EA@Partitioner@Callbacks@NodeKafka@@8 0000000180052cb8     callbacks.obj
 0002:00013ce0       ??_R4EventDispatcher@Callbacks@NodeKafka@@6B@ 0000000180052ce0     callbacks.obj
 0002:00013d08       ??_R1A@?0A@EA@Event@Callbacks@NodeKafka@@8 0000000180052d08     callbacks.obj
 0002:00013d30       ??_R3RebalanceCb@RdKafka@@8 0000000180052d30     callbacks.obj
 0002:00013d48       ??_R1A@?0A@EA@OffsetCommitDispatcher@Callbacks@NodeKafka@@8 0000000180052d48     callbacks.obj
 0002:00013d70       ??_R3Rebalance@Callbacks@NodeKafka@@8 0000000180052d70     callbacks.obj
 0002:00013d88       ??_R3OffsetCommit@Callbacks@NodeKafka@@8 0000000180052d88     callbacks.obj
 0002:00013da0       ??_R3DeliveryReportDispatcher@Callbacks@NodeKafka@@8 0000000180052da0     callbacks.obj
 0002:00013db8       ??_R2Dispatcher@Callbacks@NodeKafka@@8 0000000180052db8     callbacks.obj
 0002:00013dc8       ??_R1A@?0A@EA@RebalanceCb@RdKafka@@8 0000000180052dc8     callbacks.obj
 0002:00013df0       ??_R1A@?0A@EA@DeliveryReportCb@RdKafka@@8 0000000180052df0     callbacks.obj
 0002:00013e18       ??_R3Dispatcher@Callbacks@NodeKafka@@8 0000000180052e18     callbacks.obj
 0002:00013e30       ??_R1A@?0A@EA@EventDispatcher@Callbacks@NodeKafka@@8 0000000180052e30     callbacks.obj
 0002:00013e58       ??_R4DeliveryReportDispatcher@Callbacks@NodeKafka@@6B@ 0000000180052e58     callbacks.obj
 0002:00013e80       ??_R1A@?0A@EA@RebalanceDispatcher@Callbacks@NodeKafka@@8 0000000180052e80     callbacks.obj
 0002:00013ea8       ??_R2Delivery@Callbacks@NodeKafka@@8 0000000180052ea8     callbacks.obj
 0002:00013ec0       ??_R2DeliveryReportDispatcher@Callbacks@NodeKafka@@8 0000000180052ec0     callbacks.obj
 0002:00013ed8       ??_R3Delivery@Callbacks@NodeKafka@@8 0000000180052ed8     callbacks.obj
 0002:00013ef0       ??_R2OffsetCommitDispatcher@Callbacks@NodeKafka@@8 0000000180052ef0     callbacks.obj
 0002:00013f08       ??_R1A@?0A@EA@OffsetCommit@Callbacks@NodeKafka@@8 0000000180052f08     callbacks.obj
 0002:00013f30       ??_R1A@?0A@EA@OffsetCommitCb@RdKafka@@8 0000000180052f30     callbacks.obj
 0002:00013f58       ??_R3OffsetCommitCb@RdKafka@@8 0000000180052f58     callbacks.obj
 0002:00013f70       ??_R2OffsetCommit@Callbacks@NodeKafka@@8 0000000180052f70     callbacks.obj
 0002:00013f88       ??_R1A@?0A@EA@Dispatcher@Callbacks@NodeKafka@@8 0000000180052f88     callbacks.obj
 0002:00013fb0       ??_R1A@?0A@EA@DeliveryReportDispatcher@Callbacks@NodeKafka@@8 0000000180052fb0     callbacks.obj
 0002:00013fd8       ??_R1A@?0A@EA@PartitionerCb@RdKafka@@8 0000000180052fd8     callbacks.obj
 0002:00014000       ??_R4OffsetCommitDispatcher@Callbacks@NodeKafka@@6B@ 0000000180053000     callbacks.obj
 0002:00014028       ??_R2Rebalance@Callbacks@NodeKafka@@8 0000000180053028     callbacks.obj
 0002:00014040       ??_R2Partitioner@Callbacks@NodeKafka@@8 0000000180053040     callbacks.obj
 0002:00014058       ??_R2PartitionerCb@RdKafka@@8 0000000180053058     callbacks.obj
 0002:00014068       ??_R4OffsetCommit@Callbacks@NodeKafka@@6B@ 0000000180053068     callbacks.obj
 0002:00014090       ??_R1A@?0A@EA@Delivery@Callbacks@NodeKafka@@8 0000000180053090     callbacks.obj
 0002:000140b8       ??_R3OffsetCommitDispatcher@Callbacks@NodeKafka@@8 00000001800530b8     callbacks.obj
 0002:000140d0       ??_R3EventDispatcher@Callbacks@NodeKafka@@8 00000001800530d0     callbacks.obj
 0002:000140e8       ??_R4Rebalance@Callbacks@NodeKafka@@6B@ 00000001800530e8     callbacks.obj
 0002:00014110       ??_R2DeliveryReportCb@RdKafka@@8 0000000180053110     callbacks.obj
 0002:00014120       ??_R2RebalanceDispatcher@Callbacks@NodeKafka@@8 0000000180053120     callbacks.obj
 0002:00014138       ??_R4RebalanceDispatcher@Callbacks@NodeKafka@@6B@ 0000000180053138     callbacks.obj
 0002:00014160       ??_R3DeliveryReportCb@RdKafka@@8 0000000180053160     callbacks.obj
 0002:00014178       ??_R3RebalanceDispatcher@Callbacks@NodeKafka@@8 0000000180053178     callbacks.obj
 0002:00014190       ??_R1A@?0A@EA@Rebalance@Callbacks@NodeKafka@@8 0000000180053190     callbacks.obj
 0002:000141b8       ??_R3Event@Callbacks@NodeKafka@@8 00000001800531b8     callbacks.obj
 0002:000141d0       ??_R3PartitionerCb@RdKafka@@8 00000001800531d0     callbacks.obj
 0002:000141e8       ??_R4Dispatcher@Callbacks@NodeKafka@@6B@ 00000001800531e8     callbacks.obj
 0002:00014210       ??_R4Partitioner@Callbacks@NodeKafka@@6B@ 0000000180053210     callbacks.obj
 0002:00014238       ??_R2EventDispatcher@Callbacks@NodeKafka@@8 0000000180053238     callbacks.obj
 0002:00014250       ??_R2RebalanceCb@RdKafka@@8 0000000180053250     callbacks.obj
 0002:00014260       ??_R4Delivery@Callbacks@NodeKafka@@6B@ 0000000180053260     callbacks.obj
 0002:00014288       ??_R3Partitioner@Callbacks@NodeKafka@@8 0000000180053288     callbacks.obj
 0002:000142a0       ??_R2OffsetCommitCb@RdKafka@@8 00000001800532a0     callbacks.obj
 0002:000142b0       ??_R4Event@Callbacks@NodeKafka@@6B@ 00000001800532b0     callbacks.obj
 0002:000142d8       ??_R2Event@Callbacks@NodeKafka@@8 00000001800532d8     callbacks.obj
 0002:000142f0       ??_R2EventCb@RdKafka@@8    00000001800532f0     callbacks.obj
 0002:00014300       ??_R3EventCb@RdKafka@@8    0000000180053300     callbacks.obj
 0002:00014318       ??_R2system_error@std@@8   0000000180053318     common.obj
 0002:00014340       ??_R1A@?0A@EA@system_error@std@@8 0000000180053340     common.obj
 0002:00014368       ??_R3?$ctype@D@std@@8      0000000180053368     common.obj
 0002:00014380       ??_R1A@?0A@EA@_Iostream_error_category@std@@8 0000000180053380     common.obj
 0002:000143a8       ??_R4runtime_error@std@@6B@ 00000001800533a8     common.obj
 0002:000143d0       ??_R4_System_error@std@@6B@ 00000001800533d0     common.obj
 0002:000143f8       ??_R3_Facet_base@std@@8    00000001800533f8     common.obj
 0002:00014410       ??_R3_Crt_new_delete@std@@8 0000000180053410     common.obj
 0002:00014428       ??_R1A@?0A@EA@runtime_error@std@@8 0000000180053428     common.obj
 0002:00014450       ??_R2_System_error@std@@8  0000000180053450     common.obj
 0002:00014470       ??_R3exception@stdext@@8   0000000180053470     common.obj
 0002:00014488       ??_R4_Iostream_error_category@std@@6B@ 0000000180053488     common.obj
 0002:000144b0       ??_R4system_error@std@@6B@ 00000001800534b0     common.obj
 0002:000144d8       ??_R1A@?0A@EA@_Generic_error_category@std@@8 00000001800534d8     common.obj
 0002:00014500       ??_R1A@?0A@EA@_Facet_base@std@@8 0000000180053500     common.obj
 0002:00014528       ??_R3_System_error@std@@8  0000000180053528     common.obj
 0002:00014540       ??_R3_Iostream_error_category@std@@8 0000000180053540     common.obj
 0002:00014558       ??_R17?0A@EA@_Crt_new_delete@std@@8 0000000180053558     common.obj
 0002:00014580       ??_R4failure@ios_base@std@@6B@ 0000000180053580     common.obj
 0002:000145a8       ??_R4exception@stdext@@6B@ 00000001800535a8     common.obj
 0002:000145d0       ??_R3_Generic_error_category@std@@8 00000001800535d0     common.obj
 0002:000145e8       ??_R2_Iostream_error_category@std@@8 00000001800535e8     common.obj
 0002:00014608       ??_R2error_category@std@@8 0000000180053608     common.obj
 0002:00014618       ??_R1A@?0A@EA@facet@locale@std@@8 0000000180053618     common.obj
 0002:00014640       ??_R2exception@stdext@@8   0000000180053640     common.obj
 0002:00014650       ??_R2failure@ios_base@std@@8 0000000180053650     common.obj
 0002:00014680       ??_R3failure@ios_base@std@@8 0000000180053680     common.obj
 0002:00014698       ??_R2?$ctype@D@std@@8      0000000180053698     common.obj
 0002:000146c8       ??_R1A@?0A@EA@failure@ios_base@std@@8 00000001800536c8     common.obj
 0002:000146f0       ??_R3facet@locale@std@@8   00000001800536f0     common.obj
 0002:00014708       ??_R3ctype_base@std@@8     0000000180053708     common.obj
 0002:00014720       ??_R2_Generic_error_category@std@@8 0000000180053720     common.obj
 0002:00014738       ??_R1A@?0A@EA@_System_error@std@@8 0000000180053738     common.obj
 0002:00014760       ??_R3error_category@std@@8 0000000180053760     common.obj
 0002:00014778       ??_R1A@?0A@EA@_Crt_new_delete@std@@8 0000000180053778     common.obj
 0002:000147a0       ??_R4_Facet_base@std@@6B@  00000001800537a0     common.obj
 0002:000147c8       ??_R2runtime_error@std@@8  00000001800537c8     common.obj
 0002:000147e0       ??_R1A@?0A@EA@ctype_base@std@@8 00000001800537e0     common.obj
 0002:00014808       ??_R2_Crt_new_delete@std@@8 0000000180053808     common.obj
 0002:00014818       ??_R1A@?0A@EA@?$ctype@D@std@@8 0000000180053818     common.obj
 0002:00014840       ??_R1A@?0A@EA@exception@stdext@@8 0000000180053840     common.obj
 0002:00014868       ??_R3system_error@std@@8   0000000180053868     common.obj
 0002:00014880       ??_R2_Facet_base@std@@8    0000000180053880     common.obj
 0002:00014890       ??_R2facet@locale@std@@8   0000000180053890     common.obj
 0002:000148b0       ??_R4?$ctype@D@std@@6B@    00000001800538b0     common.obj
 0002:000148d8       ??_R3runtime_error@std@@8  00000001800538d8     common.obj
 0002:000148f0       ??_R2ctype_base@std@@8     00000001800538f0     common.obj
 0002:00014918       ??_R1A@?0A@EA@error_category@std@@8 0000000180053918     common.obj
 0002:00014940       ??_R4ObjectWrap@Nan@@6B@   0000000180053940     connection.obj
 0002:00014968       ??_R1A@?0A@EA@ObjectWrap@Nan@@8 0000000180053968     connection.obj
 0002:00014990       ??_R3Connection@NodeKafka@@8 0000000180053990     connection.obj
 0002:000149a8       ??_R4Connection@NodeKafka@@6B@ 00000001800539a8     connection.obj
 0002:000149d0       ??_R2Connection@NodeKafka@@8 00000001800539d0     connection.obj
 0002:000149e8       ??_R2ObjectWrap@Nan@@8     00000001800539e8     connection.obj
 0002:000149f8       ??_R1A@?0A@EA@Connection@NodeKafka@@8 00000001800539f8     connection.obj
 0002:00014a20       ??_R3ObjectWrap@Nan@@8     0000000180053a20     connection.obj
 0002:00014a38       ??_R3KafkaConsumer@NodeKafka@@8 0000000180053a38     kafka-consumer.obj
 0002:00014a50       ??_R4KafkaConsumer@NodeKafka@@6B@ 0000000180053a50     kafka-consumer.obj
 0002:00014a78       ??_R2KafkaConsumer@NodeKafka@@8 0000000180053a78     kafka-consumer.obj
 0002:00014a98       ??_R1A@?0A@EA@KafkaConsumer@NodeKafka@@8 0000000180053a98     kafka-consumer.obj
 0002:00014ac0       ??_R2Producer@NodeKafka@@8 0000000180053ac0     producer.obj
 0002:00014ae0       ??_R3Producer@NodeKafka@@8 0000000180053ae0     producer.obj
 0002:00014af8       ??_R1A@?0A@EA@Producer@NodeKafka@@8 0000000180053af8     producer.obj
 0002:00014b20       ??_R4Producer@NodeKafka@@6B@ 0000000180053b20     producer.obj
 0002:00014b48       ??_R2Topic@NodeKafka@@8    0000000180053b48     topic.obj
 0002:00014b60       ??_R3Topic@NodeKafka@@8    0000000180053b60     topic.obj
 0002:00014b78       ??_R1A@?0A@EA@Topic@NodeKafka@@8 0000000180053b78     topic.obj
 0002:00014ba0       ??_R4Topic@NodeKafka@@6B@  0000000180053ba0     topic.obj
 0002:00014bc8       ??_R2AsyncWorker@Nan@@8    0000000180053bc8     workers.obj
 0002:00014bd8       ??_R3OffsetsForTimes@Handle@Workers@NodeKafka@@8 0000000180053bd8     workers.obj
 0002:00014bf0       ??_R1A@?0A@EA@KafkaConsumerCommitted@Workers@NodeKafka@@8 0000000180053bf0     workers.obj
 0002:00014c18       ??_R2KafkaConsumerDisconnect@Workers@NodeKafka@@8 0000000180053c18     workers.obj
 0002:00014c38       ??_R3ConnectionQueryWatermarkOffsets@Workers@NodeKafka@@8 0000000180053c38     workers.obj
 0002:00014c50       ??_R3KafkaConsumerConsumeNum@Workers@NodeKafka@@8 0000000180053c50     workers.obj
 0002:00014c68       ??_R2MessageWorker@Workers@NodeKafka@@8 0000000180053c68     workers.obj
 0002:00014c88       ??_R4AdminClientCreatePartitions@Workers@NodeKafka@@6B@ 0000000180053c88     workers.obj
 0002:00014cb0       ??_R4KafkaConsumerConsumeNum@Workers@NodeKafka@@6B@ 0000000180053cb0     workers.obj
 0002:00014cd8       ??_R4AdminClientDeleteTopic@Workers@NodeKafka@@6B@ 0000000180053cd8     workers.obj
 0002:00014d00       ??_R1A@?0A@EA@ProducerFlush@Workers@NodeKafka@@8 0000000180053d00     workers.obj
 0002:00014d28       ??_R1A@?0A@EA@ConnectionMetadata@Workers@NodeKafka@@8 0000000180053d28     workers.obj
 0002:00014d50       ??_R2KafkaConsumerConnect@Workers@NodeKafka@@8 0000000180053d50     workers.obj
 0002:00014d70       ??_R4KafkaConsumerSeek@Workers@NodeKafka@@6B@ 0000000180053d70     workers.obj
 0002:00014d98       ??_R4ProducerFlush@Workers@NodeKafka@@6B@ 0000000180053d98     workers.obj
 0002:00014dc0       ??_R3AsyncWorker@Nan@@8    0000000180053dc0     workers.obj
 0002:00014dd8       ??_R3AdminClientCreateTopic@Workers@NodeKafka@@8 0000000180053dd8     workers.obj
 0002:00014df0       ??_R4KafkaConsumerConsume@Workers@NodeKafka@@6B@ 0000000180053df0     workers.obj
 0002:00014e18       ??_R3ConnectionMetadata@Workers@NodeKafka@@8 0000000180053e18     workers.obj
 0002:00014e30       ??_R4AsyncWorker@Nan@@6B@  0000000180053e30     workers.obj
 0002:00014e58       ??_R1A@?0A@EA@ProducerConnect@Workers@NodeKafka@@8 0000000180053e58     workers.obj
 0002:00014e80       ??_R1A@?0A@EA@KafkaConsumerConsume@Workers@NodeKafka@@8 0000000180053e80     workers.obj
 0002:00014ea8       ??_R1A@?0A@EA@AdminClientDeleteTopic@Workers@NodeKafka@@8 0000000180053ea8     workers.obj
 0002:00014ed0       ??_R1A@?0A@EA@AsyncWorker@Nan@@8 0000000180053ed0     workers.obj
 0002:00014ef8       ??_R2ConnectionQueryWatermarkOffsets@Workers@NodeKafka@@8 0000000180053ef8     workers.obj
 0002:00014f18       ??_R4OffsetsForTimes@Handle@Workers@NodeKafka@@6B@ 0000000180053f18     workers.obj
 0002:00014f40       ??_R1A@?0A@EA@KafkaConsumerConsumeLoop@Workers@NodeKafka@@8 0000000180053f40     workers.obj
 0002:00014f68       ??_R1A@?0A@EA@KafkaConsumerSeek@Workers@NodeKafka@@8 0000000180053f68     workers.obj
 0002:00014f90       ??_R3KafkaConsumerSeek@Workers@NodeKafka@@8 0000000180053f90     workers.obj
 0002:00014fa8       ??_R4KafkaConsumerCommitted@Workers@NodeKafka@@6B@ 0000000180053fa8     workers.obj
 0002:00014fd0       ??_R2KafkaConsumerSeek@Workers@NodeKafka@@8 0000000180053fd0     workers.obj
 0002:00014ff0       ??_R3KafkaConsumerConsumeLoop@Workers@NodeKafka@@8 0000000180053ff0     workers.obj
 0002:00015008       ??_R2ProducerDisconnect@Workers@NodeKafka@@8 0000000180054008     workers.obj
 0002:00015028       ??_R1A@?0A@EA@ProducerDisconnect@Workers@NodeKafka@@8 0000000180054028     workers.obj
 0002:00015050       ??_R4ConnectionMetadata@Workers@NodeKafka@@6B@ 0000000180054050     workers.obj
 0002:00015078       ??_R4KafkaConsumerConsumeLoop@Workers@NodeKafka@@6B@ 0000000180054078     workers.obj
 0002:000150a0       ??_R1A@?0A@EA@AdminClientCreatePartitions@Workers@NodeKafka@@8 00000001800540a0     workers.obj
 0002:000150c8       ??_R1A@?0A@EA@AdminClientCreateTopic@Workers@NodeKafka@@8 00000001800540c8     workers.obj
 0002:000150f0       ??_R1A@?0A@EA@OffsetsForTimes@Handle@Workers@NodeKafka@@8 00000001800540f0     workers.obj
 0002:00015118       ??_R2AdminClientDeleteTopic@Workers@NodeKafka@@8 0000000180054118     workers.obj
 0002:00015138       ??_R2ProducerFlush@Workers@NodeKafka@@8 0000000180054138     workers.obj
 0002:00015158       ??_R2ErrorAwareWorker@Workers@NodeKafka@@8 0000000180054158     workers.obj
 0002:00015170       ??_R3ProducerFlush@Workers@NodeKafka@@8 0000000180054170     workers.obj
 0002:00015188       ??_R2KafkaConsumerConsumeLoop@Workers@NodeKafka@@8 0000000180054188     workers.obj
 0002:000151b0       ??_R3MessageWorker@Workers@NodeKafka@@8 00000001800541b0     workers.obj
 0002:000151c8       ??_R1A@?0A@EA@KafkaConsumerConsumeNum@Workers@NodeKafka@@8 00000001800541c8     workers.obj
 0002:000151f0       ??_R1A@?0A@EA@ConnectionQueryWatermarkOffsets@Workers@NodeKafka@@8 00000001800541f0     workers.obj
 0002:00015218       ??_R4KafkaConsumerConnect@Workers@NodeKafka@@6B@ 0000000180054218     workers.obj
 0002:00015240       ??_R4KafkaConsumerDisconnect@Workers@NodeKafka@@6B@ 0000000180054240     workers.obj
 0002:00015268       ??_R3KafkaConsumerCommitted@Workers@NodeKafka@@8 0000000180054268     workers.obj
 0002:00015280       ??_R1A@?0A@EA@MessageWorker@Workers@NodeKafka@@8 0000000180054280     workers.obj
 0002:000152a8       ??_R1A@?0A@EA@KafkaConsumerDisconnect@Workers@NodeKafka@@8 00000001800542a8     workers.obj
 0002:000152d0       ??_R2ProducerConnect@Workers@NodeKafka@@8 00000001800542d0     workers.obj
 0002:000152f0       ??_R2AdminClientCreateTopic@Workers@NodeKafka@@8 00000001800542f0     workers.obj
 0002:00015310       ??_R2KafkaConsumerCommitted@Workers@NodeKafka@@8 0000000180054310     workers.obj
 0002:00015330       ??_R2KafkaConsumerConsumeNum@Workers@NodeKafka@@8 0000000180054330     workers.obj
 0002:00015350       ??_R3KafkaConsumerDisconnect@Workers@NodeKafka@@8 0000000180054350     workers.obj
 0002:00015368       ??_R4ProducerDisconnect@Workers@NodeKafka@@6B@ 0000000180054368     workers.obj
 0002:00015390       ??_R3AdminClientDeleteTopic@Workers@NodeKafka@@8 0000000180054390     workers.obj
 0002:000153a8       ??_R3ProducerDisconnect@Workers@NodeKafka@@8 00000001800543a8     workers.obj
 0002:000153c0       ??_R4MessageWorker@Workers@NodeKafka@@6B@ 00000001800543c0     workers.obj
 0002:000153e8       ??_R3KafkaConsumerConsume@Workers@NodeKafka@@8 00000001800543e8     workers.obj
 0002:00015400       ??_R2AdminClientCreatePartitions@Workers@NodeKafka@@8 0000000180054400     workers.obj
 0002:00015420       ??_R3ProducerConnect@Workers@NodeKafka@@8 0000000180054420     workers.obj
 0002:00015438       ??_R2OffsetsForTimes@Handle@Workers@NodeKafka@@8 0000000180054438     workers.obj
 0002:00015458       ??_R4ConnectionQueryWatermarkOffsets@Workers@NodeKafka@@6B@ 0000000180054458     workers.obj
 0002:00015480       ??_R3KafkaConsumerConnect@Workers@NodeKafka@@8 0000000180054480     workers.obj
 0002:00015498       ??_R1A@?0A@EA@KafkaConsumerConnect@Workers@NodeKafka@@8 0000000180054498     workers.obj
 0002:000154c0       ??_R4AdminClientCreateTopic@Workers@NodeKafka@@6B@ 00000001800544c0     workers.obj
 0002:000154e8       ??_R2KafkaConsumerConsume@Workers@NodeKafka@@8 00000001800544e8     workers.obj
 0002:00015508       ??_R4ErrorAwareWorker@Workers@NodeKafka@@6B@ 0000000180054508     workers.obj
 0002:00015530       ??_R2ConnectionMetadata@Workers@NodeKafka@@8 0000000180054530     workers.obj
 0002:00015550       ??_R3AdminClientCreatePartitions@Workers@NodeKafka@@8 0000000180054550     workers.obj
 0002:00015568       ??_R1A@?0A@EA@ErrorAwareWorker@Workers@NodeKafka@@8 0000000180054568     workers.obj
 0002:00015590       ??_R4ProducerConnect@Workers@NodeKafka@@6B@ 0000000180054590     workers.obj
 0002:000155b8       ??_R3ErrorAwareWorker@Workers@NodeKafka@@8 00000001800545b8     workers.obj
 0002:000155d0       ??_R1A@?0A@EA@AdminClient@NodeKafka@@8 00000001800545d0     admin.obj
 0002:000155f8       ??_R4AdminClient@NodeKafka@@6B@ 00000001800545f8     admin.obj
 0002:00015620       ??_R3AdminClient@NodeKafka@@8 0000000180054620     admin.obj
 0002:00015638       ??_R2AdminClient@NodeKafka@@8 0000000180054638     admin.obj
 0002:00015658       ??_R4bad_typeid@std@@6B@   0000000180054658     libvcruntime:rtti.obj
 0002:00015680       ??_R3bad_typeid@std@@8     0000000180054680     libvcruntime:rtti.obj
 0002:00015698       ??_R2bad_typeid@std@@8     0000000180054698     libvcruntime:rtti.obj
 0002:000156b0       ??_R1A@?0A@EA@bad_typeid@std@@8 00000001800546b0     libvcruntime:rtti.obj
 0002:000156d8       ??_R4__non_rtti_object@std@@6B@ 00000001800546d8     libvcruntime:rtti.obj
 0002:00015700       ??_R3__non_rtti_object@std@@8 0000000180054700     libvcruntime:rtti.obj
 0002:00015718       ??_R2__non_rtti_object@std@@8 0000000180054718     libvcruntime:rtti.obj
 0002:00015738       ??_R1A@?0A@EA@__non_rtti_object@std@@8 0000000180054738     libvcruntime:rtti.obj
 0002:00015b70       __rtc_iaa                  0000000180054b70     LIBCMT:initsect.obj
 0002:00015b78       __rtc_izz                  0000000180054b78     LIBCMT:initsect.obj
 0002:00015b80       __rtc_taa                  0000000180054b80     LIBCMT:initsect.obj
 0002:00015b88       __rtc_tzz                  0000000180054b88     LIBCMT:initsect.obj
 0002:00019860       _TI2?AVbad_alloc@std@@     0000000180058860     libcpmt:xthrow.obj
 0002:00019880       _CTA2?AVbad_alloc@std@@    0000000180058880     libcpmt:xthrow.obj
 0002:00019898       _CT??_R0?AVbad_alloc@std@@@8??0bad_alloc@std@@QEAA@AEBV01@@Z24 0000000180058898     libcpmt:xthrow.obj
 0002:000198c0       _CT??_R0?AVexception@std@@@8??0exception@std@@QEAA@AEBV01@@Z24 00000001800588c0     libcpmt:xthrow.obj
 0002:000198e8       _CT??_R0?AVlogic_error@std@@@8??0logic_error@std@@QEAA@AEBV01@@Z24 00000001800588e8     libcpmt:xthrow.obj
 0002:00019910       _TI3?AVlength_error@std@@  0000000180058910     libcpmt:xthrow.obj
 0002:00019930       _CTA3?AVlength_error@std@@ 0000000180058930     libcpmt:xthrow.obj
 0002:00019950       _CT??_R0?AVlength_error@std@@@8??0length_error@std@@QEAA@AEBV01@@Z24 0000000180058950     libcpmt:xthrow.obj
 0002:00019978       _CT??_R0?AVruntime_error@std@@@8??0runtime_error@std@@QEAA@AEBV01@@Z24 0000000180058978     libcpmt:xthrow.obj
 0002:000199a0       _CT??_R0?AVsystem_error@std@@@8??0system_error@std@@QEAA@AEBV01@@Z40 00000001800589a0     libcpmt:xonce.obj
 0002:000199c8       _CT??_R0?AV_System_error@std@@@8??0_System_error@std@@QEAA@AEBV01@@Z40 00000001800589c8     libcpmt:xonce.obj
 0002:000199f0       _TI5?AVfailure@ios_base@std@@ 00000001800589f0     libcpmt:cerr.obj
 0002:00019a10       _CTA5?AVfailure@ios_base@std@@ 0000000180058a10     libcpmt:cerr.obj
 0002:00019a40       _CT??_R0?AVfailure@ios_base@std@@@8??0failure@ios_base@std@@QEAA@AEBV012@@Z40 0000000180058a40     libcpmt:cerr.obj
 0002:00019a68       _TI2?AVbad_cast@std@@      0000000180058a68     libcpmt:cerr.obj
 0002:00019a88       _CTA2?AVbad_cast@std@@     0000000180058a88     libcpmt:cerr.obj
 0002:00019aa0       _CT??_R0?AVbad_cast@std@@@8??0bad_cast@std@@QEAA@AEBV01@@Z24 0000000180058aa0     libcpmt:cerr.obj
 0002:00019ac8       _TI3?AVbad_array_new_length@std@@ 0000000180058ac8     LIBCMT:throw_bad_alloc.obj
 0002:00019ae8       _CTA3?AVbad_array_new_length@std@@ 0000000180058ae8     LIBCMT:throw_bad_alloc.obj
 0002:00019b08       _CT??_R0?AVbad_array_new_length@std@@@8??0bad_array_new_length@std@@QEAA@AEBV01@@Z24 0000000180058b08     LIBCMT:throw_bad_alloc.obj
 0002:00019b30       _TI2?AVbad_exception@std@@ 0000000180058b30     libvcruntime:frame.obj
 0002:00019b50       _CTA2?AVbad_exception@std@@ 0000000180058b50     libvcruntime:frame.obj
 0002:00019b68       _CT??_R0?AVbad_exception@std@@@8??0bad_exception@std@@QEAA@AEBV01@@Z24 0000000180058b68     libvcruntime:frame.obj
 0002:00019b90       _TI3?AV__non_rtti_object@std@@ 0000000180058b90     libvcruntime:rtti.obj
 0002:00019bb0       _CTA3?AV__non_rtti_object@std@@ 0000000180058bb0     libvcruntime:rtti.obj
 0002:00019bd0       _CT??_R0?AV__non_rtti_object@std@@@8??0__non_rtti_object@std@@QEAA@AEBV01@@Z24 0000000180058bd0     libvcruntime:rtti.obj
 0002:00019bf8       _CT??_R0?AVbad_typeid@std@@@8??0bad_typeid@std@@QEAA@AEBV01@@Z24 0000000180058bf8     libvcruntime:rtti.obj
 0002:00019c1c       __DELAY_IMPORT_DESCRIPTOR_node_exe 0000000180058c1c     node:node.exe
 0002:00019c3c       __NULL_DELAY_IMPORT_DESCRIPTOR 0000000180058c3c     node:node.exe
 0002:00019f48       \177node_NULL_THUNK_DATA_DLN 0000000180058f48     node:node.exe
 0002:0001b590       \177node_NULL_THUNK_DATA_DLB 000000018005a590     node:node.exe
 0002:0001b8d8       __IMPORT_DESCRIPTOR_librdkafka 000000018005a8d8     librdkafka:librdkafka.dll
 0002:0001b8ec       __IMPORT_DESCRIPTOR_librdkafkacpp 000000018005a8ec     librdkafkacpp:librdkafkacpp.dll
 0002:0001b900       __IMPORT_DESCRIPTOR_KERNEL32 000000018005a900     kernel32:KERNEL32.dll
 0002:0001b914       __NULL_IMPORT_DESCRIPTOR   000000018005a914     librdkafka:librdkafka.dll
 0003:00000010       ?_PJP_CPP_Copyright@@3PADA 000000018005c010     libcpmt:iosptrs.obj
 0003:00000070       ?_Sync@ios_base@std@@0_NA  000000018005c070     libcpmt:ios.obj
 0003:00000080       __scrt_native_dllmain_reason 000000018005c080     LIBCMT:utility.obj
 0003:00000088       __security_cookie_complement 000000018005c088     LIBCMT:gs_cookie.obj
 0003:00000090       __security_cookie          000000018005c090     LIBCMT:gs_cookie.obj
 0003:00000098       _fltused                   000000018005c098     LIBCMT:fltused.obj
 0003:000000a0       __isa_available            000000018005c0a0     LIBCMT:cpu_disp.obj
 0003:000000a4       __isa_enabled              000000018005c0a4     LIBCMT:cpu_disp.obj
 0003:000000a8       __memcpy_nt_iters          000000018005c0a8     LIBCMT:cpu_disp.obj
 0003:000000c0       __abort_behavior           000000018005c0c0     libucrt:abort.obj
 0003:000000d0       __acrt_lconv_c             000000018005c0d0     libucrt:localeconv.obj
 0003:00000168       __acrt_lconv               000000018005c168     libucrt:localeconv.obj
 0003:00000170       __acrt_lconv_static_decimal 000000018005c170     libucrt:localeconv.obj
 0003:00000174       __acrt_lconv_static_W_decimal 000000018005c174     libucrt:localeconv.obj
 0003:00000180       _iob                       000000018005c180     libucrt:_file.obj
 0003:00000288       _pctype                    000000018005c288     libucrt:ctype.obj
 0003:00000290       _pwctype                   000000018005c290     libucrt:ctype.obj
 0003:000002b0       __mb_cur_max               000000018005c2b0     libucrt:nlsdata.obj
 0003:000002c0       __acrt_initial_locale_data 000000018005c2c0     libucrt:nlsdata.obj
 0003:00000418       __acrt_initial_locale_pointers 000000018005c418     libucrt:nlsdata.obj
 0003:00000428       __acrt_wide_c_locale_string 000000018005c428     libucrt:nlsdata.obj
 0003:00000430       __badioinfo                000000018005c430     libucrt:ioinit.obj
 0003:0000047c       __globallocalestatus       000000018005c47c     libucrt:glstatus.obj
 0003:00000480       _lookuptrailbytes          000000018005c480     libucrt:read.obj
 0003:00000920       __acrt_initial_multibyte_data 000000018005c920     libucrt:mbctype.obj
 0003:00000ba0       ??_R0?AVbad_alloc@std@@@8  000000018005cba0     libcpmt:xthrow.obj
 0003:00000bc8       ??_R0?AVexception@std@@@8  000000018005cbc8     libcpmt:xthrow.obj
 0003:00000bf0       ??_R0?AVlogic_error@std@@@8 000000018005cbf0     libcpmt:xthrow.obj
 0003:00000c18       ??_R0?AVlength_error@std@@@8 000000018005cc18     libcpmt:xthrow.obj
 0003:00000c40       ??_R0?AV_Locimp@locale@std@@@8 000000018005cc40     libcpmt:locale0.obj
 0003:00000c70       ??_R0?AVbad_cast@std@@@8   000000018005cc70     libcpmt:cerr.obj
 0003:00000c98       ??_R0?AVios_base@std@@@8   000000018005cc98     libcpmt:cerr.obj
 0003:00000cc0       ??_R0?AV?$_Iosb@H@std@@@8  000000018005ccc0     libcpmt:cerr.obj
 0003:00000ce8       ??_R0?AV?$basic_ios@DU?$char_traits@D@std@@@std@@@8 000000018005cce8     libcpmt:cerr.obj
 0003:00000d30       ??_R0?AV?$basic_streambuf@DU?$char_traits@D@std@@@std@@@8 000000018005cd30     libcpmt:cerr.obj
 0003:00000d80       ??_R0?AV?$basic_ostream@DU?$char_traits@D@std@@@std@@@8 000000018005cd80     libcpmt:cerr.obj
 0003:00000dd0       ??_R0?AV?$basic_filebuf@DU?$char_traits@D@std@@@std@@@8 000000018005cdd0     libcpmt:cerr.obj
 0003:00000e18       ??_R0?AVcodecvt_base@std@@@8 000000018005ce18     libcpmt:cerr.obj
 0003:00000e40       ??_R0?AV?$codecvt@DDU_Mbstatet@@@std@@@8 000000018005ce40     libcpmt:cerr.obj
 0003:00000e78       ??_R0?AVtype_info@@@8      000000018005ce78     LIBCMT:std_type_info_static.obj
 0003:00000e98       ??_R0?AVbad_array_new_length@std@@@8 000000018005ce98     LIBCMT:throw_bad_alloc.obj
 0003:00000ec8       ??_R0?AVbad_exception@std@@@8 000000018005cec8     libvcruntime:frame.obj
 0003:00000ef0       ??_R0?AVRebalanceDispatcher@Callbacks@NodeKafka@@@8 000000018005cef0     callbacks.obj
 0003:00000f30       ??_R0?AVEvent@Callbacks@NodeKafka@@@8 000000018005cf30     callbacks.obj
 0003:00000f60       ??_R0?AVOffsetCommitDispatcher@Callbacks@NodeKafka@@@8 000000018005cf60     callbacks.obj
 0003:00000fa8       ??_R0?AVOffsetCommitCb@RdKafka@@@8 000000018005cfa8     callbacks.obj
 0003:00000fd8       ??_R0?AVEventDispatcher@Callbacks@NodeKafka@@@8 000000018005cfd8     callbacks.obj
 0003:00001018       ??_R0?AVOffsetCommit@Callbacks@NodeKafka@@@8 000000018005d018     callbacks.obj
 0003:00001050       ??_R0?AVDelivery@Callbacks@NodeKafka@@@8 000000018005d050     callbacks.obj
 0003:00001088       ??_R0?AVEventCb@RdKafka@@@8 000000018005d088     callbacks.obj
 0003:000010b0       ??_R0?AVDispatcher@Callbacks@NodeKafka@@@8 000000018005d0b0     callbacks.obj
 0003:000010e8       ??_R0?AVPartitionerCb@RdKafka@@@8 000000018005d0e8     callbacks.obj
 0003:00001118       ??_R0?AVRebalance@Callbacks@NodeKafka@@@8 000000018005d118     callbacks.obj
 0003:00001150       ??_R0?AVDeliveryReportCb@RdKafka@@@8 000000018005d150     callbacks.obj
 0003:00001180       ??_R0?AVDeliveryReportDispatcher@Callbacks@NodeKafka@@@8 000000018005d180     callbacks.obj
 0003:000011c8       ??_R0?AVRebalanceCb@RdKafka@@@8 000000018005d1c8     callbacks.obj
 0003:000011f8       ??_R0?AVPartitioner@Callbacks@NodeKafka@@@8 000000018005d1f8     callbacks.obj
 0003:00001230       ??_R0?AVfailure@ios_base@std@@@8 000000018005d230     common.obj
 0003:00001260       ??_R0?AVruntime_error@std@@@8 000000018005d260     common.obj
 0003:00001288       ??_R0?AVexception@stdext@@@8 000000018005d288     common.obj
 0003:000012b0       ??_R0?AVerror_category@std@@@8 000000018005d2b0     common.obj
 0003:000012e0       ??_R0?AV?$ctype@D@std@@@8  000000018005d2e0     common.obj
 0003:00001308       ??_R0?AVsystem_error@std@@@8 000000018005d308     common.obj
 0003:00001330       ??_R0?AV_Facet_base@std@@@8 000000018005d330     common.obj
 0003:00001358       ??_R0?AV_Generic_error_category@std@@@8 000000018005d358     common.obj
 0003:00001390       ??_R0?AU_Crt_new_delete@std@@@8 000000018005d390     common.obj
 0003:000013c0       ??_R0?AV_Iostream_error_category@std@@@8 000000018005d3c0     common.obj
 0003:000013f8       ??_R0?AUctype_base@std@@@8 000000018005d3f8     common.obj
 0003:00001420       ??_R0?AVfacet@locale@std@@@8 000000018005d420     common.obj
 0003:00001448       ??_R0?AV_System_error@std@@@8 000000018005d448     common.obj
 0003:00001470       ??_R0?AVConnection@NodeKafka@@@8 000000018005d470     connection.obj
 0003:000014a0       ??_R0?AVObjectWrap@Nan@@@8 000000018005d4a0     connection.obj
 0003:000014c8       ??_R0?AVHandle@RdKafka@@@8 000000018005d4c8     kafka-consumer.obj
 0003:000014f0       ??_R0?AVKafkaConsumer@NodeKafka@@@8 000000018005d4f0     kafka-consumer.obj
 0003:00001520       ??_R0?AVKafkaConsumer@RdKafka@@@8 000000018005d520     kafka-consumer.obj
 0003:00001550       ??_R0?AVProducer@NodeKafka@@@8 000000018005d550     producer.obj
 0003:00001580       ??_R0?AVProducer@RdKafka@@@8 000000018005d580     producer.obj
 0003:000015a8       ??_R0?AVTopic@NodeKafka@@@8 000000018005d5a8     topic.obj
 0003:000015d0       ??_R0?AVProducerFlush@Workers@NodeKafka@@@8 000000018005d5d0     workers.obj
 0003:00001610       ??_R0?AVAdminClientCreatePartitions@Workers@NodeKafka@@@8 000000018005d610     workers.obj
 0003:00001658       ??_R0?AVAsyncWorker@Nan@@@8 000000018005d658     workers.obj
 0003:00001680       ??_R0?AVKafkaConsumerDisconnect@Workers@NodeKafka@@@8 000000018005d680     workers.obj
 0003:000016c0       ??_R0?AVKafkaConsumerConsume@Workers@NodeKafka@@@8 000000018005d6c0     workers.obj
 0003:00001700       ??_R0?AVErrorAwareWorker@Workers@NodeKafka@@@8 000000018005d700     workers.obj
 0003:00001740       ??_R0?AVProducerConnect@Workers@NodeKafka@@@8 000000018005d740     workers.obj
 0003:00001780       ??_R0?AVConnectionQueryWatermarkOffsets@Workers@NodeKafka@@@8 000000018005d780     workers.obj
 0003:000017c8       ??_R0?AVConnectionMetadata@Workers@NodeKafka@@@8 000000018005d7c8     workers.obj
 0003:00001808       ??_R0?AVOffsetsForTimes@Handle@Workers@NodeKafka@@@8 000000018005d808     workers.obj
 0003:00001848       ??_R0?AVAdminClientCreateTopic@Workers@NodeKafka@@@8 000000018005d848     workers.obj
 0003:00001888       ??_R0?AVMessageWorker@Workers@NodeKafka@@@8 000000018005d888     workers.obj
 0003:000018c0       ??_R0?AVKafkaConsumerCommitted@Workers@NodeKafka@@@8 000000018005d8c0     workers.obj
 0003:00001900       ??_R0?AVAdminClientDeleteTopic@Workers@NodeKafka@@@8 000000018005d900     workers.obj
 0003:00001940       ??_R0?AVKafkaConsumerSeek@Workers@NodeKafka@@@8 000000018005d940     workers.obj
 0003:00001980       ??_R0?AVKafkaConsumerConsumeNum@Workers@NodeKafka@@@8 000000018005d980     workers.obj
 0003:000019c0       ??_R0?AVKafkaConsumerConnect@Workers@NodeKafka@@@8 000000018005d9c0     workers.obj
 0003:00001a00       ??_R0?AVKafkaConsumerConsumeLoop@Workers@NodeKafka@@@8 000000018005da00     workers.obj
 0003:00001a48       ??_R0?AVProducerDisconnect@Workers@NodeKafka@@@8 000000018005da48     workers.obj
 0003:00001a88       ??_R0?AVAdminClient@NodeKafka@@@8 000000018005da88     admin.obj
 0003:00001ab8       ??_R0?AV__non_rtti_object@std@@@8 000000018005dab8     libvcruntime:rtti.obj
 0003:00001ae8       ??_R0?AVbad_typeid@std@@@8 000000018005dae8     libvcruntime:rtti.obj
 0003:00001b10       __imp_?Value@External@v8@@QEBAPEAXXZ 000000018005db10     node:node.exe
 0003:00001b18       __imp_?Data@Buffer@node@@YAPEADV?$Local@VObject@v8@@@v8@@@Z 000000018005db18     node:node.exe
 0003:00001b20       __imp_?New@External@v8@@SA?AV?$Local@VExternal@v8@@@2@PEAVIsolate@2@PEAX@Z 000000018005db20     node:node.exe
 0003:00001b28       __imp_?GetCurrentContext@Isolate@v8@@QEAA?AV?$Local@VContext@v8@@@2@XZ 000000018005db28     node:node.exe
 0003:00001b30       __imp_?GetCurrent@Isolate@v8@@SAPEAV12@XZ 000000018005db30     node:node.exe
 0003:00001b38       __imp_?CreateHandle@HandleScope@v8@@KAPEAPEAVObject@internal@2@PEAVIsolate@42@PEAV342@@Z 000000018005db38     node:node.exe
 0003:00001b40       __imp_?CreateHandle@HandleScope@v8@@CAPEAPEAVObject@internal@2@PEAVHeapObject@42@PEAV342@@Z 000000018005db40     node:node.exe
 0003:00001b48       __imp_??1HandleScope@v8@@QEAA@XZ 000000018005db48     node:node.exe
 0003:00001b50       __imp_??0HandleScope@v8@@QEAA@PEAVIsolate@1@@Z 000000018005db50     node:node.exe
 0003:00001b58       __imp_?GetFunction@FunctionTemplate@v8@@QEAA?AV?$MaybeLocal@VFunction@v8@@@2@V?$Local@VContext@v8@@@2@@Z 000000018005db58     node:node.exe
 0003:00001b60       __imp_?New@FunctionTemplate@v8@@SA?AV?$Local@VFunctionTemplate@v8@@@2@PEAVIsolate@2@P6AXAEBV?$FunctionCallbackInfo@VValue@v8@@@2@@ZV?$Local@VValue@v8@@@2@V?$Local@VSignature@v8@@@2@HW4ConstructorBehavior@2@W4SideEffectType@2@@Z 000000018005db60     node:node.exe
 0003:00001b68       __imp_?ToLocalEmpty@V8@v8@@CAXXZ 000000018005db68     node:node.exe
 0003:00001b70       __imp_?FromJustIsNothing@V8@v8@@CAXXZ 000000018005db70     node:node.exe
 0003:00001b78       __imp_?Int32Value@Value@v8@@QEBA?AV?$Maybe@H@2@V?$Local@VContext@v8@@@2@@Z 000000018005db78     node:node.exe
 0003:00001b80       __imp_?Escape@EscapableHandleScope@v8@@AEAAPEAPEAVObject@internal@2@PEAPEAV342@@Z 000000018005db80     node:node.exe
 0003:00001b88       __imp_??0EscapableHandleScope@v8@@QEAA@PEAVIsolate@1@@Z 000000018005db88     node:node.exe
 0003:00001b90       __imp_?NewFromUtf8@String@v8@@SA?AV?$MaybeLocal@VString@v8@@@2@PEAVIsolate@2@PEBDW4NewStringType@2@H@Z 000000018005db90     node:node.exe
 0003:00001b98       __imp_?New@Number@v8@@SA?AV?$Local@VNumber@v8@@@2@PEAVIsolate@2@N@Z 000000018005db98     node:node.exe
 0003:00001ba0       __imp_?SlowGetInternalField@Object@v8@@AEAA?AV?$Local@VValue@v8@@@2@H@Z 000000018005dba0     node:node.exe
 0003:00001ba8       __imp_?New@Object@v8@@SA?AV?$Local@VObject@v8@@@2@PEAVIsolate@2@@Z 000000018005dba8     node:node.exe
 0003:00001bb0       __imp_?GetIsolate@Object@v8@@QEAAPEAVIsolate@2@XZ 000000018005dbb0     node:node.exe
 0003:00001bb8       __imp_?SetInternalField@Object@v8@@QEAAXHV?$Local@VValue@v8@@@2@@Z 000000018005dbb8     node:node.exe
 0003:00001bc0       __imp_?DefineOwnProperty@Object@v8@@QEAA?AV?$Maybe@_N@2@V?$Local@VContext@v8@@@2@V?$Local@VName@v8@@@2@V?$Local@VValue@v8@@@2@W4PropertyAttribute@2@@Z 000000018005dbc0     node:node.exe
 0003:00001bc8       __imp_?Set@Object@v8@@QEAA?AV?$Maybe@_N@2@V?$Local@VContext@v8@@@2@V?$Local@VValue@v8@@@2@1@Z 000000018005dbc8     node:node.exe
 0003:00001bd0       __imp_?SetInternalFieldCount@ObjectTemplate@v8@@QEAAXH@Z 000000018005dbd0     node:node.exe
 0003:00001bd8       __imp_?NewInstance@ObjectTemplate@v8@@QEAA?AV?$MaybeLocal@VObject@v8@@@2@V?$Local@VContext@v8@@@2@@Z 000000018005dbd8     node:node.exe
 0003:00001be0       __imp_?New@ObjectTemplate@v8@@SA?AV?$Local@VObjectTemplate@v8@@@2@PEAVIsolate@2@V?$Local@VFunctionTemplate@v8@@@2@@Z 000000018005dbe0     node:node.exe
 0003:00001be8       __imp_?AtExit@node@@YAXP6AXPEAX@Z0@Z 000000018005dbe8     node:node.exe
 0003:00001bf0       __imp_node_module_register 000000018005dbf0     node:node.exe
 0003:00001bf8       __imp_uv_mutex_unlock      000000018005dbf8     node:node.exe
 0003:00001c00       __imp_?Global@Context@v8@@QEAA?AV?$Local@VObject@v8@@@2@XZ 000000018005dc00     node:node.exe
 0003:00001c08       __imp_?New@Integer@v8@@SA?AV?$Local@VInteger@v8@@@2@PEAVIsolate@2@H@Z 000000018005dc08     node:node.exe
 0003:00001c10       __imp_?Error@Exception@v8@@SA?AV?$Local@VValue@v8@@@2@V?$Local@VString@v8@@@2@@Z 000000018005dc10     node:node.exe
 0003:00001c18       __imp_?New@Array@v8@@SA?AV?$Local@VArray@v8@@@2@PEAVIsolate@2@H@Z 000000018005dc18     node:node.exe
 0003:00001c20       __imp_?DisposeGlobal@V8@v8@@CAXPEAPEAVObject@internal@2@@Z 000000018005dc20     node:node.exe
 0003:00001c28       __imp_?CopyPersistent@V8@v8@@CAPEAPEAVObject@internal@2@PEAPEAV342@@Z 000000018005dc28     node:node.exe
 0003:00001c30       __imp_?GlobalizeReference@V8@v8@@CAPEAPEAVObject@internal@2@PEAVIsolate@42@PEAPEAV342@@Z 000000018005dc30     node:node.exe
 0003:00001c38       __imp_?ToInt32@Value@v8@@QEBA?AV?$MaybeLocal@VInt32@v8@@@2@V?$Local@VContext@v8@@@2@@Z 000000018005dc38     node:node.exe
 0003:00001c40       __imp_?Set@Object@v8@@QEAA?AV?$Maybe@_N@2@V?$Local@VContext@v8@@@2@IV?$Local@VValue@v8@@@2@@Z 000000018005dc40     node:node.exe
 0003:00001c48       __imp_uv_mutex_lock        000000018005dc48     node:node.exe
 0003:00001c50       __imp_uv_close             000000018005dc50     node:node.exe
 0003:00001c58       __imp_?EmitAsyncDestroy@node@@YAXPEAVIsolate@v8@@Uasync_context@1@@Z 000000018005dc58     node:node.exe
 0003:00001c60       __imp_?New@Buffer@node@@YA?AV?$MaybeLocal@VObject@v8@@@v8@@PEAVIsolate@4@PEAD_K@Z 000000018005dc60     node:node.exe
 0003:00001c68       __imp_?MakeCallback@node@@YA?AV?$MaybeLocal@VValue@v8@@@v8@@PEAVIsolate@3@V?$Local@VObject@v8@@@3@V?$Local@VFunction@v8@@@3@HPEAV?$Local@VValue@v8@@@3@Uasync_context@1@@Z 000000018005dc68     node:node.exe
 0003:00001c70       __imp_?EmitAsyncInit@node@@YA?AUasync_context@1@PEAVIsolate@v8@@V?$Local@VObject@v8@@@4@V?$Local@VString@v8@@@4@N@Z 000000018005dc70     node:node.exe
 0003:00001c78       __imp_uv_mutex_destroy     000000018005dc78     node:node.exe
 0003:00001c80       __imp_uv_mutex_init        000000018005dc80     node:node.exe
 0003:00001c88       __imp_uv_async_send        000000018005dc88     node:node.exe
 0003:00001c90       __imp_uv_async_init        000000018005dc90     node:node.exe
 0003:00001c98       __imp_uv_default_loop      000000018005dc98     node:node.exe
 0003:00001ca0       __imp_?GetSource@RegExp@v8@@QEBA?AV?$Local@VString@v8@@@2@XZ 000000018005dca0     node:node.exe
 0003:00001ca8       __imp_?Length@Array@v8@@QEBAIXZ 000000018005dca8     node:node.exe
 0003:00001cb0       __imp_?IntegerValue@Value@v8@@QEBA?AV?$Maybe@_J@2@V?$Local@VContext@v8@@@2@@Z 000000018005dcb0     node:node.exe
 0003:00001cb8       __imp_?BooleanValue@Value@v8@@QEBA?AV?$Maybe@_N@2@V?$Local@VContext@v8@@@2@@Z 000000018005dcb8     node:node.exe
 0003:00001cc0       __imp_?ToObject@Value@v8@@QEBA?AV?$MaybeLocal@VObject@v8@@@2@V?$Local@VContext@v8@@@2@@Z 000000018005dcc0     node:node.exe
 0003:00001cc8       __imp_?ToString@Value@v8@@QEBA?AV?$MaybeLocal@VString@v8@@@2@V?$Local@VContext@v8@@@2@@Z 000000018005dcc8     node:node.exe
 0003:00001cd0       __imp_?IsRegExp@Value@v8@@QEBA_NXZ 000000018005dcd0     node:node.exe
 0003:00001cd8       __imp_?IsNumber@Value@v8@@QEBA_NXZ 000000018005dcd8     node:node.exe
 0003:00001ce0       __imp_?IsBoolean@Value@v8@@QEBA_NXZ 000000018005dce0     node:node.exe
 0003:00001ce8       __imp_?IsObject@Value@v8@@QEBA_NXZ 000000018005dce8     node:node.exe
 0003:00001cf0       __imp_?IsArray@Value@v8@@QEBA_NXZ 000000018005dcf0     node:node.exe
 0003:00001cf8       __imp_?WriteUtf8@String@v8@@QEBAHPEADHPEAHH@Z 000000018005dcf8     node:node.exe
 0003:00001d00       __imp_?Length@String@v8@@QEBAHXZ 000000018005dd00     node:node.exe
 0003:00001d08       __imp_?GetOwnPropertyNames@Object@v8@@QEAA?AV?$MaybeLocal@VArray@v8@@@2@V?$Local@VContext@v8@@@2@@Z 000000018005dd08     node:node.exe
 0003:00001d10       __imp_?Has@Object@v8@@QEAA?AV?$Maybe@_N@2@V?$Local@VContext@v8@@@2@V?$Local@VValue@v8@@@2@@Z 000000018005dd10     node:node.exe
 0003:00001d18       __imp_?Get@Object@v8@@QEAA?AV?$MaybeLocal@VValue@v8@@@2@V?$Local@VContext@v8@@@2@V?$Local@VValue@v8@@@2@@Z 000000018005dd18     node:node.exe
 0003:00001d20       __imp_?Get@Object@v8@@QEAA?AV?$MaybeLocal@VValue@v8@@@2@V?$Local@VContext@v8@@@2@I@Z 000000018005dd20     node:node.exe
 0003:00001d28       __imp_?Encode@node@@YA?AV?$Local@VValue@v8@@@v8@@PEAVIsolate@3@PEBD_KW4encoding@1@@Z 000000018005dd28     node:node.exe
 0003:00001d30       __imp_?Uint32Value@Value@v8@@QEBA?AV?$Maybe@I@2@V?$Local@VContext@v8@@@2@@Z 000000018005dd30     node:node.exe
 0003:00001d38       __imp_?IsUint32@Value@v8@@QEBA_NXZ 000000018005dd38     node:node.exe
 0003:00001d40       __imp_?IsInt32@Value@v8@@QEBA_NXZ 000000018005dd40     node:node.exe
 0003:00001d48       __imp_?IsFunction@Value@v8@@QEBA_NXZ 000000018005dd48     node:node.exe
 0003:00001d50       __imp_uv_queue_work        000000018005dd50     node:node.exe
 0003:00001d58       __imp_?ThrowException@Isolate@v8@@QEAA?AV?$Local@VValue@v8@@@2@V32@@Z 000000018005dd58     node:node.exe
 0003:00001d60       __imp_?ClearWeak@V8@v8@@CAPEAXPEAPEAVObject@internal@2@@Z 000000018005dd60     node:node.exe
 0003:00001d68       __imp_?MakeWeak@V8@v8@@CAXPEAPEAVObject@internal@2@PEAXP6AXAEBV?$WeakCallbackInfo@X@2@@ZW4WeakCallbackType@2@@Z 000000018005dd68     node:node.exe
 0003:00001d70       __imp_?SlowGetAlignedPointerFromInternalField@Object@v8@@AEAAPEAXH@Z 000000018005dd70     node:node.exe
 0003:00001d78       __imp_?InternalFieldCount@Object@v8@@QEAAHXZ 000000018005dd78     node:node.exe
 0003:00001d80       __imp_?GetCurrentEventLoop@node@@YAPEAUuv_loop_s@@PEAVIsolate@v8@@@Z 000000018005dd80     node:node.exe
 0003:00001d88       __imp_uv_rwlock_rdlock     000000018005dd88     node:node.exe
 0003:00001d90       __imp_uv_rwlock_init       000000018005dd90     node:node.exe
 0003:00001d98       __imp_uv_rwlock_rdunlock   000000018005dd98     node:node.exe
 0003:00001da0       __imp_uv_rwlock_destroy    000000018005dda0     node:node.exe
 0003:00001da8       __imp_?New@Signature@v8@@SA?AV?$Local@VSignature@v8@@@2@PEAVIsolate@2@V?$Local@VFunctionTemplate@v8@@@2@@Z 000000018005dda8     node:node.exe
 0003:00001db0       __imp_?Set@Template@v8@@QEAAXV?$Local@VName@v8@@@2@V?$Local@VData@v8@@@2@W4PropertyAttribute@2@@Z 000000018005ddb0     node:node.exe
 0003:00001db8       __imp_?SetClassName@FunctionTemplate@v8@@QEAAXV?$Local@VString@v8@@@2@@Z 000000018005ddb8     node:node.exe
 0003:00001dc0       __imp_?PrototypeTemplate@FunctionTemplate@v8@@QEAA?AV?$Local@VObjectTemplate@v8@@@2@XZ 000000018005ddc0     node:node.exe
 0003:00001dc8       __imp_?InstanceTemplate@FunctionTemplate@v8@@QEAA?AV?$Local@VObjectTemplate@v8@@@2@XZ 000000018005ddc8     node:node.exe
 0003:00001dd0       __imp_?SetAlignedPointerInInternalField@Object@v8@@QEAAXHPEAX@Z 000000018005ddd0     node:node.exe
 0003:00001dd8       __imp_uv_rwlock_wrlock     000000018005ddd8     node:node.exe
 0003:00001de0       __imp_uv_rwlock_wrunlock   000000018005dde0     node:node.exe
 0003:00001de8       __imp_?HasInstance@Buffer@node@@YA_NV?$Local@VValue@v8@@@v8@@@Z 000000018005dde8     node:node.exe
 0003:00001df0       __imp_?Length@Buffer@node@@YA_KV?$Local@VObject@v8@@@v8@@@Z 000000018005ddf0     node:node.exe
 0003:00001df8       \177node_NULL_THUNK_DATA_DLA 000000018005ddf8     node:node.exe
 0003:00001e00       __hmod__node_exe           000000018005de00     node:node.exe
 0003:00001f60       ?_Id_cnt@id@locale@std@@0HA 000000018005df60     libcpmt:locale0.obj
 0003:00001f68       ?_Clocptr@_Locimp@locale@std@@0PEAV123@EA 000000018005df68     libcpmt:locale0.obj
 0003:00001f70       ?id@?$ctype@_W@std@@2V0locale@2@A 000000018005df70     libcpmt:locale0.obj
 0003:00001f78       ?id@?$ctype@D@std@@2V0locale@2@A 000000018005df78     libcpmt:locale0.obj
 0003:00001f80       ?id@?$codecvt@GDU_Mbstatet@@@std@@2V0locale@2@A 000000018005df80     libcpmt:locale0.obj
 0003:00001f88       ?id@?$ctype@G@std@@2V0locale@2@A 000000018005df88     libcpmt:locale0.obj
 0003:00001fa0       ?id@?$codecvt@_WDU_Mbstatet@@@std@@2V0locale@2@A 000000018005dfa0     libcpmt:locale0.obj
 0003:00001fe0       ?cerr@std@@3V?$basic_ostream@DU?$char_traits@D@std@@@1@A 000000018005dfe0     libcpmt:cerr.obj
 0003:000020e8       ?id@?$codecvt@DDU_Mbstatet@@@std@@2V0locale@2@A 000000018005e0e8     libcpmt:cerr.obj
 0003:000020f0       ?_Stinit@?1??_Init@?$basic_filebuf@DU?$char_traits@D@std@@@std@@IEAAXPEAU_iobuf@@W4_Initfl@23@@Z@4U_Mbstatet@@A 000000018005e0f0     libcpmt:cerr.obj
 0003:000020f8       ?_Psave@?$_Facetptr@V?$codecvt@DDU_Mbstatet@@@std@@@std@@2PEBVfacet@locale@2@EB 000000018005e0f8     libcpmt:cerr.obj
 0003:00002100       ?_Raise_handler@std@@3P6AXAEBVexception@stdext@@@ZEA 000000018005e100     libcpmt:raisehan.obj
 0003:00002120       ?cout@std@@3V?$basic_ostream@DU?$char_traits@D@std@@@1@A 000000018005e120     libcpmt:cout.obj
 0003:00002230       __encodedKERNEL32Functions 000000018005e230     libcpmt:winapisupp.obj
 0003:00002370       ?id@?$num_get@DV?$istreambuf_iterator@DU?$char_traits@D@std@@@std@@@std@@2V0locale@2@A 000000018005e370     libcpmt:locale.obj
 0003:00002380       ?_Ptr_cin@std@@3PEAV?$basic_istream@DU?$char_traits@D@std@@@1@EA 000000018005e380     libcpmt:iosptrs.obj
 0003:00002388       ?_Ptr_cout@std@@3PEAV?$basic_ostream@DU?$char_traits@D@std@@@1@EA 000000018005e388     libcpmt:iosptrs.obj
 0003:00002390       ?_Ptr_cerr@std@@3PEAV?$basic_ostream@DU?$char_traits@D@std@@@1@EA 000000018005e390     libcpmt:iosptrs.obj
 0003:00002398       ?_Ptr_clog@std@@3PEAV?$basic_ostream@DU?$char_traits@D@std@@@1@EA 000000018005e398     libcpmt:iosptrs.obj
 0003:000023a0       ?_Ptr_wcin@std@@3PEAV?$basic_istream@_WU?$char_traits@_W@std@@@1@EA 000000018005e3a0     libcpmt:iosptrs.obj
 0003:000023a8       ?_Ptr_wcout@std@@3PEAV?$basic_ostream@_WU?$char_traits@_W@std@@@1@EA 000000018005e3a8     libcpmt:iosptrs.obj
 0003:000023b0       ?_Ptr_wcerr@std@@3PEAV?$basic_ostream@_WU?$char_traits@_W@std@@@1@EA 000000018005e3b0     libcpmt:iosptrs.obj
 0003:000023b8       ?_Ptr_wclog@std@@3PEAV?$basic_ostream@_WU?$char_traits@_W@std@@@1@EA 000000018005e3b8     libcpmt:iosptrs.obj
 0003:00002420       ?_Index@ios_base@std@@0HA  000000018005e420     libcpmt:ios.obj
 0003:00002490       ?id@?$time_put@_WV?$ostreambuf_iterator@_WU?$char_traits@_W@std@@@std@@@std@@2V0locale@2@A 000000018005e490     libcpmt:wlocale.obj
 0003:00002498       ?id@?$num_get@_WV?$istreambuf_iterator@_WU?$char_traits@_W@std@@@std@@@std@@2V0locale@2@A 000000018005e498     libcpmt:wlocale.obj
 0003:000024a0       ?id@?$num_put@_WV?$ostreambuf_iterator@_WU?$char_traits@_W@std@@@std@@@std@@2V0locale@2@A 000000018005e4a0     libcpmt:wlocale.obj
 0003:000024a8       ?id@?$numpunct@_W@std@@2V0locale@2@A 000000018005e4a8     libcpmt:wlocale.obj
 0003:000024b0       ?id@?$collate@_W@std@@2V0locale@2@A 000000018005e4b0     libcpmt:wlocale.obj
 0003:000024b8       ?id@?$messages@_W@std@@2V0locale@2@A 000000018005e4b8     libcpmt:wlocale.obj
 0003:000024c0       ?id@?$money_get@_WV?$istreambuf_iterator@_WU?$char_traits@_W@std@@@std@@@std@@2V0locale@2@A 000000018005e4c0     libcpmt:wlocale.obj
 0003:000024c8       ?id@?$money_put@_WV?$ostreambuf_iterator@_WU?$char_traits@_W@std@@@std@@@std@@2V0locale@2@A 000000018005e4c8     libcpmt:wlocale.obj
 0003:000024d0       ?id@?$moneypunct@_W$0A@@std@@2V0locale@2@A 000000018005e4d0     libcpmt:wlocale.obj
 0003:000024d8       ?id@?$moneypunct@_W$00@std@@2V0locale@2@A 000000018005e4d8     libcpmt:wlocale.obj
 0003:000024e0       ?id@?$time_get@_WV?$istreambuf_iterator@_WU?$char_traits@_W@std@@@std@@@std@@2V0locale@2@A 000000018005e4e0     libcpmt:wlocale.obj
 0003:000024e8       ?id@?$num_get@GV?$istreambuf_iterator@GU?$char_traits@G@std@@@std@@@std@@2V0locale@2@A 000000018005e4e8     libcpmt:wlocale.obj
 0003:000024f0       ?id@?$num_put@GV?$ostreambuf_iterator@GU?$char_traits@G@std@@@std@@@std@@2V0locale@2@A 000000018005e4f0     libcpmt:wlocale.obj
 0003:000024f8       ?id@?$numpunct@G@std@@2V0locale@2@A 000000018005e4f8     libcpmt:wlocale.obj
 0003:00002500       ?id@?$collate@G@std@@2V0locale@2@A 000000018005e500     libcpmt:wlocale.obj
 0003:00002508       ?id@?$messages@G@std@@2V0locale@2@A 000000018005e508     libcpmt:wlocale.obj
 0003:00002510       ?id@?$money_get@GV?$istreambuf_iterator@GU?$char_traits@G@std@@@std@@@std@@2V0locale@2@A 000000018005e510     libcpmt:wlocale.obj
 0003:00002518       ?id@?$money_put@GV?$ostreambuf_iterator@GU?$char_traits@G@std@@@std@@@std@@2V0locale@2@A 000000018005e518     libcpmt:wlocale.obj
 0003:00002520       ?id@?$moneypunct@G$0A@@std@@2V0locale@2@A 000000018005e520     libcpmt:wlocale.obj
 0003:00002528       ?id@?$moneypunct@G$00@std@@2V0locale@2@A 000000018005e528     libcpmt:wlocale.obj
 0003:00002530       ?id@?$time_get@GV?$istreambuf_iterator@GU?$char_traits@G@std@@@std@@@std@@2V0locale@2@A 000000018005e530     libcpmt:wlocale.obj
 0003:00002538       ?id@?$time_put@GV?$ostreambuf_iterator@GU?$char_traits@G@std@@@std@@@std@@2V0locale@2@A 000000018005e538     libcpmt:wlocale.obj
 0003:00002540       ?id@?$collate@D@std@@2V0locale@2@A 000000018005e540     libcpmt:xlocale.obj
 0003:00002548       ?id@?$messages@D@std@@2V0locale@2@A 000000018005e548     libcpmt:xlocale.obj
 0003:00002550       ?id@?$money_get@DV?$istreambuf_iterator@DU?$char_traits@D@std@@@std@@@std@@2V0locale@2@A 000000018005e550     libcpmt:xlocale.obj
 0003:00002558       ?id@?$money_put@DV?$ostreambuf_iterator@DU?$char_traits@D@std@@@std@@@std@@2V0locale@2@A 000000018005e558     libcpmt:xlocale.obj
 0003:00002560       ?id@?$moneypunct@D$0A@@std@@2V0locale@2@A 000000018005e560     libcpmt:xlocale.obj
 0003:00002568       ?id@?$moneypunct@D$00@std@@2V0locale@2@A 000000018005e568     libcpmt:xlocale.obj
 0003:00002570       ?id@?$time_get@DV?$istreambuf_iterator@DU?$char_traits@D@std@@@std@@@std@@2V0locale@2@A 000000018005e570     libcpmt:xlocale.obj
 0003:00002578       ?id@?$time_put@DV?$ostreambuf_iterator@DU?$char_traits@D@std@@@std@@@std@@2V0locale@2@A 000000018005e578     libcpmt:xlocale.obj
 0003:00002580       __scrt_current_native_startup_state 000000018005e580     LIBCMT:utility.obj
 0003:00002588       __scrt_native_startup_lock 000000018005e588     LIBCMT:utility.obj
 0003:00002b40       __favor                    000000018005eb40     LIBCMT:cpu_disp.obj
 0003:00002b44       __scrt_debugger_hook_flag  000000018005eb44     LIBCMT:utility_desktop.obj
 0003:00002b50       ?__type_info_root_node@@3U__type_info_node@@A 000000018005eb50     LIBCMT:tncleanup.obj
 0003:00002b60       ?_OptionsStorage@?1??__local_stdio_scanf_options@@9@4_KA 000000018005eb60     LIBCMT:default_local_stdio_options.obj
 0003:00002b68       ?__WinRTOutOfMemoryExceptionCallback@@3P6APEAXXZEA 000000018005eb68     libvcruntime:ehhelpers.obj
 0003:00002b70       __pPurecall                000000018005eb70     libvcruntime:purevirt_data.obj
 0003:00002c80       ?pArgList@UnDecorator@@0PEAVReplicator@@EA 000000018005ec80     libvcruntime:undname.obj
 0003:00002c88       ?pZNameList@UnDecorator@@0PEAVReplicator@@EA 000000018005ec88     libvcruntime:undname.obj
 0003:00002c90       ?pTemplateArgList@UnDecorator@@0PEAVReplicator@@EA 000000018005ec90     libvcruntime:undname.obj
 0003:00002c98       ?gName@UnDecorator@@0PEBDEB 000000018005ec98     libvcruntime:undname.obj
 0003:00002ca0       ?name@UnDecorator@@0PEBDEB 000000018005eca0     libvcruntime:undname.obj
 0003:00002ca8       ?disableFlags@UnDecorator@@0KA 000000018005eca8     libvcruntime:undname.obj
 0003:00002cac       ?fExplicitTemplateParams@UnDecorator@@0_NA 000000018005ecac     libvcruntime:undname.obj
 0003:00002cad       ?fGetTemplateArgumentList@UnDecorator@@0_NA 000000018005ecad     libvcruntime:undname.obj
 0003:00002cb0       ?m_pGetParameter@UnDecorator@@0P6APEADJ@ZEA 000000018005ecb0     libvcruntime:undname.obj
 0003:00002cb8       ?m_CHPENameOffset@UnDecorator@@0KA 000000018005ecb8     libvcruntime:undname.obj
 0003:00002cbc       ?m_recursionLevel@UnDecorator@@0KA 000000018005ecbc     libvcruntime:undname.obj
 0003:00002cf0       __acrt_lconv_static_null   000000018005ecf0     libucrt:localeconv.obj
 0003:00002cf4       __acrt_lconv_static_W_null 000000018005ecf4     libucrt:localeconv.obj
 0003:00002f38       _nstream                   000000018005ef38     libucrt:_file.obj
 0003:00002f40       __piob                     000000018005ef40     libucrt:_file.obj
 0003:00002f48       _cflush                    000000018005ef48     libucrt:_file.obj
 0003:00002f68       ?c_exit_complete@?1???R<lambda_6e4b09c48022b2350581041d5f6b0c4c>@@QEBA@XZ@4_NA 000000018005ef68     libucrt:exit.obj
 0003:00003078       _environ_table             000000018005f078     libucrt:environment_initialization.obj
 0003:00003080       _wenviron_table            000000018005f080     libucrt:environment_initialization.obj
 0003:00003088       __dcrt_initial_wide_environment 000000018005f088     libucrt:environment_initialization.obj
 0003:00003090       __dcrt_initial_narrow_environment 000000018005f090     libucrt:environment_initialization.obj
 0003:00003098       __acrt_atexit_table        000000018005f098     libucrt:onexit.obj
 0003:000030b0       __acrt_at_quick_exit_table 000000018005f0b0     libucrt:onexit.obj
 0003:00003100       __acrt_stdout_buffer       000000018005f100     libucrt:_sftbuf.obj
 0003:00003108       __acrt_stderr_buffer       000000018005f108     libucrt:_sftbuf.obj
 0003:00003110       __acrt_locale_changed_data 000000018005f110     libucrt:wsetlocale.obj
 0003:00003118       __acrt_current_locale_data 000000018005f118     libucrt:nlsdata.obj
 0003:00003120       __pioinfo                  000000018005f120     libucrt:ioinit.obj
 0003:00003520       _nhandle                   000000018005f520     libucrt:ioinit.obj
 0003:000036e8       __fma3_is_available        000000018005f6e8     libucrt:fma3_available.obj
 0003:000036ec       __use_fma3_lib             000000018005f6ec     libucrt:fma3_available.obj
 0003:000036f0       ?_timezone@@3V?$dual_state_global@J@__crt_state_management@@A 000000018005f6f0     libucrt:timeset.obj
 0003:000036f4       ?_daylight@@3V?$dual_state_global@H@__crt_state_management@@A 000000018005f6f4     libucrt:timeset.obj
 0003:000036f8       ?_dstbias@@3V?$dual_state_global@J@__crt_state_management@@A 000000018005f6f8     libucrt:timeset.obj
 0003:000037d8       _mbctype                   000000018005f7d8     libucrt:mbctype.obj
 0003:000037e0       _mbcasemap                 000000018005f7e0     libucrt:mbctype.obj
 0003:000037e8       __acrt_current_multibyte_data 000000018005f7e8     libucrt:mbctype.obj
 0003:000037f8       _pgmptr                    000000018005f7f8     libucrt:argv_data.obj
 0003:00003800       __argc                     000000018005f800     libucrt:argv_data.obj
 0003:00003808       __argv                     000000018005f808     libucrt:argv_data.obj
 0003:00003810       __wargv                    000000018005f810     libucrt:argv_data.obj
 0003:00003818       _acmdln                    000000018005f818     libucrt:argv_data.obj
 0003:00003820       _wcmdln                    000000018005f820     libucrt:argv_data.obj
 0003:00003828       __acrt_heap                000000018005f828     libucrt:heap_handle.obj
 0003:00003850       ?DloadKernel32@@3PEAUHINSTANCE__@@EA 000000018005f850     DelayImp:delayhlp.obj
 0003:00003858       ?DloadAcquireSRWLockExclusive@@3P6AXPEA_K@ZEA 000000018005f858     DelayImp:delayhlp.obj
 0003:00003860       ?DloadReleaseSRWLockExclusive@@3P6AXPEA_K@ZEA 000000018005f860     DelayImp:delayhlp.obj
 0003:00003868       ?DloadSrwLock@@3_KA        000000018005f868     DelayImp:delayhlp.obj
 0003:00003870       ?DloadSectionLockCount@@3KA 000000018005f870     DelayImp:delayhlp.obj
 0003:00003874       ?DloadSectionOldProtection@@3KA 000000018005f874     DelayImp:delayhlp.obj
 0003:00003878       ?DloadSectionCommitPermanent@@3KA 000000018005f878     DelayImp:delayhlp.obj
 0003:00003880       ?_Storage@?1???$_Immortalize@V_Iostream_error_category@std@@@std@@YAAEAV_Iostream_error_category@1@XZ@4T?$_Align_type@N$0BA@@1@A 000000018005f880     common.obj
 0003:00003890       ?_Psave@?$_Facetptr@V?$ctype@D@std@@@std@@2PEBVfacet@locale@2@EB 000000018005f890     common.obj
 0003:00003898       ?_Flag@?1???$_Immortalize@V_Iostream_error_category@std@@@std@@YAAEAV_Iostream_error_category@1@XZ@4PEAXEA 000000018005f898     common.obj
 0003:000038a0       ?_OptionsStorage@?1??__local_stdio_printf_options@@9@4_KA 000000018005f8a0     kafka-consumer.obj
 0003:000038a8       ?id@?$num_put@DV?$ostreambuf_iterator@DU?$char_traits@D@std@@@std@@@std@@2V0locale@2@A 000000018005f8a8     kafka-consumer.obj
 0003:000038b0       ?id@?$numpunct@D@std@@2V0locale@2@A 000000018005f8b0     kafka-consumer.obj
 0003:000038b8       ?constructor@KafkaConsumer@NodeKafka@@1V?$Persistent@VFunction@v8@@V?$NonCopyablePersistentTraits@VFunction@v8@@@2@@Nan@@A 000000018005f8b8     kafka-consumer.obj
 0003:000038c0       ?constructor@Producer@NodeKafka@@1V?$Persistent@VFunction@v8@@V?$NonCopyablePersistentTraits@VFunction@v8@@@2@@Nan@@A 000000018005f8c0     producer.obj
 0003:000038c8       ?constructor@Topic@NodeKafka@@1V?$Persistent@VFunction@v8@@V?$NonCopyablePersistentTraits@VFunction@v8@@@2@@Nan@@A 000000018005f8c8     topic.obj
 0003:000038d0       ?constructor@AdminClient@NodeKafka@@1V?$Persistent@VFunction@v8@@V?$NonCopyablePersistentTraits@VFunction@v8@@@2@@Nan@@A 000000018005f8d0     admin.obj
 0003:000038d8       __dyn_tls_init_callback    000000018005f8d8     <common>
 0003:000038e0       __scrt_ucrt_dll_is_in_use  000000018005f8e0     <common>

 entry point at        0001:0001eb40

 Static symbols

 0000:fff99000       .debug$S                   0000000180000000     librdkafka:librdkafka.dll
 0000:fff99000       .debug$S                   0000000180000000     librdkafka:librdkafka.dll
 0000:fff99000       .debug$S                   0000000180000000     node:node.exe
 0000:fff99000       .debug$S                   0000000180000000     librdkafka:librdkafka.dll
 0000:fff99000       .debug$S                   0000000180000000     node:node.exe
 0000:fff99000       .debug$S                   0000000180000000     librdkafka:librdkafka.dll
 0000:fff99000       .debug$S                   0000000180000000     node:node.exe
 0000:fff99000       .debug$S                   0000000180000000     node:node.exe
 0000:fff99000       .debug$S                   0000000180000000     node:node.exe
 0000:fff99000       .debug$S                   0000000180000000     librdkafka:librdkafka.dll
 0000:fff99000       .debug$S                   0000000180000000     node:node.exe
 0000:fff99000       .debug$S                   0000000180000000     node:node.exe
 0000:fff99000       .debug$S                   0000000180000000     node:node.exe
 0000:fff99000       .debug$S                   0000000180000000     librdkafka:librdkafka.dll
 0000:fff99000       .debug$S                   0000000180000000     node:node.exe
 0000:fff99000       .debug$S                   0000000180000000     librdkafka:librdkafka.dll
 0000:fff99000       .debug$S                   0000000180000000     node:node.exe
 0000:fff99000       .debug$S                   0000000180000000     librdkafka:librdkafka.dll
 0000:fff99000       .debug$S                   0000000180000000     node:node.exe
 0000:fff99000       .debug$S                   0000000180000000     node:node.exe
 0000:fff99000       .debug$S                   0000000180000000     node:node.exe
 0000:fff99000       .debug$S                   0000000180000000     node:node.exe
 0000:fff99000       .debug$S                   0000000180000000     node:node.exe
 0000:fff99000       .debug$S                   0000000180000000     node:node.exe
 0000:fff99000       .debug$S                   0000000180000000     node:node.exe
 0000:fff99000       .debug$S                   0000000180000000     node:node.exe
 0000:fff99000       .debug$S                   0000000180000000     node:node.exe
 0000:fff99000       .debug$S                   0000000180000000     node:node.exe
 0000:fff99000       .debug$S                   0000000180000000     node:node.exe
 0000:fff99000       .debug$S                   0000000180000000     node:node.exe
 0000:fff99000       .debug$S                   0000000180000000     node:node.exe
 0000:fff99000       .debug$S                   0000000180000000     node:node.exe
 0000:fff99000       .debug$S                   0000000180000000     node:node.exe
 0000:fff99000       .debug$S                   0000000180000000     node:node.exe
 0000:fff99000       .debug$S                   0000000180000000     node:node.exe
 0000:fff99000       .debug$S                   0000000180000000     node:node.exe
 0000:fff99000       .debug$S                   0000000180000000     node:node.exe
 0000:fff99000       .debug$S                   0000000180000000     node:node.exe
 0000:fff99000       .debug$S                   0000000180000000     node:node.exe
 0000:fff99000       .debug$S                   0000000180000000     node:node.exe
 0000:fff99000       .debug$S                   0000000180000000     node:node.exe
 0000:fff99000       .debug$S                   0000000180000000     node:node.exe
 0000:fff99000       .debug$S                   0000000180000000     node:node.exe
 0000:fff99000       .debug$S                   0000000180000000     node:node.exe
 0000:fff99000       .debug$S                   0000000180000000     node:node.exe
 0000:fff99000       .debug$S                   0000000180000000     node:node.exe
 0000:fff99000       .debug$S                   0000000180000000     node:node.exe
 0000:fff99000       .debug$S                   0000000180000000     node:node.exe
 0000:fff99000       .debug$S                   0000000180000000     node:node.exe
 0000:fff99000       .debug$S                   0000000180000000     node:node.exe
 0000:fff99000       .debug$S                   0000000180000000     node:node.exe
 0000:fff99000       .debug$S                   0000000180000000     node:node.exe
 0000:fff99000       .debug$S                   0000000180000000     node:node.exe
 0000:fff99000       .debug$S                   0000000180000000     node:node.exe
 0000:fff99000       .debug$S                   0000000180000000     node:node.exe
 0000:fff99000       .debug$S                   0000000180000000     node:node.exe
 0000:fff99000       .debug$S                   0000000180000000     node:node.exe
 0000:fff99000       .debug$S                   0000000180000000     node:node.exe
 0000:fff99000       .debug$S                   0000000180000000     node:node.exe
 0000:fff99000       .debug$S                   0000000180000000     node:node.exe
 0000:fff99000       .debug$S                   0000000180000000     node:node.exe
 0000:fff99000       .debug$S                   0000000180000000     node:node.exe
 0000:fff99000       .debug$S                   0000000180000000     node:node.exe
 0000:fff99000       .debug$S                   0000000180000000     node:node.exe
 0000:fff99000       .debug$S                   0000000180000000     node:node.exe
 0000:fff99000       .debug$S                   0000000180000000     node:node.exe
 0000:fff99000       .debug$S                   0000000180000000     node:node.exe
 0000:fff99000       .debug$S                   0000000180000000     node:node.exe
 0000:fff99000       .debug$S                   0000000180000000     node:node.exe
 0000:fff99000       .debug$S                   0000000180000000     node:node.exe
 0000:fff99000       .debug$S                   0000000180000000     node:node.exe
 0000:fff99000       .debug$S                   0000000180000000     node:node.exe
 0000:fff99000       .debug$S                   0000000180000000     node:node.exe
 0000:fff99000       .debug$S                   0000000180000000     node:node.exe
 0000:fff99000       .debug$S                   0000000180000000     node:node.exe
 0000:fff99000       .debug$S                   0000000180000000     node:node.exe
 0000:fff99000       .debug$S                   0000000180000000     node:node.exe
 0000:fff99000       .debug$S                   0000000180000000     node:node.exe
 0000:fff99000       .debug$S                   0000000180000000     node:node.exe
 0000:fff99000       .debug$S                   0000000180000000     node:node.exe
 0000:fff99000       .debug$S                   0000000180000000     node:node.exe
 0000:fff99000       .debug$S                   0000000180000000     node:node.exe
 0000:fff99000       .debug$S                   0000000180000000     node:node.exe
 0000:fff99000       .debug$S                   0000000180000000     node:node.exe
 0000:fff99000       .debug$S                   0000000180000000     node:node.exe
 0000:fff99000       .debug$S                   0000000180000000     node:node.exe
 0000:fff99000       .debug$S                   0000000180000000     node:node.exe
 0000:fff99000       .debug$S                   0000000180000000     node:node.exe
 0000:fff99000       .debug$S                   0000000180000000     node:node.exe
 0000:fff99000       .debug$S                   0000000180000000     node:node.exe
 0000:fff99000       .debug$S                   0000000180000000     node:node.exe
 0000:fff99000       .debug$S                   0000000180000000     node:node.exe
 0000:fff99000       .debug$S                   0000000180000000     node:node.exe
 0000:fff99000       .debug$S                   0000000180000000     node:node.exe
 0000:fff99000       .debug$S                   0000000180000000     node:node.exe
 0000:fff99000       .debug$S                   0000000180000000     node:node.exe
 0000:fff99000       .debug$S                   0000000180000000     node:node.exe
 0000:fff99000       .debug$S                   0000000180000000     node:node.exe
 0000:fff99000       .debug$S                   0000000180000000     node:node.exe
 0000:fff99000       .debug$S                   0000000180000000     node:node.exe
 0000:fff99000       .debug$S                   0000000180000000     node:node.exe
 0000:fff99000       .debug$S                   0000000180000000     node:node.exe
 0000:fff99000       .debug$S                   0000000180000000     node:node.exe
 0000:fff99000       .debug$S                   0000000180000000     node:node.exe
 0000:fff99000       .debug$S                   0000000180000000     node:node.exe
 0000:fff99000       .debug$S                   0000000180000000     node:node.exe
 0000:fff99000       .debug$S                   0000000180000000     node:node.exe
 0000:fff99000       .debug$S                   0000000180000000     node:node.exe
 0000:fff99000       .debug$S                   0000000180000000     node:node.exe
 0000:fff99000       .debug$S                   0000000180000000     node:node.exe
 0000:fff99000       .debug$S                   0000000180000000     node:node.exe
 0000:fff99000       .debug$S                   0000000180000000     node:node.exe
 0000:fff99000       .debug$S                   0000000180000000     node:node.exe
 0000:fff99000       .debug$S                   0000000180000000     node:node.exe
 0000:fff99000       .debug$S                   0000000180000000     node:node.exe
 0000:fff99000       .debug$S                   0000000180000000     node:node.exe
 0000:fff99000       .debug$S                   0000000180000000     node:node.exe
 0000:fff99000       .debug$S                   0000000180000000     node:node.exe
 0000:fff99000       .debug$S                   0000000180000000     node:node.exe
 0000:fff99000       .debug$S                   0000000180000000     kernel32:KERNEL32.dll
 0000:fff99000       .debug$S                   0000000180000000     librdkafkacpp:librdkafkacpp.dll
 0000:fff99000       .debug$S                   0000000180000000     librdkafkacpp:librdkafkacpp.dll
 0000:fff99000       .debug$S                   0000000180000000     librdkafkacpp:librdkafkacpp.dll
 0000:fff99000       .debug$S                   0000000180000000     librdkafkacpp:librdkafkacpp.dll
 0000:fff99000       .debug$S                   0000000180000000     librdkafkacpp:librdkafkacpp.dll
 0000:fff99000       .debug$S                   0000000180000000     librdkafkacpp:librdkafkacpp.dll
 0000:fff99000       .debug$S                   0000000180000000     librdkafkacpp:librdkafkacpp.dll
 0000:fff99000       .debug$S                   0000000180000000     librdkafkacpp:librdkafkacpp.dll
 0000:fff99000       .debug$S                   0000000180000000     librdkafkacpp:librdkafkacpp.dll
 0000:fff99000       .debug$S                   0000000180000000     librdkafkacpp:librdkafkacpp.dll
 0000:fff99000       .debug$S                   0000000180000000     librdkafkacpp:librdkafkacpp.dll
 0000:fff99000       .debug$S                   0000000180000000     librdkafkacpp:librdkafkacpp.dll
 0000:fff99000       .debug$S                   0000000180000000     librdkafkacpp:librdkafkacpp.dll
 0000:fff99000       .debug$S                   0000000180000000     librdkafkacpp:librdkafkacpp.dll
 0000:fff99000       .debug$S                   0000000180000000     librdkafkacpp:librdkafkacpp.dll
 0000:fff99000       .debug$S                   0000000180000000     librdkafkacpp:librdkafkacpp.dll
 0000:fff99000       .debug$S                   0000000180000000     librdkafkacpp:librdkafkacpp.dll
 0000:fff99000       .debug$S                   0000000180000000     librdkafkacpp:librdkafkacpp.dll
 0000:fff99000       .debug$S                   0000000180000000     librdkafkacpp:librdkafkacpp.dll
 0000:fff99000       .debug$S                   0000000180000000     librdkafkacpp:librdkafkacpp.dll
 0000:fff99000       .debug$S                   0000000180000000     librdkafkacpp:librdkafkacpp.dll
 0000:fff99000       .debug$S                   0000000180000000     librdkafkacpp:librdkafkacpp.dll
 0000:fff99000       .debug$S                   0000000180000000     librdkafkacpp:librdkafkacpp.dll
 0000:fff99000       .debug$S                   0000000180000000     librdkafkacpp:librdkafkacpp.dll
 0000:fff99000       .debug$S                   0000000180000000     librdkafkacpp:librdkafkacpp.dll
 0000:fff99000       .debug$S                   0000000180000000     librdkafkacpp:librdkafkacpp.dll
 0000:fff99000       .debug$S                   0000000180000000     librdkafkacpp:librdkafkacpp.dll
 0000:fff99000       .debug$S                   0000000180000000     librdkafkacpp:librdkafkacpp.dll
 0000:fff99000       .debug$S                   0000000180000000     librdkafkacpp:librdkafkacpp.dll
 0000:fff99000       .debug$S                   0000000180000000     librdkafkacpp:librdkafkacpp.dll
 0000:fff99000       .debug$S                   0000000180000000     librdkafkacpp:librdkafkacpp.dll
 0000:fff99000       .debug$S                   0000000180000000     librdkafkacpp:librdkafkacpp.dll
 0000:fff99000       .debug$S                   0000000180000000     librdkafkacpp:librdkafkacpp.dll
 0000:fff99000       .debug$S                   0000000180000000     librdkafka:librdkafka.dll
 0000:fff99000       .debug$S                   0000000180000000     librdkafka:librdkafka.dll
 0000:fff99000       .debug$S                   0000000180000000     librdkafka:librdkafka.dll
 0000:fff99000       .debug$S                   0000000180000000     librdkafka:librdkafka.dll
 0000:fff99000       .debug$S                   0000000180000000     librdkafka:librdkafka.dll
 0000:fff99000       .debug$S                   0000000180000000     librdkafka:librdkafka.dll
 0000:fff99000       .debug$S                   0000000180000000     kernel32:KERNEL32.dll
 0000:fff99000       .debug$S                   0000000180000000     kernel32:KERNEL32.dll
 0000:fff99000       .debug$S                   0000000180000000     kernel32:KERNEL32.dll
 0000:fff99000       .debug$S                   0000000180000000     kernel32:KERNEL32.dll
 0000:fff99000       .debug$S                   0000000180000000     kernel32:KERNEL32.dll
 0000:fff99000       .debug$S                   0000000180000000     kernel32:KERNEL32.dll
 0000:fff99000       .debug$S                   0000000180000000     kernel32:KERNEL32.dll
 0000:fff99000       .debug$S                   0000000180000000     kernel32:KERNEL32.dll
 0000:fff99000       .debug$S                   0000000180000000     kernel32:KERNEL32.dll
 0000:fff99000       .debug$S                   0000000180000000     kernel32:KERNEL32.dll
 0000:fff99000       .debug$S                   0000000180000000     kernel32:KERNEL32.dll
 0000:fff99000       .debug$S                   0000000180000000     kernel32:KERNEL32.dll
 0000:fff99000       .debug$S                   0000000180000000     kernel32:KERNEL32.dll
 0000:fff99000       .debug$S                   0000000180000000     kernel32:KERNEL32.dll
 0000:fff99000       .debug$S                   0000000180000000     kernel32:KERNEL32.dll
 0000:fff99000       .debug$S                   0000000180000000     kernel32:KERNEL32.dll
 0000:fff99000       .debug$S                   0000000180000000     kernel32:KERNEL32.dll
 0000:fff99000       .debug$S                   0000000180000000     kernel32:KERNEL32.dll
 0000:fff99000       .debug$S                   0000000180000000     kernel32:KERNEL32.dll
 0000:fff99000       .debug$S                   0000000180000000     kernel32:KERNEL32.dll
 0000:fff99000       .debug$S                   0000000180000000     kernel32:KERNEL32.dll
 0000:fff99000       .debug$S                   0000000180000000     kernel32:KERNEL32.dll
 0000:fff99000       .debug$S                   0000000180000000     kernel32:KERNEL32.dll
 0000:fff99000       .debug$S                   0000000180000000     kernel32:KERNEL32.dll
 0000:fff99000       .debug$S                   0000000180000000     kernel32:KERNEL32.dll
 0000:fff99000       .debug$S                   0000000180000000     kernel32:KERNEL32.dll
 0000:fff99000       .debug$S                   0000000180000000     kernel32:KERNEL32.dll
 0000:fff99000       .debug$S                   0000000180000000     kernel32:KERNEL32.dll
 0000:fff99000       .debug$S                   0000000180000000     kernel32:KERNEL32.dll
 0000:fff99000       .debug$S                   0000000180000000     kernel32:KERNEL32.dll
 0000:fff99000       .debug$S                   0000000180000000     kernel32:KERNEL32.dll
 0000:fff99000       .debug$S                   0000000180000000     kernel32:KERNEL32.dll
 0000:fff99000       .debug$S                   0000000180000000     kernel32:KERNEL32.dll
 0000:fff99000       .debug$S                   0000000180000000     kernel32:KERNEL32.dll
 0000:fff99000       .debug$S                   0000000180000000     kernel32:KERNEL32.dll
 0000:fff99000       .debug$S                   0000000180000000     kernel32:KERNEL32.dll
 0000:fff99000       .debug$S                   0000000180000000     kernel32:KERNEL32.dll
 0000:fff99000       .debug$S                   0000000180000000     kernel32:KERNEL32.dll
 0000:fff99000       .debug$S                   0000000180000000     kernel32:KERNEL32.dll
 0000:fff99000       .debug$S                   0000000180000000     kernel32:KERNEL32.dll
 0000:fff99000       .debug$S                   0000000180000000     kernel32:KERNEL32.dll
 0000:fff99000       .debug$S                   0000000180000000     kernel32:KERNEL32.dll
 0000:fff99000       .debug$S                   0000000180000000     kernel32:KERNEL32.dll
 0000:fff99000       .debug$S                   0000000180000000     kernel32:KERNEL32.dll
 0000:fff99000       .debug$S                   0000000180000000     kernel32:KERNEL32.dll
 0000:fff99000       .debug$S                   0000000180000000     kernel32:KERNEL32.dll
 0000:fff99000       .debug$S                   0000000180000000     kernel32:KERNEL32.dll
 0000:fff99000       .debug$S                   0000000180000000     kernel32:KERNEL32.dll
 0000:fff99000       .debug$S                   0000000180000000     kernel32:KERNEL32.dll
 0000:fff99000       .debug$S                   0000000180000000     kernel32:KERNEL32.dll
 0000:fff99000       .debug$S                   0000000180000000     kernel32:KERNEL32.dll
 0000:fff99000       .debug$S                   0000000180000000     kernel32:KERNEL32.dll
 0000:fff99000       .debug$S                   0000000180000000     kernel32:KERNEL32.dll
 0000:fff99000       .debug$S                   0000000180000000     kernel32:KERNEL32.dll
 0000:fff99000       .debug$S                   0000000180000000     kernel32:KERNEL32.dll
 0000:fff99000       .debug$S                   0000000180000000     kernel32:KERNEL32.dll
 0000:fff99000       .debug$S                   0000000180000000     kernel32:KERNEL32.dll
 0000:fff99000       .debug$S                   0000000180000000     kernel32:KERNEL32.dll
 0000:fff99000       .debug$S                   0000000180000000     kernel32:KERNEL32.dll
 0000:fff99000       .debug$S                   0000000180000000     kernel32:KERNEL32.dll
 0000:fff99000       .debug$S                   0000000180000000     kernel32:KERNEL32.dll
 0000:fff99000       .debug$S                   0000000180000000     kernel32:KERNEL32.dll
 0000:fff99000       .debug$S                   0000000180000000     kernel32:KERNEL32.dll
 0000:fff99000       .debug$S                   0000000180000000     kernel32:KERNEL32.dll
 0000:fff99000       .debug$S                   0000000180000000     kernel32:KERNEL32.dll
 0000:fff99000       .debug$S                   0000000180000000     kernel32:KERNEL32.dll
 0000:fff99000       .debug$S                   0000000180000000     kernel32:KERNEL32.dll
 0000:fff99000       .debug$S                   0000000180000000     kernel32:KERNEL32.dll
 0000:fff99000       .debug$S                   0000000180000000     kernel32:KERNEL32.dll
 0000:fff99000       .debug$S                   0000000180000000     kernel32:KERNEL32.dll
 0000:fff99000       .debug$S                   0000000180000000     kernel32:KERNEL32.dll
 0000:fff99000       .debug$S                   0000000180000000     kernel32:KERNEL32.dll
 0000:fff99000       .debug$S                   0000000180000000     kernel32:KERNEL32.dll
 0000:fff99000       .debug$S                   0000000180000000     kernel32:KERNEL32.dll
 0000:fff99000       .debug$S                   0000000180000000     kernel32:KERNEL32.dll
 0000:fff99000       .debug$S                   0000000180000000     kernel32:KERNEL32.dll
 0000:fff99000       .debug$S                   0000000180000000     kernel32:KERNEL32.dll
 0000:fff99000       .debug$S                   0000000180000000     kernel32:KERNEL32.dll
 0000:fff99000       .debug$S                   0000000180000000     kernel32:KERNEL32.dll
 0000:fff99000       .debug$S                   0000000180000000     kernel32:KERNEL32.dll
 0000:fff99000       .debug$S                   0000000180000000     kernel32:KERNEL32.dll
 0000:fff99000       .debug$S                   0000000180000000     kernel32:KERNEL32.dll
 0000:fff99000       .debug$S                   0000000180000000     kernel32:KERNEL32.dll
 0000:fff99000       .debug$S                   0000000180000000     kernel32:KERNEL32.dll
 0000:fff99000       .debug$S                   0000000180000000     kernel32:KERNEL32.dll
 0000:fff99000       .debug$S                   0000000180000000     kernel32:KERNEL32.dll
 0000:fff99000       .debug$S                   0000000180000000     kernel32:KERNEL32.dll
 0000:fff99000       .debug$S                   0000000180000000     kernel32:KERNEL32.dll
 0000:fff99000       .debug$S                   0000000180000000     kernel32:KERNEL32.dll
 0000:fff99000       .debug$S                   0000000180000000     kernel32:KERNEL32.dll
 0000:fff99000       .debug$S                   0000000180000000     kernel32:KERNEL32.dll
 0000:fff99000       .debug$S                   0000000180000000     librdkafka:librdkafka.dll
 0000:fff99000       .debug$S                   0000000180000000     librdkafka:librdkafka.dll
 0000:fff99000       .debug$S                   0000000180000000     librdkafka:librdkafka.dll
 0000:fff99000       .debug$S                   0000000180000000     librdkafka:librdkafka.dll
 0000:fff99000       .debug$S                   0000000180000000     librdkafka:librdkafka.dll
 0000:fff99000       .debug$S                   0000000180000000     librdkafka:librdkafka.dll
 0000:fff99000       .debug$S                   0000000180000000     librdkafka:librdkafka.dll
 0000:fff99000       .debug$S                   0000000180000000     librdkafka:librdkafka.dll
 0000:fff99000       .debug$S                   0000000180000000     librdkafka:librdkafka.dll
 0000:fff99000       .debug$S                   0000000180000000     librdkafka:librdkafka.dll
 0000:fff99000       .debug$S                   0000000180000000     librdkafka:librdkafka.dll
 0000:fff99000       .debug$S                   0000000180000000     librdkafka:librdkafka.dll
 0000:fff99000       .debug$S                   0000000180000000     kernel32:KERNEL32.dll
 0000:fff99000       .debug$S                   0000000180000000     kernel32:KERNEL32.dll
 0000:fff99000       .debug$S                   0000000180000000     kernel32:KERNEL32.dll
 0000:fff99000       .debug$S                   0000000180000000     kernel32:KERNEL32.dll
 0000:fff99000       .debug$S                   0000000180000000     kernel32:KERNEL32.dll
 0000:fff99000       .debug$S                   0000000180000000     node-librdkafka.exp
 0001:00000000       ??__E?constructor@KafkaConsumer@NodeKafka@@1V?$Persistent@VFunction@v8@@V?$NonCopyablePersistentTraits@VFunction@v8@@@2@@Nan@@A@@YAXXZ 0000000180001000 f   kafka-consumer.obj
 0001:00000020       ??__E?constructor@Producer@NodeKafka@@1V?$Persistent@VFunction@v8@@V?$NonCopyablePersistentTraits@VFunction@v8@@@2@@Nan@@A@@YAXXZ 0000000180001020 f   producer.obj
 0001:00000040       ??__E?constructor@Topic@NodeKafka@@1V?$Persistent@VFunction@v8@@V?$NonCopyablePersistentTraits@VFunction@v8@@@2@@Nan@@A@@YAXXZ 0000000180001040 f   topic.obj
 0001:00000060       ??__E?constructor@AdminClient@NodeKafka@@1V?$Persistent@VFunction@v8@@V?$NonCopyablePersistentTraits@VFunction@v8@@@2@@Nan@@A@@YAXXZ 0000000180001060 f   admin.obj
 0001:00000078       ??__Einitlocks@std@@YAXXZ  0000000180001078 f   libcpmt:xlock.obj
 0001:00000098       ??__E_Fac_tidy_reg@std@@YAXXZ 0000000180001098 f   libcpmt:locale0.obj
 0001:000000a4       ??__Eclassic_locale@std@@YAXXZ 00000001800010a4 f   libcpmt:locale0.obj
 0001:000000b0       ??__Ecerr@std@@YAXXZ       00000001800010b0 f   libcpmt:cerr.obj
 0001:000000e0       ??__Eferr@std@@YAXXZ       00000001800010e0 f   libcpmt:cerr.obj
 0001:00000130       ??__Einit_cerr@std@@YAXXZ  0000000180001130 f   libcpmt:cerr.obj
 0001:00000168       ??__Einitlocks@@YAXXZ      0000000180001168 f   libcpmt:cerr.obj
 0001:00000188       ??__Ecout@std@@YAXXZ       0000000180001188 f   libcpmt:cout.obj
 0001:000001b8       ??__Efout@std@@YAXXZ       00000001800011b8 f   libcpmt:cout.obj
 0001:00000208       ??__Einit_cout@std@@YAXXZ  0000000180001208 f   libcpmt:cout.obj
 0001:00000214       ??__Einitlocks@@YAXXZ      0000000180001214 f   libcpmt:cout.obj
 0001:00000234       ??__Einit_atexit@@YAXXZ    0000000180001234 f   libcpmt:iosptrs.obj
 0001:00000240       ??__Einitlocks@std@@YAXXZ  0000000180001240 f   libcpmt:iosptrs.obj
 0001:00000260       ?FunctionCallbackWrapper@imp@Nan@@YAXAEBV?$FunctionCallbackInfo@VValue@v8@@@v8@@@Z 0000000180001260 f   binding.obj
 0001:000005b0       ?RdKafkaCleanup@@YAXPEAX@Z 00000001800015b0 f   binding.obj
 0001:000010c0       _register_kafka            00000001800020c0 f   binding.obj
 0001:0001ae30       ?load_exe_hook@@YAP6A_JXZIPEAUDelayLoadInfo@@@Z 000000018001be30 f   win_delay_load_hook.obj
 0001:0001bb68       tidy_global                000000018001cb68 f   libcpmt:locale0.obj
 0001:0001bb9c       ??$_Reallocate_grow_by@V<lambda_319d5e083f45f90dcdce5dce53cbb275>@@D@?$basic_string@DU?$char_traits@D@std@@V?$allocator@D@2@@std@@QEAAAEAV01@_KV<lambda_319d5e083f45f90dcdce5dce53cbb275>@@D@Z 000000018001cb9c f   libcpmt:cerr.obj
 0001:0001c718       report_memory_leaks        000000018001d718 f i libucrt:initialization.obj
 0001:0001c718       uninitialize_c             000000018001d718 f i libucrt:initialization.obj
 0001:0001c718       initialize_global_state_isolation 000000018001d718 f i libucrt:initialization.obj
 0001:0001c718       initialize_environment     000000018001d718 f i libucrt:initialization.obj
 0001:0001c718       uninitialize_global_state_isolation 000000018001d718 f i libucrt:initialization.obj
 0001:0001cca4       no_op_initialize           000000018001dca4 f i libucrt:wsetlocale.obj
 0001:0001d780       ?initialize_pointers@@YAHXZ 000000018001e780 f   libcpmt:winapisupp.obj
 0001:0001e380       $$000000                   000000018001f380     LIBCMT:amdsecgs.obj
 0001:0001e810       ?dllmain_crt_dispatch@@YAHQEAUHINSTANCE__@@KQEAX@Z 000000018001f810 f   LIBCMT:dll_dllmain.obj
 0001:0001e860       ?dllmain_crt_process_attach@@YAHQEAUHINSTANCE__@@QEAX@Z 000000018001f860 f   LIBCMT:dll_dllmain.obj
 0001:0001e97c       ?dllmain_crt_process_detach@@YAH_N@Z 000000018001f97c f   LIBCMT:dll_dllmain.obj
 0001:0001ea0c       ?dllmain_dispatch@@YAHQEAUHINSTANCE__@@KQEAX@Z 000000018001fa0c f   LIBCMT:dll_dllmain.obj
 0001:0001ec80       $$000000                   000000018001fc80     LIBCMT:chkstk.obj
 0001:0001ee9c       capture_current_context    000000018001fe9c f   LIBCMT:gs_report.obj
 0001:0001ef0c       capture_previous_context   000000018001ff0c f   LIBCMT:gs_report.obj
 0001:0001fc50       $$000000                   0000000180020c50     libvcruntime:memcpy.obj
 0001:0001fd07       MoveSmall                  0000000180020d07     libvcruntime:memcpy.obj
 0001:000200c0       $$000000                   00000001800210c0     libvcruntime:memset.obj
 0001:000201bc       MsetTab                    00000001800211bc     libvcruntime:memset.obj
 0001:000203b0       $$000000                   00000001800213b0     libvcruntime:memchr.obj
 0001:00020430       $$000000                   0000000180021430     libvcruntime:memcmp.obj
 0001:00020ae0       ??$BuildCatchObjectHelperInternal@$$CBU_s_HandlerType@@@@YAHPEAUEHExceptionRecord@@PEAXPEBU_s_HandlerType@@PEBU_s_CatchableType@@@Z 0000000180021ae0 f   libvcruntime:frame.obj
 0001:00020ce0       ??$BuildCatchObjectInternal@$$CBU_s_HandlerType@@@@YAXPEAUEHExceptionRecord@@PEAXPEBU_s_HandlerType@@PEBU_s_CatchableType@@@Z 0000000180021ce0 f   libvcruntime:frame.obj
 0001:00020da0       ??$CatchIt@V__FrameHandler3@@@@YAXPEAUEHExceptionRecord@@PEA_KPEAU_CONTEXT@@PEAU_xDISPATCHER_CONTEXT@@PEBU_s_FuncInfo@@PEBU_s_HandlerType@@PEBU_s_CatchableType@@PEBU_s_TryBlockMapEntry@@H1EE@Z 0000000180021da0 f   libvcruntime:frame.obj
 0001:00020e70       ??$FindHandler@V__FrameHandler3@@@@YAXPEAUEHExceptionRecord@@PEA_KPEAU_CONTEXT@@PEAU_xDISPATCHER_CONTEXT@@PEBU_s_FuncInfo@@EH1@Z 0000000180021e70 f   libvcruntime:frame.obj
 0001:000212d4       ??$FindHandlerForForeignException@V__FrameHandler3@@@@YAXPEAUEHExceptionRecord@@PEA_KPEAU_CONTEXT@@PEAU_xDISPATCHER_CONTEXT@@PEBU_s_FuncInfo@@HH1@Z 00000001800222d4 f   libvcruntime:frame.obj
 0001:00021adc       ?ExFilterRethrow@@YAHPEAU_EXCEPTION_POINTERS@@PEAUEHExceptionRecord@@PEAH@Z 0000000180022adc f   libvcruntime:frame.obj
 0001:00021d90       ?IsInExceptionSpec@@YAEPEAUEHExceptionRecord@@PEBU_s_ESTypeList@@@Z 0000000180022d90 f   libvcruntime:frame.obj
 0001:00021e68       ?Is_bad_exception_allowed@@YAEPEBU_s_ESTypeList@@@Z 0000000180022e68 f   libvcruntime:frame.obj
 0001:00021f98       ?try_get_function@@YAPEAXW4function_id@?A0xa3b92138@@QEBDQEBW4module_id@2@2@Z 0000000180022f98 f   libvcruntime:winapi_downlevel.obj
 0001:00022370       $$000000                   0000000180023370     libvcruntime:notify.obj
 0001:000223f0       $$000000                   00000001800233f0     libvcruntime:handlers.obj
 0001:00022498       ??$common_assert_to_message_box@_W@@YAXQEB_W0IQEAX@Z 0000000180023498 f   libucrt:assert.obj
 0001:0002255c       ??$common_assert_to_message_box_build_string@_W@@YAXQEA_W_KQEB_W2IQEAX@Z 000000018002355c f   libucrt:assert.obj
 0001:00022a60       ??$common_assert_to_stderr@_W@@YAXQEB_W0I@Z 0000000180023a60 f   libucrt:assert.obj
 0001:00022bd0       ?get_assert_format@@YAPEB_W_W@Z 0000000180023bd0 f   libucrt:assert.obj
 0001:00023038       ??$?RV<lambda_0d412022a4b28cc8a401ea49574e8ae6>@@AEAV<lambda_a775ed57af18ba8e4d5dc780aa9068fe>@@V<lambda_975a71a6baa488a08f4e15f6b0339b9e>@@@?$__crt_seh_guarded_call@H@@QEAAH$$QEAV<lambda_0d412022a4b28cc8a401ea49574e8ae6>@@AEAV<lambda_a775ed57af18ba8e4d5dc780aa9068fe>@@$$QEAV<lambda_975a71a6baa488a08f4e15f6b0339b9e>@@@Z 0000000180024038 f   libucrt:output.obj
 0001:00023078       ??$common_vsprintf@Vstandard_base@__crt_stdio_output@@_W@@YAH_KQEA_W0QEB_WQEAU__crt_locale_pointers@@QEAD@Z 0000000180024078 f   libucrt:output.obj
 0001:000236e8       ??R<lambda_a775ed57af18ba8e4d5dc780aa9068fe>@@QEBAHXZ 00000001800246e8 f   libucrt:output.obj
 0001:0002521c       ??$common_timespec_get@U_timespec64@@@@YAHQEAU_timespec64@@H@Z 000000018002621c f   libucrt:time.obj
 0001:00025534       ??$?RV<lambda_9bd929c17696992ce54f1d748594fc62>@@AEAV<lambda_082c17da81b0962e08c0587ee0fac50c>@@V<lambda_9c08ac857f4975304d44e9f601d9b878>@@@?$__crt_seh_guarded_call@PEAD@@QEAAPEAD$$QEAV<lambda_9bd929c17696992ce54f1d748594fc62>@@AEAV<lambda_082c17da81b0962e08c0587ee0fac50c>@@$$QEAV<lambda_9c08ac857f4975304d44e9f601d9b878>@@@Z 0000000180026534 f   libucrt:setlocale.obj
 0001:00025574       ??R<lambda_082c17da81b0962e08c0587ee0fac50c>@@QEBAPEADXZ 0000000180026574 f   libucrt:setlocale.obj
 0001:00025b38       ??$?RV<lambda_842d9ff0dc9ef11c61343bbaebe7f885>@@AEAV<lambda_c5860995281e5c4ce005b3de8f5874ee>@@V<lambda_d90129c13df834fdcbf8d2b88dafcf2d>@@@?$__crt_seh_guarded_call@X@@QEAAX$$QEAV<lambda_842d9ff0dc9ef11c61343bbaebe7f885>@@AEAV<lambda_c5860995281e5c4ce005b3de8f5874ee>@@$$QEAV<lambda_d90129c13df834fdcbf8d2b88dafcf2d>@@@Z 0000000180026b38 f   libucrt:fflush.obj
 0001:00025bd4       ??$?RV<lambda_886d6c58226a84441f68b9f2b8217b83>@@AEAV<lambda_ab61a845afdef5b7c387490eaf3616ee>@@V<lambda_f7f22ab5edc0698d5f6905b0d3f44752>@@@?$__crt_seh_guarded_call@X@@QEAAX$$QEAV<lambda_886d6c58226a84441f68b9f2b8217b83>@@AEAV<lambda_ab61a845afdef5b7c387490eaf3616ee>@@$$QEAV<lambda_f7f22ab5edc0698d5f6905b0d3f44752>@@@Z 0000000180026bd4 f   libucrt:fflush.obj
 0001:00025cb4       ??$?RV<lambda_c376a267cfb53b6959b3b692ec76b120>@@AEAV<lambda_9a32fed5bf61b6b509b2d3f6003082a1>@@V<lambda_572fbb9fa0ab338edf41edfd4b5fcc8d>@@@?$__crt_seh_guarded_call@H@@QEAAH$$QEAV<lambda_c376a267cfb53b6959b3b692ec76b120>@@AEAV<lambda_9a32fed5bf61b6b509b2d3f6003082a1>@@$$QEAV<lambda_572fbb9fa0ab338edf41edfd4b5fcc8d>@@@Z 0000000180026cb4 f   libucrt:fflush.obj
 0001:00025cf4       ?common_flush_all@@YAH_N@Z 0000000180026cf4 f   libucrt:fflush.obj
 0001:000264f0       ?common_fseek@@YAHV__crt_stdio_stream@@_JH@Z 00000001800274f0 f   libucrt:fseek.obj
 0001:0002655c       ?common_fseek_binary_mode_read_only_fast_track_nolock@@YA_NV__crt_stdio_stream@@_JH@Z 000000018002755c f   libucrt:fseek.obj
 0001:00026640       ?common_fseek_nolock@@YAHV__crt_stdio_stream@@_JH@Z 0000000180027640 f   libucrt:fseek.obj
 0001:00026700       ??$?RV<lambda_bdbcead8b570fa3d5ec6d9679862a6e5>@@AEAV<lambda_96f4279ff90247a4c5c5d9824f56f8c1>@@V<lambda_4606be27f17b5e5579e09050fab91818>@@@?$__crt_seh_guarded_call@_K@@QEAA_K$$QEAV<lambda_bdbcead8b570fa3d5ec6d9679862a6e5>@@AEAV<lambda_96f4279ff90247a4c5c5d9824f56f8c1>@@$$QEAV<lambda_4606be27f17b5e5579e09050fab91818>@@@Z 0000000180027700 f   libucrt:fwrite.obj
 0001:00026740       ??R<lambda_96f4279ff90247a4c5c5d9824f56f8c1>@@QEBA_KXZ 0000000180027740 f   libucrt:fwrite.obj
 0001:000269d4       ??$?RV<lambda_84ec643ea9557e2f7dc01bb0e9624395>@@AEAV<lambda_ca71763b3c0644891230e4f79ea54fa6>@@V<lambda_439a761618c59b0600e24586724d733b>@@@?$__crt_seh_guarded_call@H@@QEAAH$$QEAV<lambda_84ec643ea9557e2f7dc01bb0e9624395>@@AEAV<lambda_ca71763b3c0644891230e4f79ea54fa6>@@$$QEAV<lambda_439a761618c59b0600e24586724d733b>@@@Z 00000001800279d4 f   libucrt:setvbuf.obj
 0001:00026a14       ??R<lambda_ca71763b3c0644891230e4f79ea54fa6>@@QEBAHXZ 0000000180027a14 f   libucrt:setvbuf.obj
 0001:00027b3c       memcpy_s                   0000000180028b3c f   libucrt:strtod.obj
 0001:00027b3c       memcpy_s                   0000000180028b3c f   libucrt:cfout.obj
 0001:00027bd0       $$000000                   0000000180028bd0     libucrt:pow.obj
 0001:00029270       $$000000                   000000018002a270     libucrt:powf.obj
 0001:0002a3dc       ?internal_isupper_l@@YA_NHQEAU__crt_locale_pointers@@@Z 000000018002b3dc f   libucrt:tolower_toupper.obj
 0001:0002a9ec       ??$?RV<lambda_d80eeec6fff315bfe5c115232f3240e3>@@AEAV<lambda_6e4b09c48022b2350581041d5f6b0c4c>@@V<lambda_2358e3775559c9db80273638284d5e45>@@@?$__crt_seh_guarded_call@X@@QEAAX$$QEAV<lambda_d80eeec6fff315bfe5c115232f3240e3>@@AEAV<lambda_6e4b09c48022b2350581041d5f6b0c4c>@@$$QEAV<lambda_2358e3775559c9db80273638284d5e45>@@@Z 000000018002b9ec f   libucrt:exit.obj
 0001:0002aa24       ??R<lambda_6e4b09c48022b2350581041d5f6b0c4c>@@QEBA@XZ 000000018002ba24 f   libucrt:exit.obj
 0001:0002aae8       ?atexit_exception_filter@@YAHK@Z 000000018002bae8 f   libucrt:exit.obj
 0001:0002aaf4       ?common_exit@@YAXHW4_crt_exit_cleanup_mode@@W4_crt_exit_return_mode@@@Z 000000018002baf4 f   libucrt:exit.obj
 0001:0002abb0       ?exit_or_terminate_process@@YAXI@Z 000000018002bbb0 f   libucrt:exit.obj
 0001:0002abfc       ?try_cor_exit_process@@YAXI@Z 000000018002bbfc f   libucrt:exit.obj
 0001:0002ac84       ??$parse_command_line@D@@YAXPEADPEAPEAD0PEA_K2@Z 000000018002bc84 f   libucrt:argv_parsing.obj
 0001:0002b030       ??$common_initialize_environment_nolock@D@@YAHXZ 000000018002c030 f   libucrt:environment_initialization.obj
 0001:0002b09c       ??$create_environment@D@@YAQEAPEADQEAD@Z 000000018002c09c f   libucrt:environment_initialization.obj
 0001:0002b1a4       ??$free_environment@D@@YAXQEAPEAD@Z 000000018002c1a4 f   libucrt:environment_initialization.obj
 0001:0002b1a4       ??$free_environment@_W@@YAXQEAPEA_W@Z 000000018002c1a4 f   libucrt:environment_initialization.obj
 0001:0002b1e8       ??$uninitialize_environment_internal@D@@YAXAEAPEAPEAD@Z 000000018002c1e8 f   libucrt:environment_initialization.obj
 0001:0002b204       ??$uninitialize_environment_internal@_W@@YAXAEAPEAPEA_W@Z 000000018002c204 f   libucrt:environment_initialization.obj
 0001:0002b260       ??$?RV<lambda_638799b9deba96c50f710eeac98168cd>@@AEAV<lambda_22ebabd17bc4fa466a2aca6d8deb888d>@@V<lambda_a6f7d7db0129f75315ebf26d50c089f1>@@@?$__crt_seh_guarded_call@H@@QEAAH$$QEAV<lambda_638799b9deba96c50f710eeac98168cd>@@AEAV<lambda_22ebabd17bc4fa466a2aca6d8deb888d>@@$$QEAV<lambda_a6f7d7db0129f75315ebf26d50c089f1>@@@Z 000000018002c260 f   libucrt:onexit.obj
 0001:0002b29c       ??$?RV<lambda_7777bce6b2f8c936911f934f8298dc43>@@AEAV<lambda_f03950bc5685219e0bcd2087efbe011e>@@V<lambda_3883c3dff614d5e0c5f61bb1ac94921c>@@@?$__crt_seh_guarded_call@H@@QEAAH$$QEAV<lambda_7777bce6b2f8c936911f934f8298dc43>@@AEAV<lambda_f03950bc5685219e0bcd2087efbe011e>@@$$QEAV<lambda_3883c3dff614d5e0c5f61bb1ac94921c>@@@Z 000000018002c29c f   libucrt:onexit.obj
 0001:0002b2d8       ??R<lambda_22ebabd17bc4fa466a2aca6d8deb888d>@@QEBAHXZ 000000018002c2d8 f   libucrt:onexit.obj
 0001:0002b488       ??R<lambda_f03950bc5685219e0bcd2087efbe011e>@@QEBAHXZ 000000018002c488 f   libucrt:onexit.obj
 0001:0002b65c       initialize_global_variables 000000018002c65c f   libucrt:initialization.obj
 0001:0002b670       initialize_c               000000018002c670 f   libucrt:initialization.obj
 0001:0002b694       uninitialize_environment   000000018002c694 f   libucrt:initialization.obj
 0001:0002b6a4       initialize_pointers        000000018002c6a4 f   libucrt:initialization.obj
 0001:0002b6e4       uninitialize_vcruntime     000000018002c6e4 f   libucrt:initialization.obj
 0001:0002b6ec       uninitialize_allocated_memory 000000018002c6ec f   libucrt:initialization.obj
 0001:0002b72c       uninitialize_allocated_io_buffers 000000018002c72c f   libucrt:initialization.obj
 0001:0002c020       $$000000                   000000018002d020     libucrt:strncmp.obj
 0001:0002c0b8       ??$common_xtox@K_W@@YAHKQEA_W_KI_N@Z 000000018002d0b8 f   libucrt:xtoa.obj
 0001:0002c18c       ??$common_xtox_s@K_W@@YAHKQEA_W_KI_N@Z 000000018002d18c f   libucrt:xtoa.obj
 0001:0002c59c       ??$?RV<lambda_450d765d439847d4c735a33c368b5fc0>@@AEAV<lambda_44731a7d0e6d81c3e6aa82d741081786>@@V<lambda_601a2a7da3b7a96e9554ac7215c4b07c>@@@?$__crt_seh_guarded_call@P6AXH@Z@@QEAAP6AXH@Z$$QEAV<lambda_450d765d439847d4c735a33c368b5fc0>@@AEAV<lambda_44731a7d0e6d81c3e6aa82d741081786>@@$$QEAV<lambda_601a2a7da3b7a96e9554ac7215c4b07c>@@@Z 000000018002d59c f   libucrt:signal.obj
 0001:0002c8a0       ??$?RV<lambda_0ae27a3a962d80f24befdcbee591983d>@@AEAV<lambda_8d0ee55de4b1038c4002e0adecdf1839>@@V<lambda_dc504788e8f1664fe9b84e20bfb512f2>@@@?$__crt_seh_guarded_call@X@@QEAAX$$QEAV<lambda_0ae27a3a962d80f24befdcbee591983d>@@AEAV<lambda_8d0ee55de4b1038c4002e0adecdf1839>@@$$QEAV<lambda_dc504788e8f1664fe9b84e20bfb512f2>@@@Z 000000018002d8a0 f   libucrt:per_thread_data.obj
 0001:0002c8e0       ??$?RV<lambda_2d41944a1d46af3157314b8a01080d33>@@AEAV<lambda_8f455de75cd7d7f24b4096f044d8b9e6>@@V<lambda_aa500f224e6afead328df44964fe2772>@@@?$__crt_seh_guarded_call@X@@QEAAX$$QEAV<lambda_2d41944a1d46af3157314b8a01080d33>@@AEAV<lambda_8f455de75cd7d7f24b4096f044d8b9e6>@@$$QEAV<lambda_aa500f224e6afead328df44964fe2772>@@@Z 000000018002d8e0 f   libucrt:per_thread_data.obj
 0001:0002c920       ??$?RV<lambda_aa87e3671a710a21b5dc78c0bdf72e11>@@AEAV<lambda_92619d2358a28f41a33ba319515a20b9>@@V<lambda_6992ecaafeb10aed2b74cb1fae11a551>@@@?$__crt_seh_guarded_call@X@@QEAAX$$QEAV<lambda_aa87e3671a710a21b5dc78c0bdf72e11>@@AEAV<lambda_92619d2358a28f41a33ba319515a20b9>@@$$QEAV<lambda_6992ecaafeb10aed2b74cb1fae11a551>@@@Z 000000018002d920 f   libucrt:per_thread_data.obj
 0001:0002c968       ??$?RV<lambda_f2e299630e499de9f9a165e60fcd3db5>@@AEAV<lambda_2ae9d31cdba2644fcbeaf08da7c24588>@@V<lambda_40d01ff24d0e7b3814fdbdcee8eab3c7>@@@?$__crt_seh_guarded_call@X@@QEAAX$$QEAV<lambda_f2e299630e499de9f9a165e60fcd3db5>@@AEAV<lambda_2ae9d31cdba2644fcbeaf08da7c24588>@@$$QEAV<lambda_40d01ff24d0e7b3814fdbdcee8eab3c7>@@@Z 000000018002d968 f   libucrt:per_thread_data.obj
 0001:0002c9c8       ?construct_ptd_array@@YAXQEAU__acrt_ptd@@@Z 000000018002d9c8 f   libucrt:per_thread_data.obj
 0001:0002ca98       ?destroy_fls@@YAXPEAX@Z    000000018002da98 f   libucrt:per_thread_data.obj
 0001:0002cab8       ?destroy_ptd_array@@YAXQEAU__acrt_ptd@@@Z 000000018002dab8 f   libucrt:per_thread_data.obj
 0001:0002cbb0       ?replace_current_thread_locale_nolock@@YAXQEAU__acrt_ptd@@QEAU__crt_locale_data@@@Z 000000018002dbb0 f   libucrt:per_thread_data.obj
 0001:0002d3e8       ?fp_format_a@@YAHQEBNPEAD_KQEAD2H_NIQEAU__crt_locale_pointers@@@Z 000000018002e3e8 f   libucrt:cvt.obj
 0001:0002d758       ?fp_format_e@@YAHQEBNQEAD_K12H_NIQEAU__crt_locale_pointers@@@Z 000000018002e758 f   libucrt:cvt.obj
 0001:0002d834       ?fp_format_e_internal@@YAHQEAD_KH_NIQEAU_strflt@@2QEAU__crt_locale_pointers@@@Z 000000018002e834 f   libucrt:cvt.obj
 0001:0002da08       ?fp_format_f_internal@@YAHQEAD_KHQEAU_strflt@@_NQEAU__crt_locale_pointers@@@Z 000000018002ea08 f   libucrt:cvt.obj
 0001:0002db4c       ?fp_format_g@@YAHQEBNQEAD_K12H_NIQEAU__crt_locale_pointers@@@Z 000000018002eb4c f   libucrt:cvt.obj
 0001:0002dc80       ?fp_format_nan_or_infinity@@YAHW4__acrt_fp_class@@_NPEAD_K1@Z 000000018002ec80 f   libucrt:cvt.obj
 0001:0002e30c       ??$?RV<lambda_1d892b297fdedeee07ed8124eeb2f2fa>@@AEAV<lambda_ffc046909424fd52df0ac47e64813305>@@V<lambda_01a7098693036236037e7cdb9bca3d73>@@@?$__crt_seh_guarded_call@X@@QEAAX$$QEAV<lambda_1d892b297fdedeee07ed8124eeb2f2fa>@@AEAV<lambda_ffc046909424fd52df0ac47e64813305>@@$$QEAV<lambda_01a7098693036236037e7cdb9bca3d73>@@@Z 000000018002f30c f   libucrt:wsetlocale.obj
 0001:0002e448       ??$?RV<lambda_410d79af7f07d98d83a3f525b3859a53>@@AEAV<lambda_3e16ef9562a7dcce91392c22ab16ea36>@@V<lambda_38119f0e861e05405d8a144b9b982f0a>@@@?$__crt_seh_guarded_call@X@@QEAAX$$QEAV<lambda_410d79af7f07d98d83a3f525b3859a53>@@AEAV<lambda_3e16ef9562a7dcce91392c22ab16ea36>@@$$QEAV<lambda_38119f0e861e05405d8a144b9b982f0a>@@@Z 000000018002f448 f   libucrt:wsetlocale.obj
 0001:0002e4b8       ??$?RV<lambda_7f2adfce497ff2baa965cd4f576ecfd1>@@AEAV<lambda_2a444430fde8c29194d880d93eed5e8f>@@AEAV<lambda_8dff2cf36a5417162780cd64fa2883ef>@@@?$__crt_seh_guarded_call@X@@QEAAX$$QEAV<lambda_7f2adfce497ff2baa965cd4f576ecfd1>@@AEAV<lambda_2a444430fde8c29194d880d93eed5e8f>@@AEAV<lambda_8dff2cf36a5417162780cd64fa2883ef>@@@Z 000000018002f4b8 f   libucrt:wsetlocale.obj
 0001:0002e4e4       ??R<lambda_2a444430fde8c29194d880d93eed5e8f>@@QEBA@XZ 000000018002f4e4 f   libucrt:wsetlocale.obj
 0001:0002e854       _copytlocinfo_nolock       000000018002f854 f   libucrt:wsetlocale.obj
 0001:0002ee04       _wsetlocale_get_all        000000018002fe04 f   libucrt:wsetlocale.obj
 0001:0002eff0       _wsetlocale_nolock         000000018002fff0 f   libucrt:wsetlocale.obj
 0001:0002f284       _wsetlocale_set_cat        0000000180030284 f   libucrt:wsetlocale.obj
 0001:0002f5d8       ?initialize_inherited_file_handles_nolock@@YAXXZ 00000001800305d8 f   libucrt:ioinit.obj
 0001:0002f6c8       ?initialize_stdio_handles_nolock@@YAXXZ 00000001800306c8 f   libucrt:ioinit.obj
 0001:0002fcb4       ?<lambda_invoker_cdecl>@<lambda_795c6bd18aed400428efeb9a5f0e1479>@@CAHPEA_W@Z 0000000180030cb4 f   libucrt:winapi_thunks.obj
 0001:0002fcdc       ??$?RV<lambda_bd00b5aa228bd7e7e5b2b5db5fd2933b>@@AEAV<lambda_777d11615145f89ee95b9466d285deeb>@@V<lambda_6e5e48fbd24f9f8f81b203eb3d877683>@@@?$__crt_seh_guarded_call@H@@QEAAH$$QEAV<lambda_bd00b5aa228bd7e7e5b2b5db5fd2933b>@@AEAV<lambda_777d11615145f89ee95b9466d285deeb>@@$$QEAV<lambda_6e5e48fbd24f9f8f81b203eb3d877683>@@@Z 0000000180030cdc f   libucrt:winapi_thunks.obj
 0001:0002fd58       ?try_get_function@@YAPEAXW4function_id@?A0x391cf84c@@QEBDQEBW4module_id@2@2@Z 0000000180030d58 f   libucrt:winapi_thunks.obj
 0001:000309d0       ?_mbstowcs_l_helper@@YA_KPEA_WPEBD_KPEAU__crt_locale_pointers@@@Z 00000001800319d0 f   libucrt:mbstowcs.obj
 0001:00030d28       ?_wcstombs_l_helper@@YA_KPEADPEB_W_KPEAU__crt_locale_pointers@@@Z 0000000180031d28 f   libucrt:wcstombs.obj
 0001:00031270       ??$?RV<lambda_751a882b2c74d4b022dec766aa51a29a>@@AEAV<lambda_628dfdc04ba53c8bfc02c9951375f3f5>@@V<lambda_f6c7be5f7998530c34de24c7437d6b54>@@@?$__crt_seh_guarded_call@H@@QEAAH$$QEAV<lambda_751a882b2c74d4b022dec766aa51a29a>@@AEAV<lambda_628dfdc04ba53c8bfc02c9951375f3f5>@@$$QEAV<lambda_f6c7be5f7998530c34de24c7437d6b54>@@@Z 0000000180032270 f   libucrt:close.obj
 0001:00031464       ??$?RV<lambda_a37b2b86f63e897a80ea819b0eb08c01>@@AEAV<lambda_38ce7e780aa69e748d6df282ebc68efe>@@V<lambda_99fb1378e971ab6e7edea83e3a7a83a2>@@@?$__crt_seh_guarded_call@H@@QEAAH$$QEAV<lambda_a37b2b86f63e897a80ea819b0eb08c01>@@AEAV<lambda_38ce7e780aa69e748d6df282ebc68efe>@@$$QEAV<lambda_99fb1378e971ab6e7edea83e3a7a83a2>@@@Z 0000000180032464 f   libucrt:commit.obj
 0001:00031584       ?write_double_translated_ansi_nolock@@YA?AUwrite_result@?A0x17268360@@HQEBDI@Z 0000000180032584 f   libucrt:write.obj
 0001:00031a60       ?write_text_ansi_nolock@@YA?AUwrite_result@?A0x17268360@@HQEBDI@Z 0000000180032a60 f   libucrt:write.obj
 0001:00031b64       ?write_text_utf16le_nolock@@YA?AUwrite_result@?A0x17268360@@HQEBDI@Z 0000000180032b64 f   libucrt:write.obj
 0001:00031c80       ?write_text_utf8_nolock@@YA?AUwrite_result@?A0x17268360@@HQEBDI@Z 0000000180032c80 f   libucrt:write.obj
 0001:00032324       ??$common_ftell@_J@@YA_JV__crt_stdio_stream@@@Z 0000000180033324 f   libucrt:ftell.obj
 0001:00032378       ??$common_ftell_nolock@_J@@YA_JV__crt_stdio_stream@@@Z 0000000180033378 f   libucrt:ftell.obj
 0001:000324a8       ?common_ftell_read_mode_nolock@@YA_JV__crt_stdio_stream@@_J1@Z 00000001800334a8 f   libucrt:ftell.obj
 0001:000325f4       ?common_ftell_translated_utf8_nolock@@YA_JV__crt_stdio_stream@@_J@Z 00000001800335f4 f   libucrt:ftell.obj
 0001:00032770       ?count_newline_bytes@@YA_JQEBD0W4__crt_lowio_text_mode@@@Z 0000000180033770 f   libucrt:ftell.obj
 0001:00032804       ??$write_buffer_nolock@D@@YA_NDV__crt_stdio_stream@@@Z 0000000180033804 f   libucrt:_flsbuf.obj
 0001:000328e8       ??$write_buffer_nolock@_W@@YA_N_WV__crt_stdio_stream@@@Z 00000001800338e8 f   libucrt:_flsbuf.obj
 0001:000329d0       ?stream_is_at_end_of_file_nolock@@YA_NV__crt_stdio_stream@@@Z 00000001800339d0 f   libucrt:_flsbuf.obj
 0001:00032c20       ??$translate_text_mode_nolock@D@@YAHHQEAD_K@Z 0000000180033c20 f   libucrt:read.obj
 0001:00032dec       ??$translate_text_mode_nolock@_W@@YAHHQEA_W_K@Z 0000000180033dec f   libucrt:read.obj
 0001:00033058       ?translate_ansi_or_utf8_nolock@@YAHHQEAD_KQEA_W1@Z 0000000180034058 f   libucrt:read.obj
 0001:00033768       ??$common_lseek@_J@@YA_JH_JH@Z 0000000180034768 f   libucrt:lseek.obj
 0001:00033858       ??$common_lseek_nolock@_J@@YA_JH_JH@Z 0000000180034858 f   libucrt:lseek.obj
 0001:00033a7c       ?InternalGetLocaleInfoA@@YAHQEAU__crt_locale_pointers@@QEB_WKQEADH@Z 0000000180034a7c f   libucrt:getlocaleinfoa.obj
 0001:00033f50       ?__acrt_LCMapStringA_stat@@YAHPEAU__crt_locale_pointers@@PEB_WKPEBDHPEADHHH@Z 0000000180034f50 f   libucrt:lcmapstringa.obj
 0001:00034b28       ?<lambda_invoker_cdecl>@<lambda_c2303d2482d7c3675ea2e24c4cfb6115>@@CAHPEBX0@Z 0000000180035b28 f   libucrt:argv_wildcards.obj
 0001:00034cc8       ??$common_expand_argv_wildcards@D@@YAHQEAPEADQEAPEAPEAD@Z 0000000180035cc8 f   libucrt:argv_wildcards.obj
 0001:00034ed4       ??$copy_and_add_argument_to_buffer@D@@YAHQEBD0_KAEAV?$argument_list@D@?A0x5f5c8891@@@Z 0000000180035ed4 f   libucrt:argv_wildcards.obj
 0001:0003505c       ??$expand_argument_wildcards@D@@YAHQEAD0AEAV?$argument_list@D@?A0x5f5c8891@@@Z 000000018003605c f   libucrt:argv_wildcards.obj
 0001:00035374       ??$?RV<lambda_efdfa57d1f175319df784efa44bb7b81>@@AEAV<lambda_5f0a4c1567f8adc6734073e5d1e1b35c>@@V<lambda_2e8a7d3640ea6ccb4c2413664c2db6fd>@@@?$__crt_seh_guarded_call@X@@QEAAX$$QEAV<lambda_efdfa57d1f175319df784efa44bb7b81>@@AEAV<lambda_5f0a4c1567f8adc6734073e5d1e1b35c>@@$$QEAV<lambda_2e8a7d3640ea6ccb4c2413664c2db6fd>@@@Z 0000000180036374 f   libucrt:mbctype.obj
 0001:00035530       ?getSystemCP@@YAHH@Z       0000000180036530 f   libucrt:mbctype.obj
 0001:000355b0       ?setSBCS@@YAXPEAU__crt_multibyte_data@@@Z 00000001800365b0 f   libucrt:mbctype.obj
 0001:00035640       ?setSBUpLow@@YAXPEAU__crt_multibyte_data@@@Z 0000000180036640 f   libucrt:mbctype.obj
 0001:00035824       ?setmbcp_internal@@YAHH_NQEAU__acrt_ptd@@QEAPEAU__crt_multibyte_data@@@Z 0000000180036824 f   libucrt:mbctype.obj
 0001:000359e8       ?update_thread_multibyte_data_internal@@YAPEAU__crt_multibyte_data@@QEAU__acrt_ptd@@QEAPEAU1@@Z 00000001800369e8 f   libucrt:mbctype.obj
 0001:00035dd8       ?x_ismbbtype_l@@YAHPEAU__crt_locale_pointers@@IHH@Z 0000000180036dd8 f   libucrt:ismbbyte.obj
 0001:000385dc       ?free_crt_array_internal@@YAXQEAPEBX_K@Z 00000001800395dc f   libucrt:inittime.obj
 0001:00038634       ?initialize_lc_time@@YA_NQEAU__crt_lc_time_data@@QEAU__crt_locale_data@@@Z 0000000180039634 f   libucrt:inittime.obj
 0001:00038b8c       GetLocaleNameFromDefault   0000000180039b8c f   libucrt:get_qualified_locale.obj
 0001:00038c34       GetLocaleNameFromLangCountry 0000000180039c34 f   libucrt:get_qualified_locale.obj
 0001:00038d04       GetLocaleNameFromLanguage  0000000180039d04 f   libucrt:get_qualified_locale.obj
 0001:00038d9c       LangCountryEnumProcEx      0000000180039d9c f   libucrt:get_qualified_locale.obj
 0001:00039088       LanguageEnumProcEx         000000018003a088 f   libucrt:get_qualified_locale.obj
 0001:00039174       ProcessCodePage            000000018003a174 f   libucrt:get_qualified_locale.obj
 0001:00039240       TestDefaultCountry         000000018003a240 f   libucrt:get_qualified_locale.obj
 0001:000392a4       TranslateName              000000018003a2a4 f   libucrt:get_qualified_locale.obj
 0001:000395a4       CountryEnumProc            000000018003a5a4 f   libucrt:getqloc_downlevel.obj
 0001:0003968c       GetLcidFromLangCountry     000000018003a68c f   libucrt:getqloc_downlevel.obj
 0001:0003975c       GetLcidFromLanguage        000000018003a75c f   libucrt:getqloc_downlevel.obj
 0001:000397f4       LangCountryEnumProc        000000018003a7f4 f   libucrt:getqloc_downlevel.obj
 0001:00039a40       LanguageEnumProc           000000018003aa40 f   libucrt:getqloc_downlevel.obj
 0001:00039b48       LcidFromHexString          000000018003ab48 f   libucrt:getqloc_downlevel.obj
 0001:00039b98       ProcessCodePage            000000018003ab98 f   libucrt:getqloc_downlevel.obj
 0001:00039c48       TestDefaultLanguage        000000018003ac48 f   libucrt:getqloc_downlevel.obj
 0001:00039cf4       TranslateName              000000018003acf4 f   libucrt:getqloc_downlevel.obj
 0001:0003a320       $$000000                   000000018003b320     libucrt:fpsr.obj
 0001:0003a380       ?GetTableIndexFromLocaleName@@YAHPEB_W@Z 000000018003b380 f   libucrt:lcidtoname_downlevel.obj
 0001:0003aad8       _call_matherr              000000018003bad8 f   libucrt:libm_error.obj
 0001:0003ab40       _exception_enabled         000000018003bb40 f   libucrt:libm_error.obj
 0001:0003b310       fallbackMethod             000000018003c310 f   libucrt:strpbrk.obj
 0001:0003b6d4       $LN78                      000000018003c6d4     libucrt:strpbrk.obj
 0001:0003b710       $LN77                      000000018003c710     libucrt:strpbrk.obj
 0001:0003b750       $LN76                      000000018003c750     libucrt:strpbrk.obj
 0001:0003b82c       ?initialize_multibyte@@YAHXZ 000000018003c82c f   libucrt:multibyte_initializer.obj
 0001:0003bbe0       $$000000                   000000018003cbe0     libucrt:log10.obj
 0001:0003c690       _log_special_common        000000018003d690 f   libucrt:log_special.obj
 0001:0003d0ec       ?FindMITargetTypeInstance@@YAPEBU_s_RTTIBaseClassDescriptor@@PEAXPEBU_s_RTTICompleteObjectLocator@@PEAUTypeDescriptor@@_J2_K@Z 000000018003e0ec f   libvcruntime:rtti.obj
 0001:0003d274       ?FindSITargetTypeInstance@@YAPEBU_s_RTTIBaseClassDescriptor@@PEBU_s_RTTICompleteObjectLocator@@PEAUTypeDescriptor@@1_K@Z 000000018003e274 f   libvcruntime:rtti.obj
 0001:0003d3b0       ?FindVITargetTypeInstance@@YAPEBU_s_RTTIBaseClassDescriptor@@PEAXPEBU_s_RTTICompleteObjectLocator@@PEAUTypeDescriptor@@_J2_K@Z 000000018003e3b0 f   libvcruntime:rtti.obj
 0001:0003d770       $$000000                   000000018003e770     LIBCMT:guard_dispatch.obj
 0001:0003d790       ?dtor$0@?0??_Locimp_dtor@_Locimp@locale@std@@CAXPEAV123@@Z@4HA 000000018003e790 f   libcpmt:locale0.obj
 0001:0003d790       ?dtor$0@?0??_Init@locale@std@@CAPEAV_Locimp@12@_N@Z@4HA 000000018003e790 f   libcpmt:locale0.obj
 0001:0003d79c       ?dtor$0@?0???$use_facet@V?$codecvt@DDU_Mbstatet@@@std@@@std@@YAAEBV?$codecvt@DDU_Mbstatet@@@0@AEBVlocale@0@@Z@4HA 000000018003e79c f   libcpmt:cerr.obj
 0001:0003d7a8       ?dtor$1@?0???$use_facet@V?$codecvt@DDU_Mbstatet@@@std@@@std@@YAAEBV?$codecvt@DDU_Mbstatet@@@0@AEBVlocale@0@@Z@4HA 000000018003e7a8 f   libcpmt:cerr.obj
 0001:0003d7b4       ?dtor$0@?0???0?$basic_ostream@DU?$char_traits@D@std@@@std@@QEAA@PEAV?$basic_streambuf@DU?$char_traits@D@std@@@1@_N@Z@4HA 000000018003e7b4 f   libcpmt:cerr.obj
 0001:0003d7de       ?dtor$0@?0??_Getcat@?$codecvt@DDU_Mbstatet@@@std@@SA_KPEAPEBVfacet@locale@2@PEBV42@@Z@4HA 000000018003e7de f   libcpmt:cerr.obj
 0001:0003d7fe       ?dtor$0@?0??uflow@?$basic_filebuf@DU?$char_traits@D@std@@@std@@MEAAHXZ@4HA 000000018003e7fe f   libcpmt:cerr.obj
 0001:0003d80a       __scrt_is_nonwritable_in_current_image$filt$0 000000018003e80a f   LIBCMT:utility.obj
 0001:0003d822       ?fin$0@?0??dllmain_crt_process_attach@@YAHQEAUHINSTANCE__@@QEAX@Z@4HA 000000018003e822 f   LIBCMT:dll_dllmain.obj
 0001:0003d839       ?fin$0@?0??dllmain_crt_process_detach@@YAH_N@Z@4HA 000000018003e839 f   LIBCMT:dll_dllmain.obj
 0001:0003d855       ?filt$0@?0??dllmain_dispatch@@YAHQEAUHINSTANCE__@@KQEAX@Z@4HA 000000018003e855 f   LIBCMT:dll_dllmain.obj
 0001:0003d88b       ?filt$0@?0???$_CallSETranslator@V__FrameHandler3@@@@YAHPEAUEHExceptionRecord@@PEA_KPEAU_CONTEXT@@PEAU_xDISPATCHER_CONTEXT@@PEBU_s_FuncInfo@@K1@Z@4HA 000000018003e88b f   libvcruntime:risctrnsctrl.obj
 0001:0003d91c       __DestructExceptionObject$filt$0 000000018003e91c f   libvcruntime:ehhelpers.obj
 0001:0003d934       ?filt$0@?0??CxxCallCatchBlock@__FrameHandler3@@SAPEAXPEAU_EXCEPTION_RECORD@@@Z@4HA 000000018003e934 f   libvcruntime:frame.obj
 0001:0003d959       ?fin$1@?0??CxxCallCatchBlock@__FrameHandler3@@SAPEAXPEAU_EXCEPTION_RECORD@@@Z@4HA 000000018003e959 f   libvcruntime:frame.obj
 0001:0003d9d1       ?filt$0@?0??FrameUnwindToState@__FrameHandler3@@SAXPEA_KPEAU_xDISPATCHER_CONTEXT@@PEBU_s_FuncInfo@@H@Z@4HA 000000018003e9d1 f   libvcruntime:frame.obj
 0001:0003d9e7       ?fin$1@?0??FrameUnwindToState@__FrameHandler3@@SAXPEA_KPEAU_xDISPATCHER_CONTEXT@@PEBU_s_FuncInfo@@H@Z@4HA 000000018003e9e7 f   libvcruntime:frame.obj
 0001:0003da0a       ?fin$0@?0???$?RV<lambda_0d412022a4b28cc8a401ea49574e8ae6>@@AEAV<lambda_a775ed57af18ba8e4d5dc780aa9068fe>@@V<lambda_975a71a6baa488a08f4e15f6b0339b9e>@@@?$__crt_seh_guarded_call@H@@QEAAH$$QEAV<lambda_0d412022a4b28cc8a401ea49574e8ae6>@@AEAV<lambda_a775ed57af18ba8e4d5dc780aa9068fe>@@$$QEAV<lambda_975a71a6baa488a08f4e15f6b0339b9e>@@@Z@4HA 000000018003ea0a f   libucrt:output.obj
 0001:0003da0a       ?fin$0@?0???$?RV<lambda_c376a267cfb53b6959b3b692ec76b120>@@AEAV<lambda_9a32fed5bf61b6b509b2d3f6003082a1>@@V<lambda_572fbb9fa0ab338edf41edfd4b5fcc8d>@@@?$__crt_seh_guarded_call@H@@QEAAH$$QEAV<lambda_c376a267cfb53b6959b3b692ec76b120>@@AEAV<lambda_9a32fed5bf61b6b509b2d3f6003082a1>@@$$QEAV<lambda_572fbb9fa0ab338edf41edfd4b5fcc8d>@@@Z@4HA 000000018003ea0a f   libucrt:fflush.obj
 0001:0003da0a       ?fin$0@?0???$?RV<lambda_842d9ff0dc9ef11c61343bbaebe7f885>@@AEAV<lambda_c5860995281e5c4ce005b3de8f5874ee>@@V<lambda_d90129c13df834fdcbf8d2b88dafcf2d>@@@?$__crt_seh_guarded_call@X@@QEAAX$$QEAV<lambda_842d9ff0dc9ef11c61343bbaebe7f885>@@AEAV<lambda_c5860995281e5c4ce005b3de8f5874ee>@@$$QEAV<lambda_d90129c13df834fdcbf8d2b88dafcf2d>@@@Z@4HA 000000018003ea0a f   libucrt:fflush.obj
 0001:0003da0a       ?fin$0@?0???$?RV<lambda_bdbcead8b570fa3d5ec6d9679862a6e5>@@AEAV<lambda_96f4279ff90247a4c5c5d9824f56f8c1>@@V<lambda_4606be27f17b5e5579e09050fab91818>@@@?$__crt_seh_guarded_call@_K@@QEAA_K$$QEAV<lambda_bdbcead8b570fa3d5ec6d9679862a6e5>@@AEAV<lambda_96f4279ff90247a4c5c5d9824f56f8c1>@@$$QEAV<lambda_4606be27f17b5e5579e09050fab91818>@@@Z@4HA 000000018003ea0a f   libucrt:fwrite.obj
 0001:0003da0a       ?fin$0@?0???$?RV<lambda_84ec643ea9557e2f7dc01bb0e9624395>@@AEAV<lambda_ca71763b3c0644891230e4f79ea54fa6>@@V<lambda_439a761618c59b0600e24586724d733b>@@@?$__crt_seh_guarded_call@H@@QEAAH$$QEAV<lambda_84ec643ea9557e2f7dc01bb0e9624395>@@AEAV<lambda_ca71763b3c0644891230e4f79ea54fa6>@@$$QEAV<lambda_439a761618c59b0600e24586724d733b>@@@Z@4HA 000000018003ea0a f   libucrt:setvbuf.obj
 0001:0003da25       ?fin$0@?0???$?RV<lambda_450d765d439847d4c735a33c368b5fc0>@@AEAV<lambda_44731a7d0e6d81c3e6aa82d741081786>@@V<lambda_601a2a7da3b7a96e9554ac7215c4b07c>@@@?$__crt_seh_guarded_call@P6AXH@Z@@QEAAP6AXH@Z$$QEAV<lambda_450d765d439847d4c735a33c368b5fc0>@@AEAV<lambda_44731a7d0e6d81c3e6aa82d741081786>@@$$QEAV<lambda_601a2a7da3b7a96e9554ac7215c4b07c>@@@Z@4HA 000000018003ea25 f   libucrt:signal.obj
 0001:0003da25       ?fin$0@?0???$?RV<lambda_bd00b5aa228bd7e7e5b2b5db5fd2933b>@@AEAV<lambda_777d11615145f89ee95b9466d285deeb>@@V<lambda_6e5e48fbd24f9f8f81b203eb3d877683>@@@?$__crt_seh_guarded_call@H@@QEAAH$$QEAV<lambda_bd00b5aa228bd7e7e5b2b5db5fd2933b>@@AEAV<lambda_777d11615145f89ee95b9466d285deeb>@@$$QEAV<lambda_6e5e48fbd24f9f8f81b203eb3d877683>@@@Z@4HA 000000018003ea25 f   libucrt:winapi_thunks.obj
 0001:0003da25       ?fin$0@?0???$?RV<lambda_638799b9deba96c50f710eeac98168cd>@@AEAV<lambda_22ebabd17bc4fa466a2aca6d8deb888d>@@V<lambda_a6f7d7db0129f75315ebf26d50c089f1>@@@?$__crt_seh_guarded_call@H@@QEAAH$$QEAV<lambda_638799b9deba96c50f710eeac98168cd>@@AEAV<lambda_22ebabd17bc4fa466a2aca6d8deb888d>@@$$QEAV<lambda_a6f7d7db0129f75315ebf26d50c089f1>@@@Z@4HA 000000018003ea25 f   libucrt:onexit.obj
 0001:0003da25       ?fin$0@?0???$?RV<lambda_f2e299630e499de9f9a165e60fcd3db5>@@AEAV<lambda_2ae9d31cdba2644fcbeaf08da7c24588>@@V<lambda_40d01ff24d0e7b3814fdbdcee8eab3c7>@@@?$__crt_seh_guarded_call@X@@QEAAX$$QEAV<lambda_f2e299630e499de9f9a165e60fcd3db5>@@AEAV<lambda_2ae9d31cdba2644fcbeaf08da7c24588>@@$$QEAV<lambda_40d01ff24d0e7b3814fdbdcee8eab3c7>@@@Z@4HA 000000018003ea25 f   libucrt:per_thread_data.obj
 0001:0003da25       ?fin$0@?0???$?RV<lambda_9bd929c17696992ce54f1d748594fc62>@@AEAV<lambda_082c17da81b0962e08c0587ee0fac50c>@@V<lambda_9c08ac857f4975304d44e9f601d9b878>@@@?$__crt_seh_guarded_call@PEAD@@QEAAPEAD$$QEAV<lambda_9bd929c17696992ce54f1d748594fc62>@@AEAV<lambda_082c17da81b0962e08c0587ee0fac50c>@@$$QEAV<lambda_9c08ac857f4975304d44e9f601d9b878>@@@Z@4HA 000000018003ea25 f   libucrt:setlocale.obj
 0001:0003da25       ?fin$0@?0???$?RV<lambda_d80eeec6fff315bfe5c115232f3240e3>@@AEAV<lambda_6e4b09c48022b2350581041d5f6b0c4c>@@V<lambda_2358e3775559c9db80273638284d5e45>@@@?$__crt_seh_guarded_call@X@@QEAAX$$QEAV<lambda_d80eeec6fff315bfe5c115232f3240e3>@@AEAV<lambda_6e4b09c48022b2350581041d5f6b0c4c>@@$$QEAV<lambda_2358e3775559c9db80273638284d5e45>@@@Z@4HA 000000018003ea25 f   libucrt:exit.obj
 0001:0003da25       ?fin$0@?0???$?RV<lambda_7777bce6b2f8c936911f934f8298dc43>@@AEAV<lambda_f03950bc5685219e0bcd2087efbe011e>@@V<lambda_3883c3dff614d5e0c5f61bb1ac94921c>@@@?$__crt_seh_guarded_call@H@@QEAAH$$QEAV<lambda_7777bce6b2f8c936911f934f8298dc43>@@AEAV<lambda_f03950bc5685219e0bcd2087efbe011e>@@$$QEAV<lambda_3883c3dff614d5e0c5f61bb1ac94921c>@@@Z@4HA 000000018003ea25 f   libucrt:onexit.obj
 0001:0003da25       ?fin$0@?0???$?RV<lambda_0ae27a3a962d80f24befdcbee591983d>@@AEAV<lambda_8d0ee55de4b1038c4002e0adecdf1839>@@V<lambda_dc504788e8f1664fe9b84e20bfb512f2>@@@?$__crt_seh_guarded_call@X@@QEAAX$$QEAV<lambda_0ae27a3a962d80f24befdcbee591983d>@@AEAV<lambda_8d0ee55de4b1038c4002e0adecdf1839>@@$$QEAV<lambda_dc504788e8f1664fe9b84e20bfb512f2>@@@Z@4HA 000000018003ea25 f   libucrt:per_thread_data.obj
 0001:0003da25       ?fin$0@?0???$?RV<lambda_1d892b297fdedeee07ed8124eeb2f2fa>@@AEAV<lambda_ffc046909424fd52df0ac47e64813305>@@V<lambda_01a7098693036236037e7cdb9bca3d73>@@@?$__crt_seh_guarded_call@X@@QEAAX$$QEAV<lambda_1d892b297fdedeee07ed8124eeb2f2fa>@@AEAV<lambda_ffc046909424fd52df0ac47e64813305>@@$$QEAV<lambda_01a7098693036236037e7cdb9bca3d73>@@@Z@4HA 000000018003ea25 f   libucrt:wsetlocale.obj
 0001:0003da25       ?fin$0@?0???$?RV<lambda_2d41944a1d46af3157314b8a01080d33>@@AEAV<lambda_8f455de75cd7d7f24b4096f044d8b9e6>@@V<lambda_aa500f224e6afead328df44964fe2772>@@@?$__crt_seh_guarded_call@X@@QEAAX$$QEAV<lambda_2d41944a1d46af3157314b8a01080d33>@@AEAV<lambda_8f455de75cd7d7f24b4096f044d8b9e6>@@$$QEAV<lambda_aa500f224e6afead328df44964fe2772>@@@Z@4HA 000000018003ea25 f   libucrt:per_thread_data.obj
 0001:0003da25       ?fin$0@?0???$?RV<lambda_aa87e3671a710a21b5dc78c0bdf72e11>@@AEAV<lambda_92619d2358a28f41a33ba319515a20b9>@@V<lambda_6992ecaafeb10aed2b74cb1fae11a551>@@@?$__crt_seh_guarded_call@X@@QEAAX$$QEAV<lambda_aa87e3671a710a21b5dc78c0bdf72e11>@@AEAV<lambda_92619d2358a28f41a33ba319515a20b9>@@$$QEAV<lambda_6992ecaafeb10aed2b74cb1fae11a551>@@@Z@4HA 000000018003ea25 f   libucrt:per_thread_data.obj
 0001:0003da25       ?fin$0@?0???$?RV<lambda_efdfa57d1f175319df784efa44bb7b81>@@AEAV<lambda_5f0a4c1567f8adc6734073e5d1e1b35c>@@V<lambda_2e8a7d3640ea6ccb4c2413664c2db6fd>@@@?$__crt_seh_guarded_call@X@@QEAAX$$QEAV<lambda_efdfa57d1f175319df784efa44bb7b81>@@AEAV<lambda_5f0a4c1567f8adc6734073e5d1e1b35c>@@$$QEAV<lambda_2e8a7d3640ea6ccb4c2413664c2db6fd>@@@Z@4HA 000000018003ea25 f   libucrt:mbctype.obj
 0001:0003da3f       ?fin$0@?0??common_fseek@@YAHV__crt_stdio_stream@@_JH@Z@4HA 000000018003ea3f f   libucrt:fseek.obj
 0001:0003da3f       ?fin$0@?0???$common_ftell@_J@@YA_JV__crt_stdio_stream@@@Z@4HA 000000018003ea3f f   libucrt:ftell.obj
 0001:0003da3f       fclose$fin$0               000000018003ea3f f   libucrt:fclose.obj
 0001:0003da57       ?fin$0@?0???$?RV<lambda_886d6c58226a84441f68b9f2b8217b83>@@AEAV<lambda_ab61a845afdef5b7c387490eaf3616ee>@@V<lambda_f7f22ab5edc0698d5f6905b0d3f44752>@@@?$__crt_seh_guarded_call@X@@QEAAX$$QEAV<lambda_886d6c58226a84441f68b9f2b8217b83>@@AEAV<lambda_ab61a845afdef5b7c387490eaf3616ee>@@$$QEAV<lambda_f7f22ab5edc0698d5f6905b0d3f44752>@@@Z@4HA 000000018003ea57 f   libucrt:fflush.obj
 0001:0003da74       fgetc$fin$0                000000018003ea74 f   libucrt:fgetc.obj
 0001:0003da8e       fputc$fin$0                000000018003ea8e f   libucrt:fputc.obj
 0001:0003daa8       fread_s$fin$0              000000018003eaa8 f   libucrt:fread.obj
 0001:0003dac0       ungetc$fin$0               000000018003eac0 f   libucrt:ungetc.obj
 0001:0003dad8       _query_new_handler$fin$0   000000018003ead8 f   libucrt:new_handler.obj
 0001:0003daee       ?filt$0@?0???R<lambda_6e4b09c48022b2350581041d5f6b0c4c>@@QEBA@XZ@4HA 000000018003eaee f   libucrt:exit.obj
 0001:0003db09       raise$fin$0                000000018003eb09 f   libucrt:signal.obj
 0001:0003db2a       ?fin$0@?0???$?RV<lambda_410d79af7f07d98d83a3f525b3859a53>@@AEAV<lambda_3e16ef9562a7dcce91392c22ab16ea36>@@V<lambda_38119f0e861e05405d8a144b9b982f0a>@@@?$__crt_seh_guarded_call@X@@QEAAX$$QEAV<lambda_410d79af7f07d98d83a3f525b3859a53>@@AEAV<lambda_3e16ef9562a7dcce91392c22ab16ea36>@@$$QEAV<lambda_38119f0e861e05405d8a144b9b982f0a>@@@Z@4HA 000000018003eb2a f   libucrt:wsetlocale.obj
 0001:0003db44       ?fin$0@?0???$?RV<lambda_7f2adfce497ff2baa965cd4f576ecfd1>@@AEAV<lambda_2a444430fde8c29194d880d93eed5e8f>@@AEAV<lambda_8dff2cf36a5417162780cd64fa2883ef>@@@?$__crt_seh_guarded_call@X@@QEAAX$$QEAV<lambda_7f2adfce497ff2baa965cd4f576ecfd1>@@AEAV<lambda_2a444430fde8c29194d880d93eed5e8f>@@AEAV<lambda_8dff2cf36a5417162780cd64fa2883ef>@@@Z@4HA 000000018003eb44 f   libucrt:wsetlocale.obj
 0001:0003db65       __acrt_initialize_lowio$fin$0 000000018003eb65 f   libucrt:ioinit.obj
 0001:0003db65       __acrt_lowio_ensure_fh_exists$fin$0 000000018003eb65 f   libucrt:osfinfo.obj
 0001:0003db7e       _ctrlfp$filt$0             000000018003eb7e f   libucrt:fpctrl.obj
 0001:0003dbaa       ?dtor$0@?0??_wcstombs_l_helper@@YA_KPEADPEB_W_KPEAU__crt_locale_pointers@@@Z@4HA 000000018003ebaa f   libucrt:wcstombs.obj
 0001:0003dbb6       _fcloseall$fin$0           000000018003ebb6 f   libucrt:closeall.obj
 0001:0003dbcf       ?fin$0@?0???$?RV<lambda_751a882b2c74d4b022dec766aa51a29a>@@AEAV<lambda_628dfdc04ba53c8bfc02c9951375f3f5>@@V<lambda_f6c7be5f7998530c34de24c7437d6b54>@@@?$__crt_seh_guarded_call@H@@QEAAH$$QEAV<lambda_751a882b2c74d4b022dec766aa51a29a>@@AEAV<lambda_628dfdc04ba53c8bfc02c9951375f3f5>@@$$QEAV<lambda_f6c7be5f7998530c34de24c7437d6b54>@@@Z@4HA 000000018003ebcf f   libucrt:close.obj
 0001:0003dbcf       ?fin$0@?0???$?RV<lambda_a37b2b86f63e897a80ea819b0eb08c01>@@AEAV<lambda_38ce7e780aa69e748d6df282ebc68efe>@@V<lambda_99fb1378e971ab6e7edea83e3a7a83a2>@@@?$__crt_seh_guarded_call@H@@QEAAH$$QEAV<lambda_a37b2b86f63e897a80ea819b0eb08c01>@@AEAV<lambda_38ce7e780aa69e748d6df282ebc68efe>@@$$QEAV<lambda_99fb1378e971ab6e7edea83e3a7a83a2>@@@Z@4HA 000000018003ebcf f   libucrt:commit.obj
 0001:0003dbe9       ?fin$0@?0???$common_lseek@_J@@YA_JH_JH@Z@4HA 000000018003ebe9 f   libucrt:lseek.obj
 0001:0003dbe9       _write$fin$0               000000018003ebe9 f   libucrt:write.obj
 0001:0003dc00       _read$fin$0                000000018003ec00 f   libucrt:read.obj
 0001:0003dc17       ?fin$0@?0??update_thread_multibyte_data_internal@@YAPEAU__crt_multibyte_data@@QEAU__acrt_ptd@@QEAPEAU1@@Z@4HA 000000018003ec17 f   libucrt:mbctype.obj
 0001:0003dc30       __acrt_update_thread_locale_data$fin$0 000000018003ec30 f   libucrt:locale_refcounting.obj
 0001:0003dc50       _IsNonwritableInCurrentImage$filt$0 000000018003ec50 f   LIBCMT:pesect.obj
 0001:0003dc70       __RTDynamicCast$filt$0     000000018003ec70 f   libvcruntime:rtti.obj
 0001:0003dc90       ??__F?constructor@KafkaConsumer@NodeKafka@@1V?$Persistent@VFunction@v8@@V?$NonCopyablePersistentTraits@VFunction@v8@@@2@@Nan@@A@@YAXXZ 000000018003ec90 f   kafka-consumer.obj
 0001:0003dca0       ??__F?constructor@Producer@NodeKafka@@1V?$Persistent@VFunction@v8@@V?$NonCopyablePersistentTraits@VFunction@v8@@@2@@Nan@@A@@YAXXZ 000000018003eca0 f   producer.obj
 0001:0003dcb0       ??__F?constructor@Topic@NodeKafka@@1V?$Persistent@VFunction@v8@@V?$NonCopyablePersistentTraits@VFunction@v8@@@2@@Nan@@A@@YAXXZ 000000018003ecb0 f   topic.obj
 0001:0003dcc0       ??__F?constructor@AdminClient@NodeKafka@@1V?$Persistent@VFunction@v8@@V?$NonCopyablePersistentTraits@VFunction@v8@@@2@@Nan@@A@@YAXXZ 000000018003ecc0 f   admin.obj
 0001:0003dcc4       ??__Finitlocks@std@@YAXXZ  000000018003ecc4 f   libcpmt:xlock.obj
 0001:0003dcd0       ??__F_Fac_tidy_reg@std@@YAXXZ 000000018003ecd0 f   libcpmt:locale0.obj
 0001:0003dcdc       ??__Fclassic_locale@std@@YAXXZ 000000018003ecdc f   libcpmt:locale0.obj
 0001:0003dd24       ??__Fcerr@std@@YAXXZ       000000018003ed24 f   libcpmt:cerr.obj
 0001:0003dd84       ??__Fferr@std@@YAXXZ       000000018003ed84 f   libcpmt:cerr.obj
 0001:0003dd90       ??__Finitlocks@@YAXXZ      000000018003ed90 f   libcpmt:cerr.obj
 0001:0003dd9c       ??__Fcout@std@@YAXXZ       000000018003ed9c f   libcpmt:cout.obj
 0001:0003ddfc       ??__Ffout@std@@YAXXZ       000000018003edfc f   libcpmt:cout.obj
 0001:0003de08       ??__Finitlocks@@YAXXZ      000000018003ee08 f   libcpmt:cout.obj
 0001:0003de14       ??__Finit_atexit@@YAXXZ    000000018003ee14 f   libcpmt:iosptrs.obj
 0001:0003de5c       ??__Finitlocks@std@@YAXXZ  000000018003ee5c f   libcpmt:iosptrs.obj
 0002:00000450       ?initlocks$initializer$@std@@3P6AXXZEA 000000018003f450     libcpmt:xlock.obj
 0002:00000458       ?initlocks$initializer$@@3P6AXXZEA 000000018003f458     libcpmt:cerr.obj
 0002:00000460       ?ferr$initializer$@std@@3P6AXXZEA 000000018003f460     libcpmt:cerr.obj
 0002:00000468       ?cerr$initializer$@std@@3P6AXXZEA 000000018003f468     libcpmt:cerr.obj
 0002:00000470       ?init_cerr$initializer$@std@@3P6AXXZEA 000000018003f470     libcpmt:cerr.obj
 0002:00000478       ?initlocks$initializer$@@3P6AXXZEA 000000018003f478     libcpmt:cout.obj
 0002:00000480       ?fout$initializer$@std@@3P6AXXZEA 000000018003f480     libcpmt:cout.obj
 0002:00000488       ?cout$initializer$@std@@3P6AXXZEA 000000018003f488     libcpmt:cout.obj
 0002:00000490       ?init_cout$initializer$@std@@3P6AXXZEA 000000018003f490     libcpmt:cout.obj
 0002:00000498       ?initlocks$initializer$@std@@3P6AXXZEA 000000018003f498     libcpmt:iosptrs.obj
 0002:000004a0       ?init_atexit$initializer$@@3P6AXXZEA 000000018003f4a0     libcpmt:iosptrs.obj
 0002:000004a8       ?_Fac_tidy_reg$initializer$@std@@3P6AXXZEA 000000018003f4a8     libcpmt:locale0.obj
 0002:000004b0       ?classic_locale$initializer$@std@@3P6AXXZEA 000000018003f4b0     libcpmt:locale0.obj
 0002:000004b8       ??constructor$initializer$@KafkaConsumer@NodeKafka@@1P6AXXZEA@@3P6AXXZEA 000000018003f4b8     kafka-consumer.obj
 0002:000004c0       ??constructor$initializer$@Producer@NodeKafka@@1P6AXXZEA@@3P6AXXZEA 000000018003f4c0     producer.obj
 0002:000004c8       ??constructor$initializer$@Topic@NodeKafka@@1P6AXXZEA@@3P6AXXZEA 000000018003f4c8     topic.obj
 0002:000004d0       ??constructor$initializer$@AdminClient@NodeKafka@@1P6AXXZEA@@3P6AXXZEA 000000018003f4d0     admin.obj
 0002:000004f0       ?pinit@@3P6AHXZEA          000000018003f4f0     libcpmt:winapisupp.obj
 0002:00000608       $cppxdata$??1_Fac_tidy_reg_t@std@@QEAA@XZ 000000018003f608     libcpmt:locale0.obj
 0002:00000630       $cppxdata$?_Locimp_dtor@_Locimp@locale@std@@CAXPEAV123@@Z 000000018003f630     libcpmt:locale0.obj
 0002:00000658       $cppxdata$??_G_Locimp@locale@std@@MEAAPEAXI@Z 000000018003f658     libcpmt:locale0.obj
 0002:00000680       $cppxdata$?_Init@locale@std@@CAPEAV_Locimp@12@_N@Z 000000018003f680     libcpmt:locale0.obj
 0002:000006a8       $cppxdata$??__Fclassic_locale@std@@YAXXZ 000000018003f6a8     libcpmt:locale0.obj
 0002:00000718       $cppxdata$?_Init@ios_base@std@@IEAAXXZ 000000018003f718     libcpmt:cerr.obj
 0002:00000740       $cppxdata$??_Gios_base@std@@UEAAPEAXI@Z 000000018003f740     libcpmt:cerr.obj
 0002:00000768       $cppxdata$??0?$basic_streambuf@DU?$char_traits@D@std@@@std@@IEAA@XZ 000000018003f768     libcpmt:cerr.obj
 0002:00000790       $cppxdata$??1?$basic_streambuf@DU?$char_traits@D@std@@@std@@UEAA@XZ 000000018003f790     libcpmt:cerr.obj
 0002:000007b8       $cppxdata$??1?$basic_filebuf@DU?$char_traits@D@std@@@std@@UEAA@XZ 000000018003f7b8     libcpmt:cerr.obj
 0002:000007e0       $cppxdata$?uflow@?$basic_filebuf@DU?$char_traits@D@std@@@std@@MEAAHXZ 000000018003f7e0     libcpmt:cerr.obj
 0002:00000808       $cppxdata$??1?$basic_ios@DU?$char_traits@D@std@@@std@@UEAA@XZ 000000018003f808     libcpmt:cerr.obj
 0002:00000830       $cppxdata$??_G?$basic_ios@DU?$char_traits@D@std@@@std@@UEAAPEAXI@Z 000000018003f830     libcpmt:cerr.obj
 0002:00000858       $cppxdata$??0?$basic_ostream@DU?$char_traits@D@std@@@std@@QEAA@PEAV?$basic_streambuf@DU?$char_traits@D@std@@@1@_N@Z 000000018003f858     libcpmt:cerr.obj
 0002:00000880       $cppxdata$??_G?$basic_ostream@DU?$char_traits@D@std@@@std@@UEAAPEAXI@Z 000000018003f880     libcpmt:cerr.obj
 0002:000008a8       $cppxdata$??__Fcerr@std@@YAXXZ 000000018003f8a8     libcpmt:cerr.obj
 0002:000008d0       $cppxdata$??$use_facet@V?$codecvt@DDU_Mbstatet@@@std@@@std@@YAAEBV?$codecvt@DDU_Mbstatet@@@0@AEBVlocale@0@@Z 000000018003f8d0     libcpmt:cerr.obj
 0002:000008f8       $cppxdata$?_Getcat@?$codecvt@DDU_Mbstatet@@@std@@SA_KPEAPEBVfacet@locale@2@PEBV42@@Z 000000018003f8f8     libcpmt:cerr.obj
 0002:00000b70       ?_Win_errtab@std@@3QBU_Win_errtab_t@1@B 000000018003fb70     libcpmt:syserror.obj
 0002:00000de0       ?_Sys_errtab@std@@3QBU_Sys_errtab_t@1@B 000000018003fde0     libcpmt:syserror.obj
 0002:00001970       $cppxdata$??__Fcout@std@@YAXXZ 0000000180040970     libcpmt:cout.obj
 0002:00001d90       $cppxdata$??__Finit_atexit@@YAXXZ 0000000180040d90     libcpmt:iosptrs.obj
 0002:00001dc0       $cppxdata$?_Ios_base_dtor@ios_base@std@@CAXPEAV12@@Z 0000000180040dc0     libcpmt:ios.obj
 0002:00001df0       digits                     0000000180040df0     libcpmt:xstoul.obj
 0002:00001e18       ndigs                      0000000180040e18     libcpmt:xstoul.obj
 0002:00001e40       digits                     0000000180040e40     libcpmt:xstoull.obj
 0002:00001e68       ndigs                      0000000180040e68     libcpmt:xstoull.obj
 0002:00001e90       ?LcidToLocaleNameTable@@3QBULcidToLocaleName@@B 0000000180040e90     libcpmt:winapinls.obj
 0002:00002cd0       ?LocaleNameToIndexTable@@3QBULocaleNameIndex@@B 0000000180041cd0     libcpmt:winapinls.obj
 0002:000051e8       GS_ExceptionPointers       00000001800441e8     LIBCMT:gs_report.obj
 0002:00005230       ?ExceptionTemplate@?1??_CxxThrowException@@9@4UEHExceptionRecord@@B 0000000180044230     libvcruntime:throw.obj
 0002:00005270       ?ExceptionTemplate@?1??UnwindNestedFrames@__FrameHandler3@@SAXPEA_KPEAUEHExceptionRecord@@PEAU_CONTEXT@@0PEAXPEBU_s_FuncInfo@@HHPEBU_s_HandlerType@@PEAU_xDISPATCHER_CONTEXT@@E@Z@4U_EXCEPTION_RECORD@@B 0000000180044270     libvcruntime:risctrnsctrl.obj
 0002:00005338       ?module_names@?A0xa3b92138@@3QBQEB_WB 0000000180044338     libvcruntime:winapi_downlevel.obj
 0002:00005408       ?candidate_modules@?1??try_get_FlsAlloc@@YAP6AKP6AXPEAX@Z@ZXZ@4QBW4module_id@?A0xa3b92138@@B 0000000180044408     libvcruntime:winapi_downlevel.obj
 0002:00005410       ?candidate_modules@?1??try_get_FlsFree@@YAP6AHK@ZXZ@4QBW4module_id@?A0xa3b92138@@B 0000000180044410     libvcruntime:winapi_downlevel.obj
 0002:00005418       ?candidate_modules@?1??try_get_FlsGetValue@@YAP6APEAXK@ZXZ@4QBW4module_id@?A0xa3b92138@@B 0000000180044418     libvcruntime:winapi_downlevel.obj
 0002:00005420       ?candidate_modules@?1??try_get_FlsSetValue@@YAP6AHKPEAX@ZXZ@4QBW4module_id@?A0xa3b92138@@B 0000000180044420     libvcruntime:winapi_downlevel.obj
 0002:00005428       ?candidate_modules@?1??try_get_InitializeCriticalSectionEx@@YAP6AHPEAU_RTL_CRITICAL_SECTION@@KK@ZXZ@4QBW4module_id@?A0xa3b92138@@B 0000000180044428     libvcruntime:winapi_downlevel.obj
 0002:00005430       ?tokenTable@@3QBQEBDB      0000000180044430     libvcruntime:undname.obj
 0002:000054b0       ?nameTable@@3QBQEBDB       00000001800444b0     libvcruntime:undname.obj
 0002:00005740       ?rttiTable@@3QBQEBDB       0000000180044740     libvcruntime:undname.obj
 0002:00006960       ?errtable@@3QBUerrentry@?A0x31fdb9ec@@B 0000000180045960     libucrt:errno.obj
 0002:000074a0       __flag_x_one_y_snan        00000001800464a0     libucrt:pow.obj
 0002:000074a4       __flag_x_zero_z_inf        00000001800464a4     libucrt:pow.obj
 0002:000074a8       __flag_x_nan               00000001800464a8     libucrt:pow.obj
 0002:000074ac       __flag_y_nan               00000001800464ac     libucrt:pow.obj
 0002:000074b0       __flag_x_nan_y_nan         00000001800464b0     libucrt:pow.obj
 0002:000074b4       __flag_x_neg_y_notint      00000001800464b4     libucrt:pow.obj
 0002:000074b8       __flag_z_zero              00000001800464b8     libucrt:pow.obj
 0002:000074bc       __flag_z_denormal          00000001800464bc     libucrt:pow.obj
 0002:000074c0       __flag_z_inf               00000001800464c0     libucrt:pow.obj
 0002:000074d0       __ay_max_bound             00000001800464d0     libucrt:pow.obj
 0002:000074d8       __ay_min_bound             00000001800464d8     libucrt:pow.obj
 0002:000074e0       __sign_mask                00000001800464e0     libucrt:pow.obj
 0002:000074e8       __sign_and_exp_mask        00000001800464e8     libucrt:pow.obj
 0002:000074f0       __exp_mask                 00000001800464f0     libucrt:pow.obj
 0002:000074f8       __neg_inf                  00000001800464f8     libucrt:pow.obj
 0002:00007500       __pos_inf                  0000000180046500     libucrt:pow.obj
 0002:00007508       __pos_one                  0000000180046508     libucrt:pow.obj
 0002:00007510       __pos_zero                 0000000180046510     libucrt:pow.obj
 0002:00007518       __exp_mant_mask            0000000180046518     libucrt:pow.obj
 0002:00007520       __mant_mask                0000000180046520     libucrt:pow.obj
 0002:00007528       __ind_pattern              0000000180046528     libucrt:pow.obj
 0002:00007530       __neg_qnan                 0000000180046530     libucrt:pow.obj
 0002:00007538       __qnan                     0000000180046538     libucrt:pow.obj
 0002:00007540       __qnan_set                 0000000180046540     libucrt:pow.obj
 0002:00007548       __neg_one                  0000000180046548     libucrt:pow.obj
 0002:00007550       __neg_zero                 0000000180046550     libucrt:pow.obj
 0002:00007558       __exp_shift                0000000180046558     libucrt:pow.obj
 0002:00007560       __exp_bias                 0000000180046560     libucrt:pow.obj
 0002:00007568       __exp_bias_m1              0000000180046568     libucrt:pow.obj
 0002:00007570       __yexp_53                  0000000180046570     libucrt:pow.obj
 0002:00007578       __mant_full                0000000180046578     libucrt:pow.obj
 0002:00007580       __1_before_mant            0000000180046580     libucrt:pow.obj
 0002:00007588       __mask_mant_all8           0000000180046588     libucrt:pow.obj
 0002:00007590       __mask_mant9               0000000180046590     libucrt:pow.obj
 0002:000075a0       __real_fffffffff8000000    00000001800465a0     libucrt:pow.obj
 0002:000075b0       __mask_8000000000000000    00000001800465b0     libucrt:pow.obj
 0002:000075c0       __real_4090040000000000    00000001800465c0     libucrt:pow.obj
 0002:000075d0       __real_C090C80000000000    00000001800465d0     libucrt:pow.obj
 0002:000075e0       __real_ninf                00000001800465e0     libucrt:pow.obj
 0002:000075f0       __real_inf                 00000001800465f0     libucrt:pow.obj
 0002:00007600       __real_nan                 0000000180046600     libucrt:pow.obj
 0002:00007610       __real_mant                0000000180046610     libucrt:pow.obj
 0002:00007620       __mask_1023                0000000180046620     libucrt:pow.obj
 0002:00007630       __mask_001                 0000000180046630     libucrt:pow.obj
 0002:00007640       __real_log2_lead           0000000180046640     libucrt:pow.obj
 0002:00007650       __real_log2_tail           0000000180046650     libucrt:pow.obj
 0002:00007660       __real_two                 0000000180046660     libucrt:pow.obj
 0002:00007670       __real_one                 0000000180046670     libucrt:pow.obj
 0002:00007680       __real_half                0000000180046680     libucrt:pow.obj
 0002:00007690       __mask_100                 0000000180046690     libucrt:pow.obj
 0002:000076a0       __real_1_over_2            00000001800466a0     libucrt:pow.obj
 0002:000076b0       __real_1_over_3            00000001800466b0     libucrt:pow.obj
 0002:000076c0       __real_1_over_4            00000001800466c0     libucrt:pow.obj
 0002:000076d0       __real_1_over_5            00000001800466d0     libucrt:pow.obj
 0002:000076e0       __real_1_over_6            00000001800466e0     libucrt:pow.obj
 0002:000076f0       __real_1_over_7            00000001800466f0     libucrt:pow.obj
 0002:00007700       __mask_1023_f              0000000180046700     libucrt:pow.obj
 0002:00007710       __mask_2045                0000000180046710     libucrt:pow.obj
 0002:00007720       __real_threshold           0000000180046720     libucrt:pow.obj
 0002:00007730       __real_notsign             0000000180046730     libucrt:pow.obj
 0002:00007740       __log_F_inv_head           0000000180046740     libucrt:pow.obj
 0002:00007f50       __log_F_inv_tail           0000000180046f50     libucrt:pow.obj
 0002:00008760       __denormal_threshold       0000000180047760     libucrt:pow.obj
 0002:00008770       __enable_almost_inf        0000000180047770     libucrt:pow.obj
 0002:00008780       __real_zero                0000000180047780     libucrt:pow.obj
 0002:00008790       __real_smallest_denormal   0000000180047790     libucrt:pow.obj
 0002:000087a0       __denormal_tiny_threshold  00000001800477a0     libucrt:pow.obj
 0002:000087b0       __real_p65536              00000001800477b0     libucrt:pow.obj
 0002:000087c0       __real_m68800              00000001800477c0     libucrt:pow.obj
 0002:000087d0       __real_64_by_log2          00000001800477d0     libucrt:pow.obj
 0002:000087e0       __real_log2_by_64_head     00000001800477e0     libucrt:pow.obj
 0002:000087f0       __real_log2_by_64_tail     00000001800477f0     libucrt:pow.obj
 0002:00008800       __real_1_by_720            0000000180047800     libucrt:pow.obj
 0002:00008810       __real_1_by_120            0000000180047810     libucrt:pow.obj
 0002:00008820       __real_1_by_24             0000000180047820     libucrt:pow.obj
 0002:00008830       __real_1_by_6              0000000180047830     libucrt:pow.obj
 0002:00008840       __real_1_by_2              0000000180047840     libucrt:pow.obj
 0002:00008850       __flag_x_one_y_snan        0000000180047850     libucrt:powf.obj
 0002:00008854       __flag_x_zero_z_inf        0000000180047854     libucrt:powf.obj
 0002:00008858       __flag_x_nan               0000000180047858     libucrt:powf.obj
 0002:0000885c       __flag_y_nan               000000018004785c     libucrt:powf.obj
 0002:00008860       __flag_x_nan_y_nan         0000000180047860     libucrt:powf.obj
 0002:00008864       __flag_x_neg_y_notint      0000000180047864     libucrt:powf.obj
 0002:00008868       __flag_z_zero              0000000180047868     libucrt:powf.obj
 0002:0000886c       __flag_z_denormal          000000018004786c     libucrt:powf.obj
 0002:00008870       __flag_z_inf               0000000180047870     libucrt:powf.obj
 0002:00008874       L__1_by_3                  0000000180047874     libucrt:powf.obj
 0002:0000887c       L__log2                    000000018004787c     libucrt:powf.obj
 0002:00008884       L__max_exp_arg             0000000180047884     libucrt:powf.obj
 0002:0000888c       L__min_exp_arg             000000018004788c     libucrt:powf.obj
 0002:00008894       L__real_log2_by_64         0000000180047894     libucrt:powf.obj
 0002:0000889c       L__1_by_6                  000000018004789c     libucrt:powf.obj
 0002:000088a4       L__real_threshold          00000001800478a4     libucrt:powf.obj
 0002:000088ac       L__real_one                00000001800478ac     libucrt:powf.obj
 0002:000088b4       L__real_two                00000001800478b4     libucrt:powf.obj
 0002:000088bc       L__neg_zero                00000001800478bc     libucrt:powf.obj
 0002:000088d0       L__real_ca42               00000001800478d0     libucrt:powf.obj
 0002:000088d8       L__real_ca4                00000001800478d8     libucrt:powf.obj
 0002:000088e0       L__real_ca31               00000001800478e0     libucrt:powf.obj
 0002:000088e8       L__real_ca3                00000001800478e8     libucrt:powf.obj
 0002:000088f0       L__clear_sign              00000001800478f0     libucrt:powf.obj
 0002:00008900       L__real_64_by_log2         0000000180047900     libucrt:powf.obj
 0002:00008910       L__1_by_2                  0000000180047910     libucrt:powf.obj
 0002:00008920       L__1023                    0000000180047920     libucrt:powf.obj
 0002:00008930       L__xexp_bits_xmantissa_bits 0000000180047930     libucrt:powf.obj
 0002:00009250       __acrt_initializers        0000000180048250     libucrt:initialization.obj
 0002:000093b0       _first_127char             00000001800483b0     libucrt:wsetlocale.obj
 0002:00009c20       ?module_names@?A0x391cf84c@@3QBQEB_WB 0000000180048c20     libucrt:winapi_thunks.obj
 0002:0000a1c8       ?candidate_modules@?1??try_get_AreFileApisANSI@@YAP6AHXZXZ@4QBW4module_id@?A0x391cf84c@@B 00000001800491c8     libucrt:winapi_thunks.obj
 0002:0000a1e0       ?candidate_modules@?1??try_get_CompareStringEx@@YAP6AHPEB_WK0H0HPEAU_nlsversioninfo@@PEAX_J@ZXZ@4QBW4module_id@?A0x391cf84c@@B 00000001800491e0     libucrt:winapi_thunks.obj
 0002:0000a1f8       ?candidate_modules@?1??try_get_EnumSystemLocalesEx@@YAP6AHP6AHPEA_WK_J@ZK1PEAX@ZXZ@4QBW4module_id@?A0x391cf84c@@B 00000001800491f8     libucrt:winapi_thunks.obj
 0002:0000a218       ?candidate_modules@?1??try_get_FlsAlloc@@YAP6AKP6AXPEAX@Z@ZXZ@4QBW4module_id@?A0x391cf84c@@B 0000000180049218     libucrt:winapi_thunks.obj
 0002:0000a230       ?candidate_modules@?1??try_get_FlsFree@@YAP6AHK@ZXZ@4QBW4module_id@?A0x391cf84c@@B 0000000180049230     libucrt:winapi_thunks.obj
 0002:0000a240       ?candidate_modules@?1??try_get_FlsGetValue@@YAP6APEAXK@ZXZ@4QBW4module_id@?A0x391cf84c@@B 0000000180049240     libucrt:winapi_thunks.obj
 0002:0000a258       ?candidate_modules@?1??try_get_FlsSetValue@@YAP6AHKPEAX@ZXZ@4QBW4module_id@?A0x391cf84c@@B 0000000180049258     libucrt:winapi_thunks.obj
 0002:0000a270       ?candidate_modules@?1??try_get_GetActiveWindow@@YAP6APEAUHWND__@@XZXZ@4QBW4module_id@?A0x391cf84c@@B 0000000180049270     libucrt:winapi_thunks.obj
 0002:0000a288       ?candidate_modules@?1??try_get_GetDateFormatEx@@YAP6AHPEB_WKPEBU_SYSTEMTIME@@0PEA_WH0@ZXZ@4QBW4module_id@?A0x391cf84c@@B 0000000180049288     libucrt:winapi_thunks.obj
 0002:0000a2a0       ?candidate_modules@?1??try_get_GetLastActivePopup@@YAP6APEAUHWND__@@PEAU2@@ZXZ@4QBW4module_id@?A0x391cf84c@@B 00000001800492a0     libucrt:winapi_thunks.obj
 0002:0000a2c0       ?candidate_modules@?1??try_get_GetLocaleInfoEx@@YAP6AHPEB_WKPEA_WH@ZXZ@4QBW4module_id@?A0x391cf84c@@B 00000001800492c0     libucrt:winapi_thunks.obj
 0002:0000a2d8       ?candidate_modules@?1??try_get_GetProcessWindowStation@@YAP6APEAUHWINSTA__@@XZXZ@4QBW4module_id@?A0x391cf84c@@B 00000001800492d8     libucrt:winapi_thunks.obj
 0002:0000a2f8       ?candidate_modules@?1??try_get_GetSystemTimePreciseAsFileTime@@YAP6AXPEAU_FILETIME@@@ZXZ@4QBW4module_id@?A0x391cf84c@@B 00000001800492f8     libucrt:winapi_thunks.obj
 0002:0000a320       ?candidate_modules@?1??try_get_GetTimeFormatEx@@YAP6AHPEB_WKPEBU_SYSTEMTIME@@0PEA_WH@ZXZ@4QBW4module_id@?A0x391cf84c@@B 0000000180049320     libucrt:winapi_thunks.obj
 0002:0000a338       ?candidate_modules@?1??try_get_GetUserDefaultLocaleName@@YAP6AHPEA_WH@ZXZ@4QBW4module_id@?A0x391cf84c@@B 0000000180049338     libucrt:winapi_thunks.obj
 0002:0000a360       ?candidate_modules@?1??try_get_GetUserObjectInformationW@@YAP6AHPEAXH0KPEAK@ZXZ@4QBW4module_id@?A0x391cf84c@@B 0000000180049360     libucrt:winapi_thunks.obj
 0002:0000a388       ?candidate_modules@?1??try_get_InitializeCriticalSectionEx@@YAP6AHPEAU_RTL_CRITICAL_SECTION@@KK@ZXZ@4QBW4module_id@?A0x391cf84c@@B 0000000180049388     libucrt:winapi_thunks.obj
 0002:0000a3b0       ?candidate_modules@?1??try_get_IsValidLocaleName@@YAP6AHPEB_W@ZXZ@4QBW4module_id@?A0x391cf84c@@B 00000001800493b0     libucrt:winapi_thunks.obj
 0002:0000a3d0       ?candidate_modules@?1??try_get_LCMapStringEx@@YAP6AHPEB_WK0HPEA_WHPEAU_nlsversioninfo@@PEAX_J@ZXZ@4QBW4module_id@?A0x391cf84c@@B 00000001800493d0     libucrt:winapi_thunks.obj
 0002:0000a3e8       ?candidate_modules@?1??try_get_LCIDToLocaleName@@YAP6AHKPEA_WHK@ZXZ@4QBW4module_id@?A0x391cf84c@@B 00000001800493e8     libucrt:winapi_thunks.obj
 0002:0000a408       ?candidate_modules@?1??try_get_LocaleNameToLCID@@YAP6AKPEB_WK@ZXZ@4QBW4module_id@?A0x391cf84c@@B 0000000180049408     libucrt:winapi_thunks.obj
 0002:0000a428       ?candidate_modules@?1??try_get_MessageBoxA@@YAP6AHPEAUHWND__@@PEBD1I@ZXZ@4QBW4module_id@?A0x391cf84c@@B 0000000180049428     libucrt:winapi_thunks.obj
 0002:0000a440       ?candidate_modules@?1??try_get_MessageBoxW@@YAP6AHPEAUHWND__@@PEB_W1I@ZXZ@4QBW4module_id@?A0x391cf84c@@B 0000000180049440     libucrt:winapi_thunks.obj
 0002:0000a454       ?candidate_modules@?1??try_get_AppPolicyGetProcessTerminationMethod@@YAP6AJPEAXPEAW4AppPolicyProcessTerminationMethod@@@ZXZ@4QBW4module_id@?A0x391cf84c@@B 0000000180049454     libucrt:winapi_thunks.obj
 0002:0000a480       ?candidate_modules@?1??try_get_AppPolicyGetShowDeveloperDiagnostic@@YAP6AJPEAXPEAW4AppPolicyShowDeveloperDiagnostic@@@ZXZ@4QBW4module_id@?A0x391cf84c@@B 0000000180049480     libucrt:winapi_thunks.obj
 0002:0000a4ac       ?candidate_modules@?1??try_get_AppPolicyGetWindowingModel@@YAP6AJPEAXPEAW4AppPolicyWindowingModel@@@ZXZ@4QBW4module_id@?A0x391cf84c@@B 00000001800494ac     libucrt:winapi_thunks.obj
 0002:0000a4d0       $cppxdata$?_wcstombs_l_helper@@YA_KPEADPEB_W_KPEAU__crt_locale_pointers@@@Z 00000001800494d0     libucrt:wcstombs.obj
 0002:0000c340       ?_mb_locale_names@@3QBQEB_WB 000000018004b340     libucrt:mbctype.obj
 0002:0000d3a0       __real@433fffffffffffff    000000018004c3a0     libucrt:fpsr.obj
 0002:0000d3a8       __real@c33fffffffffffff    000000018004c3a8     libucrt:fpsr.obj
 0002:0000d3b0       ?LcidToLocaleNameTable@?A0x881e4c05@@3QBULcidToLocaleName@1@B 000000018004c3b0     libucrt:lcidtoname_downlevel.obj
 0002:0000ee10       ?LocaleNameToIndexTable@?A0x881e4c05@@3QBULocaleNameIndex@1@B 000000018004de10     libucrt:lcidtoname_downlevel.obj
 0002:000106b0       __real_ninf                000000018004f6b0     libucrt:log10.obj
 0002:000106c0       __real_inf                 000000018004f6c0     libucrt:log10.obj
 0002:000106d0       __real_neg_qnan            000000018004f6d0     libucrt:log10.obj
 0002:000106e0       __real_qnanbit             000000018004f6e0     libucrt:log10.obj
 0002:000106f0       __int_1023                 000000018004f6f0     libucrt:log10.obj
 0002:00010700       __mask_001                 000000018004f700     libucrt:log10.obj
 0002:00010710       __mask_mant                000000018004f710     libucrt:log10.obj
 0002:00010720       __mask_mant_top8           000000018004f720     libucrt:log10.obj
 0002:00010730       __mask_mant9               000000018004f730     libucrt:log10.obj
 0002:00010740       __real_log10_e             000000018004f740     libucrt:log10.obj
 0002:00010750       __real_log10_e_lead        000000018004f750     libucrt:log10.obj
 0002:00010760       __real_log10_e_tail        000000018004f760     libucrt:log10.obj
 0002:00010770       __real_log10_2_lead        000000018004f770     libucrt:log10.obj
 0002:00010780       __real_log10_2_tail        000000018004f780     libucrt:log10.obj
 0002:00010790       __real_two                 000000018004f790     libucrt:log10.obj
 0002:000107a0       __real_one                 000000018004f7a0     libucrt:log10.obj
 0002:000107b0       __real_half                000000018004f7b0     libucrt:log10.obj
 0002:000107c0       __mask_100                 000000018004f7c0     libucrt:log10.obj
 0002:000107d0       __real_1_over_512          000000018004f7d0     libucrt:log10.obj
 0002:000107e0       __real_1_over_2            000000018004f7e0     libucrt:log10.obj
 0002:000107f0       __real_1_over_3            000000018004f7f0     libucrt:log10.obj
 0002:00010800       __real_1_over_4            000000018004f800     libucrt:log10.obj
 0002:00010810       __real_1_over_5            000000018004f810     libucrt:log10.obj
 0002:00010820       __real_1_over_6            000000018004f820     libucrt:log10.obj
 0002:00010830       __real_neg_1023            000000018004f830     libucrt:log10.obj
 0002:00010840       __mask_2045                000000018004f840     libucrt:log10.obj
 0002:00010850       __real_threshold           000000018004f850     libucrt:log10.obj
 0002:00010860       __real_near_one_lt         000000018004f860     libucrt:log10.obj
 0002:00010870       __real_near_one_gt         000000018004f870     libucrt:log10.obj
 0002:00010880       __real_min_norm            000000018004f880     libucrt:log10.obj
 0002:00010890       __real_notsign             000000018004f890     libucrt:log10.obj
 0002:000108a0       __real_ca1                 000000018004f8a0     libucrt:log10.obj
 0002:000108b0       __real_ca2                 000000018004f8b0     libucrt:log10.obj
 0002:000108c0       __real_ca3                 000000018004f8c0     libucrt:log10.obj
 0002:000108d0       __real_ca4                 000000018004f8d0     libucrt:log10.obj
 0002:000108e0       __mask_lower               000000018004f8e0     libucrt:log10.obj
 0002:000108f0       __flag_x_zero              000000018004f8f0     libucrt:log10.obj
 0002:000108f4       __flag_x_neg               000000018004f8f4     libucrt:log10.obj
 0002:000108f8       __flag_x_nan               000000018004f8f8     libucrt:log10.obj
 0002:00015b90       $unwind$?FunctionCallbackWrapper@imp@Nan@@YAXAEBV?$FunctionCallbackInfo@VValue@v8@@@v8@@@Z 0000000180054b90     binding.obj
 0002:00015ba4       $unwind$?Set@Nan@@YA?AV?$Maybe@_N@1@V?$Local@VObject@v8@@@v8@@V?$Local@VValue@v8@@@4@1@Z 0000000180054ba4     binding.obj
 0002:00015bb8       $unwind$?New@?$Factory@VFunctionTemplate@v8@@@imp@Nan@@SA?AV?$Local@VFunctionTemplate@v8@@@v8@@P6AXAEBV?$FunctionCallbackInfo@VValue@v8@@@3@@ZV?$Local@VValue@v8@@@5@V?$Local@VSignature@v8@@@5@@Z 0000000180054bb8     binding.obj
 0002:00015bcc       $chain$0$?New@?$Factory@VFunctionTemplate@v8@@@imp@Nan@@SA?AV?$Local@VFunctionTemplate@v8@@@v8@@P6AXAEBV?$FunctionCallbackInfo@VValue@v8@@@3@@ZV?$Local@VValue@v8@@@5@V?$Local@VSignature@v8@@@5@@Z 0000000180054bcc     binding.obj
 0002:00015be0       $chain$1$?New@?$Factory@VFunctionTemplate@v8@@@imp@Nan@@SA?AV?$Local@VFunctionTemplate@v8@@@v8@@P6AXAEBV?$FunctionCallbackInfo@VValue@v8@@@3@@ZV?$Local@VValue@v8@@@5@V?$Local@VSignature@v8@@@5@@Z 0000000180054be0     binding.obj
 0002:00015bf4       $chain$2$?New@?$Factory@VFunctionTemplate@v8@@@imp@Nan@@SA?AV?$Local@VFunctionTemplate@v8@@@v8@@P6AXAEBV?$FunctionCallbackInfo@VValue@v8@@@3@@ZV?$Local@VValue@v8@@@5@V?$Local@VSignature@v8@@@5@@Z 0000000180054bf4     binding.obj
 0002:00015c04       $chain$3$?New@?$Factory@VFunctionTemplate@v8@@@imp@Nan@@SA?AV?$Local@VFunctionTemplate@v8@@@v8@@P6AXAEBV?$FunctionCallbackInfo@VValue@v8@@@3@@ZV?$Local@VValue@v8@@@5@V?$Local@VSignature@v8@@@5@@Z 0000000180054c04     binding.obj
 0002:00015c14       $unwind$?NodeRdKafkaErr2Str@@YAXAEBV?$FunctionCallbackInfo@VValue@v8@@@Nan@@@Z 0000000180054c14     binding.obj
 0002:00015c2c       $unwind$?NodeRdKafkaBuildInFeatures@@YAXAEBV?$FunctionCallbackInfo@VValue@v8@@@Nan@@@Z 0000000180054c2c     binding.obj
 0002:00015c44       $chain$1$?NodeRdKafkaBuildInFeatures@@YAXAEBV?$FunctionCallbackInfo@VValue@v8@@@Nan@@@Z 0000000180054c44     binding.obj
 0002:00015c5c       $chain$5$?NodeRdKafkaBuildInFeatures@@YAXAEBV?$FunctionCallbackInfo@VValue@v8@@@Nan@@@Z 0000000180054c5c     binding.obj
 0002:00015c5c       $chain$3$?NodeRdKafkaBuildInFeatures@@YAXAEBV?$FunctionCallbackInfo@VValue@v8@@@Nan@@@Z 0000000180054c5c     binding.obj
 0002:00015c74       $chain$4$?NodeRdKafkaBuildInFeatures@@YAXAEBV?$FunctionCallbackInfo@VValue@v8@@@Nan@@@Z 0000000180054c74     binding.obj
 0002:00015c84       $unwind$?ConstantsInit@@YAXV?$Local@VObject@v8@@@v8@@@Z 0000000180054c84     binding.obj
 0002:00015c94       $unwind$?Init@@YAXV?$Local@VObject@v8@@@v8@@V?$Local@VValue@v8@@@2@PEAX@Z 0000000180054c94     binding.obj
 0002:00015cb4       $unwind$?ExFilterRethrow@@YAHPEAU_EXCEPTION_POINTERS@@PEAUEHExceptionRecord@@PEAH@Z 0000000180054cb4     libvcruntime:frame.obj
 0002:00015cb4       $unwind$__acrt_allocate_buffer_for_argv 0000000180054cb4     libucrt:argv_parsing.obj
 0002:00015cb4       $unwind$__std_exception_destroy 0000000180054cb4     libvcruntime:std_exception.obj
 0002:00015cb4       $unwind$?setbuf@?$basic_filebuf@DU?$char_traits@D@std@@@std@@MEAAPEAV?$basic_streambuf@DU?$char_traits@D@std@@@2@PEAD_J@Z 0000000180054cb4     libcpmt:cerr.obj
 0002:00015cb4       $unwind$??1DeliveryReport@Callbacks@NodeKafka@@QEAA@XZ 0000000180054cb4     callbacks.obj
 0002:00015cb4       $unwind$??_Gexception@stdext@@UEAAPEAXI@Z 0000000180054cb4     common.obj
 0002:00015cb4       $unwind$??_Gruntime_error@std@@UEAAPEAXI@Z 0000000180054cb4     common.obj
 0002:00015cb4       $unwind$??_G_System_error@std@@UEAAPEAXI@Z 0000000180054cb4     common.obj
 0002:00015cb4       $unwind$__acrt_get_process_end_policy 0000000180054cb4     libucrt:win_policies.obj
 0002:00015cb4       $unwind$_onexit            0000000180054cb4     LIBCMT:utility.obj
 0002:00015cb4       $unwind$?do_widen@?$ctype@D@std@@MEBAPEBDPEBD0PEAD@Z 0000000180054cb4     common.obj
 0002:00015cb4       $unwind$??_Gsystem_error@std@@UEAAPEAXI@Z 0000000180054cb4     common.obj
 0002:00015cb4       $unwind$?imbue@?$basic_filebuf@DU?$char_traits@D@std@@@std@@MEAAXAEBVlocale@2@@Z 0000000180054cb4     libcpmt:cerr.obj
 0002:00015cb4       $unwind$?message@_Iostream_error_category@std@@UEBA?AV?$basic_string@DU?$char_traits@D@std@@V?$allocator@D@2@@2@H@Z 0000000180054cb4     common.obj
 0002:00015cb4       $unwind$?initialize_pointers@@YAHXZ 0000000180054cb4     libcpmt:winapisupp.obj
 0002:00015cb4       $unwind$??_G_Iostream_error_category@std@@UEAAPEAXI@Z 0000000180054cb4     common.obj
 0002:00015cb4       $unwind$?GetUnwindTryBlock@__FrameHandler3@@SAHPEA_KPEAU_xDISPATCHER_CONTEXT@@PEBU_s_FuncInfo@@@Z 0000000180054cb4     libvcruntime:ehstate.obj
 0002:00015cb4       $unwind$__acrt_uninitialize_winapi_thunks 0000000180054cb4     libucrt:winapi_thunks.obj
 0002:00015cb4       $unwind$?do_narrow@?$ctype@D@std@@MEBAPEBDPEBD0DPEAD@Z 0000000180054cb4     common.obj
 0002:00015cb4       $unwind$?DeactivateDispatchers@Producer@NodeKafka@@UEAAXXZ 0000000180054cb4     producer.obj
 0002:00015cb4       $unwind$??1?$basic_string@DU?$char_traits@D@std@@V?$allocator@D@2@@std@@QEAA@XZ 0000000180054cb4     binding.obj
 0002:00015cb4       $unwind$??_Gfailure@ios_base@std@@UEAAPEAXI@Z 0000000180054cb4     common.obj
 0002:00015cb4       $unwind$??0?$basic_string@DU?$char_traits@D@std@@V?$allocator@D@2@@std@@QEAA@QEBD@Z 0000000180054cb4     binding.obj
 0002:00015cb4       $unwind$_SetImageBase      0000000180054cb4     libvcruntime:risctrnsctrl.obj
 0002:00015cb4       $unwind$??0bad_exception@std@@QEAA@AEBV01@@Z 0000000180054cb4     libvcruntime:frame.obj
 0002:00015cb4       $unwind$?exit_or_terminate_process@@YAXI@Z 0000000180054cb4     libucrt:exit.obj
 0002:00015cb4       $unwind$?_Tidy_deallocate@?$basic_string@DU?$char_traits@D@std@@V?$allocator@D@2@@std@@QEAAXXZ 0000000180054cb4     binding.obj
 0002:00015cb4       $unwind$?try_cor_exit_process@@YAXI@Z 0000000180054cb4     libucrt:exit.obj
 0002:00015cb4       $unwind$__acrt_uninitialize_locks 0000000180054cb4     libucrt:locks.obj
 0002:00015cb4       $unwind$__vcrt_FlsGetValue 0000000180054cb4     libvcruntime:winapi_downlevel.obj
 0002:00015cb4       $unwind$??$Unwrap@VConnection@NodeKafka@@@ObjectWrap@Nan@@SAPEAVConnection@NodeKafka@@V?$Local@VObject@v8@@@v8@@@Z 0000000180054cb4     connection.obj
 0002:00015cb4       $unwind$?ExecutionInCatch@__FrameHandler3@@SA_NPEAU_xDISPATCHER_CONTEXT@@PEBU_s_FuncInfo@@@Z 0000000180054cb4     libvcruntime:risctrnsctrl.obj
 0002:00015cb4       $unwind$__acrt_get_windowing_model_policy 0000000180054cb4     libucrt:win_policies.obj
 0002:00015cb4       $unwind$__acrt_FlsGetValue 0000000180054cb4     libucrt:winapi_thunks.obj
 0002:00015cb4       $unwind$?_Tidy@?$vector@Uevent_topic_partition_t@Callbacks@NodeKafka@@V?$allocator@Uevent_topic_partition_t@Callbacks@NodeKafka@@@std@@@std@@AEAAXXZ 0000000180054cb4     callbacks.obj
 0002:00015cb4       $unwind$__acrt_initialize_locks 0000000180054cb4     libucrt:locks.obj
 0002:00015cb4       $unwind$??0exception@std@@QEAA@AEBV01@@Z 0000000180054cb4     libcpmt:xthrow.obj
 0002:00015cb4       $unwind$??1event_t@Callbacks@NodeKafka@@QEAA@XZ 0000000180054cb4     callbacks.obj
 0002:00015cb4       $unwind$??$Unwrap@VProducer@NodeKafka@@@ObjectWrap@Nan@@SAPEAVProducer@NodeKafka@@V?$Local@VObject@v8@@@v8@@@Z 0000000180054cb4     producer.obj
 0002:00015cb4       $unwind$??0bad_cast@std@@QEAA@AEBV01@@Z 0000000180054cb4     libcpmt:cerr.obj
 0002:00015cb4       $unwind$_IsExceptionObjectToBeDestroyed 0000000180054cb4     libvcruntime:ehhelpers.obj
 0002:00015cb4       $unwind$__scrt_release_startup_lock 0000000180054cb4     LIBCMT:utility.obj
 0002:00015cb4       $unwind$??$Unwrap@VTopic@NodeKafka@@@ObjectWrap@Nan@@SAPEAVTopic@NodeKafka@@V?$Local@VObject@v8@@@v8@@@Z 0000000180054cb4     producer.obj
 0002:00015cb4       $unwind$__scrt_initialize_crt 0000000180054cb4     LIBCMT:utility.obj
 0002:00015cb4       $unwind$?_Facet_Register@std@@YAXPEAV_Facet_base@1@@Z 0000000180054cb4     libcpmt:locale0.obj
 0002:00015cb4       $unwind$?stream_is_at_end_of_file_nolock@@YA_NV__crt_stdio_stream@@@Z 0000000180054cb4     libucrt:_flsbuf.obj
 0002:00015cb4       $unwind$_SetThrowImageBase 0000000180054cb4     libvcruntime:risctrnsctrl.obj
 0002:00015cb4       $unwind$??0bad_typeid@std@@QEAA@AEBV01@@Z 0000000180054cb4     libvcruntime:rtti.obj
 0002:00015cb4       $unwind$?StateFromIp@__FrameHandler3@@SAHPEBU_s_FuncInfo@@PEAU_xDISPATCHER_CONTEXT@@_K@Z 0000000180054cb4     libvcruntime:ehstate.obj
 0002:00015cb4       $unwind$__scrt_uninitialize_crt 0000000180054cb4     LIBCMT:utility.obj
 0002:00015cb4       $unwind$??_Gtype_info@@UEAAPEAXI@Z 0000000180054cb4     LIBCMT:std_type_info_static.obj
 0002:00015cb4       $unwind$__acrt_GetSystemTimePreciseAsFileTime 0000000180054cb4     libucrt:winapi_thunks.obj
 0002:00015cb4       $unwind$__acrt_getptd_head 0000000180054cb4     libucrt:per_thread_data.obj
 0002:00015cb4       $unwind$??$common_timespec_get@U_timespec64@@@@YAHQEAU_timespec64@@H@Z 0000000180054cb4     libucrt:time.obj
 0002:00015cb4       $unwind$??_G?$codecvt@DDU_Mbstatet@@@std@@MEAAPEAXI@Z 0000000180054cb4     libcpmt:cerr.obj
